******************************************************************************
               TMS320C6x Linker PC v8.3.2                      
******************************************************************************
>> Linked Wed Jul 31 16:16:38 2019

OUTPUT FILE NAME:   <5G_basic_platform_master.out>
ENTRY POINT SYMBOL: "_c_int00"  address: 82835d60


MEMORY CONFIGURATION

         name            origin    length      used     unused   attr    fill
----------------------  --------  ---------  --------  --------  ----  --------
  L2SRAM                00800000   00080000  0000b1e4  00074e1c  RW X
  MSMCSRAM              0c000000   00400000  00207902  001f86fe  RW X
  SRIO                  80000000   02800800  00000000  02800800  RW X
  DDR                   82800800   017fd800  0005d3ea  017a0416  RW X
  CORE1DDR              84000000   04000000  00000000  04000000  RW X


SEGMENT ALLOCATION MAP

run origin  load origin   length   init length attrs members
----------  ----------- ---------- ----------- ----- -------
00800000    00800000    0000b1e8   00000000    rw-
  00800000    00800000    00006044   00000000    rw- .L2RAM
  00806048    00806048    00004000   00000000    rw- .stack
  0080a048    0080a048    000011a0   00000000    rw- platform_lib
0c200000    0c200000    00006882   00000000    rw-
  0c200000    0c200000    00006882   00000000    rw- .qmss
0c206900    0c206900    00001080   00000000    rw-
  0c206900    0c206900    00000f80   00000000    rw- .cppi
  0c207880    0c207880    00000100   00000000    rw- .srioSharedMem
82800800    82800800    0003d500   0003d500    r-x
  82800800    82800800    0003d500   0003d500    r-x .text
8283dd00    8283dd00    000134fa   00000000    rw-
  8283dd00    8283dd00    000134fa   00000000    rw- .far
82851200    82851200    00006634   00006634    r--
  82851200    82851200    00006634   00006634    r-- .const
82857840    82857840    0000442a   00000000    rw-
  82857840    82857840    0000442a   00000000    rw- .fardata
8285bc6c    8285bc6c    00000188   00000188    r--
  8285bc6c    8285bc6c    00000188   00000188    r-- .switch
8285bdf8    8285bdf8    000001cc   00000000    rw-
  8285bdf8    8285bdf8    00000120   00000000    rw- .cio
  8285bf18    8285bf18    00000024   00000000    rw- .bss
  8285bf40    8285bf40    00000084   00000000    rw- .neardata
8285bfc4    8285bfc4    00000006   00000000    r--
  8285bfc4    8285bfc4    00000006   00000000    r-- .rodata
8285c000    8285c000    00001c38   00001c38    r-x
  8285c000    8285c000    00000200   00000200    r-x .vecs
  8285c200    8285c200    00001a38   00001a38    r-- .cinit


SECTION ALLOCATION MAP

 output                                  attributes/
section   page    origin      length       input sections
--------  ----  ----------  ----------   ----------------
ti.sdo.ipc.SharedRegion_0 
*          0    0c000000    00200000     NOLOAD SECTION
                  0c000000    00200000     --HOLE--

.L2RAM     0    00800000    00006044     UNINITIALIZED
                  00800000    00006000     qmss_init.obj (.L2RAM:uninit)
                  00806000    00000018     qmss_init.obj (.L2RAM:init)
                  00806018    00000010     bb_interface.obj (.L2RAM)
                  00806028    00000018     --HOLE--
                  00806040    00000004     main.obj (.L2RAM)

.stack     0    00806048    00004000     UNINITIALIZED
                  00806048    00000008     boot.ae66 : boot.oe66 (.stack)
                  00806050    00003ff8     --HOLE--

.bss       0    8285bf18    00000024     UNINITIALIZED
                  8285bf18    00000004     ti.platform.evm6678l.ae66 : cyhc5g_spi.obj (.bss)
                  8285bf1c    00000004     (.common:Ipc_sr0MemorySetup)
                  8285bf20    00000004     (.common:cppiHnd)
                  8285bf24    00000004     (.common:freeQueHnd)
                  8285bf28    00000004     (.common:hAppManagedSrioDrv)
                  8285bf2c    00000004     (.common:rxChHnd)
                  8285bf30    00000004     (.common:rx_flowhnd)
                  8285bf34    00000004     (.common:txChHnd)
                  8285bf38    00000004     (.common:txQueHnd)

.neardata 
*          0    8285bf40    00000084     UNINITIALIZED
                  8285bf40    0000002c     srio_init.obj (.neardata)
                  8285bf6c    00000018     qmss_osal.obj (.neardata)
                  8285bf84    00000018     ti.osal.ae66 : Utils_tirtos.oe66 (.neardata)
                  8285bf9c    00000004     ti.drv.uart.ae66 : UART_drv.oe66 (.neardata)
                  8285bfa0    00000010     main.obj (.neardata)
                  8285bfb0    0000000c     srio_osal.obj (.neardata)
                  8285bfbc    00000008     ti.platform.evm6678l.ae66 : platform.obj (.neardata)

.rodata    0    8285bfc4    00000006     UNINITIALIZED
                  8285bfc4    00000006     main.obj (.rodata)

.cinit     0    8285c200    00001a38     
                  8285c200    000018c0     (.cinit..fardata.load) [load image, compression = rle]
                  8285dac0    0000009f     (.cinit.platform_lib.load) [load image, compression = rle]
                  8285db5f    00000031     (.cinit..neardata.load) [load image, compression = rle]
                  8285db90    0000000d     (.cinit..far.load) [load image, compression = rle]
                  8285db9d    0000000c     (.cinit..rodata.load) [load image, compression = rle]
                  8285dba9    0000000b     (.cinit..L2RAM.load) [load image, compression = rle]
                  8285dbb4    0000000b     (.cinit..cppi.load) [load image, compression = rle]
                  8285dbbf    0000000b     (.cinit..qmss.load) [load image, compression = rle]
                  8285dbca    0000000b     (.cinit..srioSharedMem.load) [load image, compression = rle]
                  8285dbd5    00000009     (.cinit..bss.load) [load image, compression = rle]
                  8285dbde    00000002     --HOLE-- [fill = 0]
                  8285dbe0    00000008     (__TI_handler_table)
                  8285dbe8    00000050     (__TI_cinit_table)

.init_array 
*          0    82800800    00000000     UNINITIALIZED

.qmss      0    0c200000    00006882     UNINITIALIZED
                  0c200000    00006880     ti.drv.qmss.ae66 : qmss_drv.oe66 (.qmss:uninit)
                  0c206880    00000002                      : qmss_drv.oe66 (.qmss:init)

.cppi      0    0c206900    00000f80     UNINITIALIZED
                  0c206900    00000f80     ti.drv.cppi.ae66 : cppi_drv.oe66 (.cppi)

.srioSharedMem 
*          0    0c207880    00000100     UNINITIALIZED
                  0c207880    00000100     ti.drv.srio.ae66 : srio_drv.oe66 (.srioSharedMem)

.vecs      0    8285c000    00000200     
                  8285c000    00000200     app_pe66.oe66 (.vecs)

xdc.meta   0    82800800    000000f0     COPY SECTION
                  82800800    000000f0     app_pe66.oe66 (xdc.meta)

platform_lib 
*          0    0080a048    000011a0     UNINITIALIZED
                  0080a048    00000858     ti.platform.evm6678l.ae66 : platform.obj (platform_lib:uninit)
                  0080a8a0    00000840                               : cyhc5g_nand.obj (platform_lib)
                  0080b0e0    00000108                               : platform.obj (platform_lib:init)

.text      0    82800800    0003d500     
                  82800800    000026e0     srio_init.obj (.text)
                  82802ee0    00001fe0     rts6600_elf.lib : _printfi.c.obj (.text:__TI_printfi)
                  82804ec0    00001a60     ti.platform.evm6678l.ae66 : platform.obj (.text)
                  82806920    00000ea0     ti.drv.qmss.ae66 : qmss_drv.oe66 (.text:Qmss_insertMemoryRegionSubSys)
                  828077c0    00000ce0     srio_laneconfig.obj (.text)
                  828084a0    00000ca0     qmss_init.obj (.text)
                  82809140    00000c80     ipc.ae66 : Ipc.obj (.text:ti_sdo_ipc_GateMP_Instance_init__E)
                  82809dc0    00000b80     ti.drv.srio.ae66 : srio_drv.oe66 (.text:Srio_processDrvConfig:Srio_processDrvConfig)
                  8280a940    00000b40     ti.platform.evm6678l.ae66 : cyhc5g_nand.obj (.text)
                  8280b480    000009a0                               : cyhc5g.obj (.text)
                  8280be20    00000960     ti.drv.qmss.ae66 : qmss_drv.oe66 (.text:Qmss_initSubSys)
                  8280c780    00000920     srio_osal.obj (.text)
                  8280d0a0    000008c0     ti.drv.qmss.ae66 : qmss_drv.oe66 (.text:Qmss_internalQueueOpen)
                  8280d960    00000880     ti.targets.rts6000.ae66 : System.oe66 (.text:xdc_runtime_System_doPrint__I)
                  8280e1e0    000007e0     ti.platform.evm6678l.ae66 : cyhc5g_i2c_eeprom.obj (.text)
                  8280e9c0    00000780     sysbios.ae66 : BIOS.obj (.text:ti_sysbios_family_c64p_Exception_handler__I)
                  8280f140    00000740                  : BIOS.obj (.text:ti_sysbios_knl_Semaphore_pend__E)
                  8280f880    00000720     ti.drv.cppi.ae66 : cppi_drv.oe66 (.text:Cppi_configureRxFlow)
                  8280ffa0    00000720     ipc.ae66 : Ipc.obj (.text:MessageQ_put)
                  828106c0    00000700     sysbios.ae66 : BIOS.obj (.text:ti_sysbios_timers_timer64_Timer_Module_startup__E)
                  82810dc0    000006e0     utils.ae66 : UTILS.obj (.text:NameServer_add)
                  828114a0    000006e0     ti.drv.uart.ae66 : UART_v0.oe66 (.text:UART_v0_hwiIntFxn$0)
                  82811b80    000006c0     qmss_osal.obj (.text)
                  82812240    00000680     ti.drv.uart.ae66 : UART_stdio.oe66 (.text:UART_printf)
                  828128c0    00000640     ipc.ae66 : Ipc.obj (.text:Ipc_attach)
                  82812f00    00000640     rts6600_elf.lib : _printfi.c.obj (.text:_pconv_a)
                  82813540    00000620     ti.drv.srio.ae66 : srio_drv.oe66 (.text:Srio_sockSend_DIO:Srio_sockSend_DIO)
                  82813b60    00000620     bb_interface.obj (.text)
                  82814180    00000620     ipc.ae66 : Ipc.obj (.text:ti_sdo_ipc_heaps_HeapMemMP_alloc__E)
                  828147a0    00000620     sysbios.ae66 : BIOS.obj (.text:ti_sysbios_heaps_HeapMem_allocUnprotected__E)
                  82814dc0    00000600     rts6600_elf.lib : divd.c.obj (.text:__c6xabi_divd)
                  828153c0    00000600     ipc.ae66 : Ipc.obj (.text:ti_sdo_ipc_GateMP_setRegion0Reserved__F)
                  828159c0    00000600              : Ipc.obj (.text:ti_sdo_ipc_transports_TransportShm_Instance_init__E)
                  82815fc0    000005c0     ti.drv.cppi.ae66 : cppi_drv.oe66 (.text:Cppi_txChannelOpenWithHwCfg)
                  82816580    000005c0     sysbios.ae66 : BIOS.obj (.text:ti_sysbios_heaps_HeapMem_freeUnprotected__E)
                  82816b40    000005a0     ipc.ae66 : Ipc.obj (.text:ti_sdo_ipc_ListMP_Instance_init__E)
                  828170e0    000005a0              : Ipc.obj (.text:ti_sdo_ipc_nsremote_NameServerRemoteNotify_Instance_init__E)
                  82817680    00000560              : Ipc.obj (.text:ti_sdo_ipc_GateMP_Instance_finalize__E)
                  82817be0    00000560              : Ipc.obj (.text:ti_sdo_ipc_heaps_HeapMemMP_free__E)
                  82818140    00000540     ti.drv.cppi.ae66 : cppi_drv.oe66 (.text:Cppi_rxChannelOpen)
                  82818680    00000500     ti.drv.srio.ae66 : srio_drv.oe66 (.text:Srio_start:Srio_start)
                  82818b80    00000500     sysbios.ae66 : BIOS.obj (.text:ti_sysbios_knl_Task_Instance_finalize__E)
                  82819080    000004c0     ti.board.ae66 : board_pll.oe66 (.text:init_pll)
                  82819540    000004c0     ipc.ae66 : Ipc.obj (.text:ti_sdo_ipc_heaps_HeapMemMP_Instance_init__E)
                  82819a00    00000480     ti.drv.cppi.ae66 : cppi_drv.oe66 (.text:Cppi_init)
                  82819e80    00000480                      : cppi_desc.oe66 (.text:Cppi_initDescriptorSubSys)
                  8281a300    00000480     ti.drv.uart.ae66 : UART_v0.oe66 (.text:UART_open_v0$0)
                  8281a780    00000480     sysbios.ae66 : BIOS.obj (.text:ti_sysbios_gates_GateMutexPri_enter__E)
                  8281ac00    00000460     ti.platform.evm6678l.ae66 : cyhc5g_spi.obj (.text)
                  8281b060    00000460     sysbios.ae66 : BIOS.obj (.text:ti_sysbios_knl_Task_sleep__E)
                  8281b4c0    00000440     ti.drv.srio.ae66 : srio_drv.oe66 (.text:Srio_sockBind_DIO:Srio_sockBind_DIO)
                  8281b900    00000440     ti.drv.uart.ae66 : UART_v0.oe66 (.text:UART_write2_v0$0)
                  8281bd40    00000440     rts6600_elf.lib : _printfi.c.obj (.text:_pconv_g)
                  8281c180    00000420     ipc.ae66 : Ipc.obj (.text:Notify_sendEvent)
                  8281c5a0    00000420     sysbios.ae66 : BIOS.obj (.text:ti_sysbios_knl_Task_setPri__E)
                  8281c9c0    00000400     ipc.ae66 : Ipc.obj (.text:Notify_registerEventSingle)
                  8281cdc0    00000400     ti.drv.srio.ae66 : srio_drv.oe66 (.text:Srio_sockOpen:Srio_sockOpen)
                  8281d1c0    00000400     ti.drv.uart.ae66 : UART_v0.oe66 (.text:UART_read2_v0$0)
                  8281d5c0    00000400     ipc.ae66 : Ipc.obj (.text:ti_sdo_ipc_nsremote_NameServerRemoteNotify_get__F)
                  8281d9c0    000003e0              : Ipc.obj (.text:Notify_unregisterEventSingle)
                  8281dda0    000003e0     main.obj (.text)
                  8281e180    000003e0     ti.platform.evm6678l.ae66 : cyhc5g_nor.obj (.text)
                  8281e560    000003e0     ipc.ae66 : Ipc.obj (.text:ti_sdo_ipc_MessageQ_Instance_init__E)
                  8281e940    000003c0     sysbios.ae66 : BIOS.obj (.text:ti_sysbios_knl_Task_Instance_init__E)
                  8281ed00    000003a0     utils.ae66 : UTILS.obj (.text:ti_sdo_utils_NameServer_registerRemoteDriver__E)
                  8281f0a0    000003a0     sysbios.ae66 : BIOS.obj (.text:ti_sysbios_family_c66_Cache_startup__I)
                  8281f440    00000360     utils.ae66 : UTILS.obj (.text:ti_sdo_utils_NameServer_isRegistered__E)
                  8281f7a0    00000360                : UTILS.obj (.text:ti_sdo_utils_NameServer_unregisterRemoteDriver__E)
                  8281fb00    00000340     ti.drv.srio.ae66 : srio_drv.oe66 (.text:Srio_initCfg)
                  8281fe40    00000340     ti.platform.evm6678l.ae66 : cyhc5g_gpio.obj (.text)
                  82820180    00000340     ipc.ae66 : Ipc.obj (.text:ti_sdo_ipc_gates_GatePeterson_Instance_init__E)
                  828204c0    00000340     sysbios.ae66 : BIOS.obj (.text:ti_sysbios_family_c66_tci66xx_CpIntc_Module_startup__E)
                  82820800    00000320     rts6600_elf.lib : fputs.c.obj (.text:fputs)
                  82820b20    00000320     sysbios.ae66 : BIOS.obj (.text:ti_sysbios_timers_timer64_Timer_deviceConfig__I)
                  82820e40    00000300     ti.drv.cppi.ae66 : cppi_drv.oe66 (.text:Cppi_open)
                  82821140    00000300     utils.ae66 : UTILS.obj (.text:NameServer_getLocal)
                  82821440    00000300     ipc.ae66 : Ipc.obj (.text:ti_sdo_ipc_Notify_Instance_init__E)
                  82821740    00000300     sysbios.ae66 : BIOS.obj (.text:ti_sysbios_knl_Swi_runLoop__I)
                  82821a40    00000300                  : BIOS.obj (.text:ti_sysbios_knl_Task_Module_startup__E)
                  82821d40    000002e0     ipc.ae66 : Ipc.obj (.text:ListMP_getHead)
                  82822020    000002e0     ti.drv.qmss.ae66 : qmss_drv.oe66 (.text:Qmss_internalRmStartIndex)
                  82822300    000002e0     ti.drv.srio.ae66 : srio_drv.oe66 (.text:Srio_sockBind_TYPE11:Srio_sockBind_TYPE11)
                  828225e0    000002e0                      : srio_drv.oe66 (.text:Srio_sockSend_TYPE9:Srio_sockSend_TYPE9)
                  828228c0    000002e0     ipc.ae66 : Ipc.obj (.text:ti_sdo_ipc_SharedRegion_reserveMemory__F)
                  82822ba0    000002e0     sysbios.ae66 : BIOS.obj (.text:ti_sysbios_heaps_HeapMem_Instance_init__E)
                  82822e80    000002c0     ti.drv.srio.ae66 : srio_drv.oe66 (.text:Srio_sockSend_TYPE11:Srio_sockSend_TYPE11)
                  82823140    000002c0     rts6600_elf.lib : _printfi.c.obj (.text:fcvt)
                  82823400    000002c0     ipc.ae66 : Ipc.obj (.text:ti_sdo_ipc_heaps_HeapMemMP_postInit__I)
                  828236c0    000002c0     sysbios.ae66 : BIOS.obj (.text:ti_sysbios_knl_Clock_workFunc__E)
                  82823980    000002c0     ti.targets.rts6000.ae66 : LoggerBuf.oe66 (.text:xdc_runtime_LoggerBuf_write8__E)
                  82823c40    000002a0     ti.board.ae66 : cyhc5GC6678_ddr.oe66 (.text:Board_DDR3Init)
                  82823ee0    000002a0     ti.drv.srio.ae66 : srio_drv.oe66 (.text:Srio_sockBind_TYPE9:Srio_sockBind_TYPE9)
                  82824180    000002a0     rts6600_elf.lib : _printfi.c.obj (.text:_pconv_e)
                  82824420    000002a0     ipc.ae66 : Ipc.obj (.text:ti_sdo_ipc_MessageQ_registerTransport__F)
                  828246c0    000002a0              : Ipc.obj (.text:ti_sdo_ipc_MessageQ_unregisterTransport__F)
                  82824960    00000280     ti.drv.qmss.ae66 : qmss_drv.oe66 (.text:Qmss_internalQueueClose)
                  82824be0    00000260     sysbios.ae66 : BIOS.obj (.text:ti_sysbios_family_c64p_Hwi_dispatchCore__I)
                  82824e40    00000260                  : BIOS.obj (.text:ti_sysbios_knl_Semaphore_post__E)
                  828250a0    00000260     ti.targets.rts6000.ae66 : Startup.oe66 (.text:xdc_runtime_Startup_startMods__I)
                  82825300    00000240     rts6600_elf.lib : imath64.c.obj (.text:__c6xabi_divull)
                  82825540    00000240     sysbios.ae66 : BIOS.obj (.text:ti_sysbios_family_c64p_EventCombiner_dispatch__E)
                  82825780    00000240                  : BIOS.obj (.text:ti_sysbios_family_c64p_Exception_internalHandler__I)
                  828259c0    00000240     ti.targets.rts6000.ae66 : Core-mem.oe66 (.text:xdc_runtime_Core_createObject__I)
                  82825c00    00000220     ipc.ae66 : Ipc.obj (.text:ListMP_putTail)
                  82825e20    00000220              : Ipc.obj (.text:SharedRegion_getPtr)
                  82826040    00000220              : Ipc.obj (.text:SharedRegion_getSRPtr)
                  82826260    00000220     sysbios.ae66 : BIOS.obj (.text:ti_sysbios_family_c64p_Hwi_reconfig__E)
                  82826480    00000220                  : BIOS.obj (.text:ti_sysbios_knl_Swi_run__I)
                  828266a0    00000220                  : BIOS.obj (.text:ti_sysbios_timers_timer64_Timer_setPeriodMicroSecs__E)
                  828268c0    00000220     ti.targets.rts6000.ae66 : Error.oe66 (.text:xdc_runtime_Error_policyDefault__E)
                  82826ae0    00000200     ipc.ae66 : Ipc.obj (.text:GateMP_openByAddr)
                  82826ce0    00000200              : Ipc.obj (.text:HeapMemMP_sharedMemReq)
                  82826ee0    00000200              : Ipc.obj (.text:Ipc_start)
                  828270e0    00000200     ti.osal.ae66 : SemaphoreP_tirtos.oe66 (.text:SemaphoreP_create)
                  828272e0    00000200     ipc.ae66 : Ipc.obj (.text:SharedRegion_getEntry)
                  828274e0    00000200     ti.drv.srio.ae66 : srio_drv.oe66 (.text:Srio_dioCompletionIsr:Srio_dioCompletionIsr)
                  828276e0    00000200     ti.drv.uart.ae66 : UART_v0.oe66 (.text:UART_readPolling_v0$0)
                  828278e0    00000200     sysbios.ae66 : c64p_Hwi_disp_always.obj (.text:_ti_sysbios_family_c64p_Hwi_dispatchAlways)
                  82827ae0    00000200     ti.drv.cppi.ae66 : cppi_heap.oe66 (.text:cppi_internal_heap_add)
                  82827ce0    00000200     ipc.ae66 : Ipc.obj (.text:ti_sdo_ipc_SharedRegion_start__F)
                  82827ee0    00000200              : Ipc.obj (.text:ti_sdo_ipc_nsremote_NameServerRemoteNotify_swiFxnRequest__I)
                  828280e0    000001e0              : Ipc.obj (.text:GateMP_sharedMemReq)
                  828282c0    000001e0     ti.osal.ae66 : HwiP_tirtos.oe66 (.text:HwiP_create)
                  828284a0    000001e0     ti.board.ae66 : cyhc5GC6678_phy.oe66 (.text:Init_SGMII)
                  82828680    000001e0     ti.drv.qmss.ae66 : qmss_drv.oe66 (.text:Qmss_internaldownloadFirmware)
                  82828860    000001e0     ti.drv.uart.ae66 : UART_stdio.oe66 (.text:UART_convertVal$0)
                  82828a40    000001e0     ti.platform.evm6678l.ae66 : cyhc5g_uart.obj (.text)
                  82828c20    000001e0     sysbios.ae66 : BIOS.obj (.text:ti_sysbios_family_c64p_EventCombiner_dispatchPlug__E)
                  82828e00    000001e0                  : BIOS.obj (.text:ti_sysbios_gates_GateMutex_enter__E)
                  82828fe0    000001e0     ti.targets.rts6000.ae66 : Text.oe66 (.text:xdc_runtime_Text_putSite__E)
                  828291c0    000001c0     utils.ae66 : UTILS.obj (.text:NameServer_getHandle)
                  82829380    000001c0     rts6600_elf.lib : imath40.c.obj (.text:__c6xabi_divul)
                  82829540    000001c0                     : _printfi.c.obj (.text:_ltostr)
                  82829700    000001c0                     : fputc.c.obj (.text:fputc)
                  828298c0    000001c0                     : setvbuf.c.obj (.text:setvbuf)
                  82829a80    000001c0     ipc.ae66 : Ipc.obj (.text:ti_sdo_ipc_Ipc_procSyncStart__I)
                  82829c40    000001c0     sysbios.ae66 : BIOS.obj (.text:ti_sysbios_family_c66_tci66xx_CpIntc_dispatch__E)
                  82829e00    000001c0                  : BIOS.obj (.text:ti_sysbios_knl_Task_checkStacks__E)
                  82829fc0    000001c0                  : BIOS.obj (.text:ti_sysbios_timers_timer64_Timer_getFreq__E)
                  8282a180    000001c0                  : BIOS.obj (.text:ti_sysbios_timers_timer64_Timer_start__E)
                  8282a340    000001c0     ti.targets.rts6000.ae66 : LoggerBuf.oe66 (.text:xdc_runtime_LoggerBuf_write4__E)
                  8282a500    000001a0     ipc.ae66 : Ipc.obj (.text:GateMP_enter)
                  8282a6a0    000001a0              : Ipc.obj (.text:GateMP_leave)
                  8282a840    000001a0     rts6600_elf.lib : hostrename.c.obj (.text:HOSTrename)
                  8282a9e0    000001a0     ti.drv.qmss.ae66 : qmss_acc.oe66 (.text:Qmss_cfgAccumulatorCh)
                  8282ab80    000001a0     rts6600_elf.lib : frexp.c.obj (.text:frexp)
                  8282ad20    000001a0                     : s_scalbn.c.obj (.text:scalbn)
                  8282aec0    000001a0     ipc.ae66 : Ipc.obj (.text:ti_sdo_ipc_transports_TransportShm_Instance_finalize__E)
                  8282b060    000001a0              : Ipc.obj (.text:ti_sdo_ipc_transports_TransportShm_openByAddr__E)
                  8282b200    000001a0              : Ipc.obj (.text:ti_sdo_ipc_transports_TransportShm_put__E)
                  8282b3a0    000001a0     sysbios.ae66 : BIOS.obj (.text:ti_sysbios_family_c64p_EventCombiner_disableEvent__E)
                  8282b540    000001a0                  : BIOS.obj (.text:ti_sysbios_family_c64p_EventCombiner_enableEvent__E)
                  8282b6e0    000001a0                  : BIOS.obj (.text:ti_sysbios_family_c66_Cache_block__I)
                  8282b880    000001a0                  : BIOS.obj (.text:ti_sysbios_family_c66_Cache_getL2InitSize__I)
                  8282ba20    000001a0                  : BIOS.obj (.text:ti_sysbios_knl_Task_schedule__I)
                  8282bbc0    000001a0     ti.targets.rts6000.ae66 : Core-smem.oe66 (.text:xdc_runtime_Core_constructObject__I)
                  8282bd60    000001a0     app_pe66.oe66 (.text:xdc_runtime_System_printfExtend__I)
                  8282bf00    00000180     ti.board.ae66 : cyhc5GC6678.oe66 (.text:Board_init)
                  8282c080    00000180                   : board_clock.oe66 (.text:Board_moduleClockInit)
                  8282c200    00000180     ipc.ae66 : Ipc.obj (.text:MessageQ_get)
                  8282c380    00000180     sysbios.ae66 : c64p_Exception_asm.obj (.text)
                  8282c500    00000180     ipc.ae66 : Ipc.obj (.text:ti_sdo_ipc_GateMP_attach__F)
                  8282c680    00000180     utils.ae66 : UTILS.obj (.text:ti_sdo_utils_NameServer_removeLocal__I)
                  8282c800    00000180     sysbios.ae66 : BIOS.obj (.text:ti_sysbios_knl_Swi_Instance_init__E)
                  8282c980    00000180                  : BIOS.obj (.text:ti_sysbios_knl_Task_exit__E)
                  8282cb00    00000180                  : BIOS.obj (.text:ti_sysbios_knl_Task_startCore__E)
                  8282cc80    00000180                  : BIOS.obj (.text:ti_sysbios_syncs_SyncSem_Instance_init__E)
                  8282ce00    00000180     uart_mutex.obj (.text)
                  8282cf80    00000160     ipc.ae66 : Ipc.obj (.text:MessageQ_create)
                  8282d0e0    00000160     ti.osal.ae66 : RegisterIntr_tirtos.oe66 (.text:Osal_RegisterInterrupt)
                  8282d240    00000160     ti.drv.qmss.ae66 : qmss_drv.oe66 (.text:Qmss_startSubSysCfg)
                  8282d3a0    00000160     ipc.ae66 : Ipc.obj (.text:ti_sdo_ipc_GateMP_openRegion0Reserved__F)
                  8282d500    00000160              : Ipc.obj (.text:ti_sdo_ipc_MessageQ_Instance_finalize__E)
                  8282d660    00000160              : Ipc.obj (.text:ti_sdo_ipc_gates_GatePeterson_enter__E)
                  8282d7c0    00000160     sysbios.ae66 : BIOS.obj (.text:ti_sysbios_family_c64p_Hwi_Module_startup__E)
                  8282d920    00000160                  : BIOS.obj (.text:ti_sysbios_knl_Swi_post__E)
                  8282da80    00000160     ti.targets.rts6000.ae66 : Text.oe66 (.text:xdc_runtime_Text_putMod__E)
                  8282dbe0    00000140     ipc.ae66 : Ipc.obj (.text:ListMP_remove)
                  8282dd20    00000140              : Ipc.obj (.text:ListMP_sharedMemReq)
                  8282de60    00000140              : Ipc.obj (.text:Notify_intLineRegistered)
                  8282dfa0    00000140     ti.drv.qmss.ae66 : qmss_drv.oe66 (.text:Qmss_rmServiceGroups)
                  8282e0e0    00000140     ipc.ae66 : Ipc.obj (.text:SharedRegion_getCacheLineSize)
                  8282e220    00000140              : Ipc.obj (.text:SharedRegion_getHeap)
                  8282e360    00000140              : Ipc.obj (.text:SharedRegion_isCacheEnabled)
                  8282e4a0    00000140     ti.drv.srio.ae66 : srio_drv.oe66 (.text:Srio_rmService)
                  8282e5e0    00000140                      : srio_drv.oe66 (.text:Srio_validateBindingId:Srio_validateBindingId)
                  8282e720    00000140     ti.board.ae66 : cyhc5GC6678_phy.oe66 (.text:configSerdes)
                  8282e860    00000140     ipc.ae66 : Ipc.obj (.text:ti_sdo_ipc_GateMP_createLocal__F)
                  8282e9a0    00000140              : Ipc.obj (.text:ti_sdo_ipc_GateMP_getFreeResource__I)
                  8282eae0    00000140              : Ipc.obj (.text:ti_sdo_ipc_nsremote_NameServerRemoteNotify_attach__E)
                  8282ec20    00000140              : Ipc.obj (.text:ti_sdo_ipc_nsremote_NameServerRemoteNotify_cbFxn__I)
                  8282ed60    00000140     utils.ae66 : UTILS.obj (.text:ti_sdo_utils_NameServer_Module_startup__E)
                  8282eea0    00000140     sysbios.ae66 : BIOS.obj (.text:ti_sysbios_gates_GateSwi_enter__E)
                  8282efe0    00000140                  : BIOS.obj (.text:ti_sysbios_knl_Semaphore_Instance_init__E)
                  8282f120    00000140                  : BIOS.obj (.text:ti_sysbios_knl_Task_blockI__E)
                  8282f260    00000140                  : BIOS.obj (.text:ti_sysbios_knl_Task_postInit__I)
                  8282f3a0    00000140     ti.targets.rts6000.ae66 : Core-mem.oe66 (.text:xdc_runtime_Core_deleteObject__I)
                  8282f4e0    00000140                             : LoggerBuf.oe66 (.text:xdc_runtime_LoggerBuf_setFilterLevel__E)
                  8282f620    00000120     ti.csl.ae66 : csl_chip.oe66 (.text:CSL_chipReadReg)
                  8282f740    00000120     ipc.ae66 : Ipc.obj (.text:GateMP_close)
                  8282f860    00000120     ti.drv.qmss.ae66 : qmss_drv.oe66 (.text:Qmss_getMemoryRegionCfg)
                  8282f980    00000120                      : qmss_acc.oe66 (.text:Qmss_openAccumulatorChSubSys)
                  8282faa0    00000120                      : qmss_drv.oe66 (.text:Qmss_rmService)
                  8282fbc0    00000120     boot.ae66 : autoinit.oe66 (.text:_auto_init_elf)
                  8282fce0    00000120     rts6600_elf.lib : _printfi.c.obj (.text:_pconv_f)
                  8282fe00    00000120     ti.drv.cppi.ae66 : cppi_drv.oe66 (.text:cppiRmService)
                  8282ff20    00000120     rts6600_elf.lib : getdevice.c.obj (.text:getdevice)
                  82830040    00000120     ipc.ae66 : Ipc.obj (.text:ti_sdo_ipc_Notify_Module_startup__E)
                  82830160    00000120     app_pe66.oe66 (.text:ti_sdo_ipc_Notify_create)
                  82830280    00000120     ipc.ae66 : Ipc.obj (.text:ti_sdo_ipc_gates_GateHWSem_Instance_init__E)
                  828303a0    00000120     sysbios.ae66 : BIOS.obj (.text:ti_sysbios_family_c64p_Hwi_Instance_init__E)
                  828304c0    00000120                  : BIOS.obj (.text:ti_sysbios_knl_Swi_restoreHwi__E)
                  828305e0    00000120     ti.targets.rts6000.ae66 : LoggerBuf.oe66 (.text:xdc_runtime_LoggerBuf_getFilterLevel__E)
                  82830700    00000100     ti.board.ae66 : board_utils.oe66 (.text:BOARD_delay)
                  82830800    00000100     ti.osal.ae66 : EventCombinerP_tirtos.oe66 (.text:EventCombinerP_GroupRegisterInt)
                  82830900    00000100     ti.drv.uart.ae66 : UART_v0.oe66 (.text:UART_read_v0$0)
                  82830a00    00000100                      : UART_v0.oe66 (.text:UART_writePolling_v0$0)
                  82830b00    00000100                      : UART_v0.oe66 (.text:UART_write_v0$0)
                  82830c00    00000100     rts6600_elf.lib : fclose.c.obj (.text:__TI_closefile)
                  82830d00    00000100                     : copy_decompress_rle.c.obj (.text:__TI_decompress_rle_core)
                  82830e00    00000100                     : _printfi.c.obj (.text:_mcpy)
                  82830f00    00000100                     : atoi.c.obj (.text:atoi)
                  82831000    00000100                     : fseek.c.obj (.text:fseek)
                  82831100    00000100     ipc.ae66 : Ipc.obj (.text:ti_sdo_ipc_GateMP_start__F)
                  82831200    00000100              : Ipc.obj (.text:ti_sdo_ipc_Ipc_procSyncFinish__I)
                  82831300    00000100              : Ipc.obj (.text:ti_sdo_ipc_Notify_exec__F)
                  82831400    00000100              : Ipc.obj (.text:ti_sdo_ipc_SharedRegion_attach__F)
                  82831500    00000100              : Ipc.obj (.text:ti_sdo_ipc_gates_GateHWSem_enter__E)
                  82831600    00000100              : Ipc.obj (.text:ti_sdo_ipc_heaps_HeapMemMP_getStats__E)
                  82831700    00000100     sysbios.ae66 : BIOS.obj (.text:ti_sysbios_family_c64p_Hwi_Instance_finalize__E)
                  82831800    00000100                  : BIOS.obj (.text:ti_sysbios_gates_GateMutexPri_leave__E)
                  82831900    00000100                  : BIOS.obj (.text:ti_sysbios_knl_Task_unblockI__E)
                  82831a00    00000100                  : BIOS.obj (.text:ti_sysbios_timers_timer64_Timer_initDevice__I)
                  82831b00    00000100                  : BIOS.obj (.text:ti_sysbios_xdcruntime_GateThreadSupport_leave__E)
                  82831c00    00000100     ti.targets.rts6000.ae66 : Error.oe66 (.text:xdc_runtime_Error_print__E)
                  82831d00    00000100                             : Memory.oe66 (.text:xdc_runtime_Memory_alloc__E)
                  82831e00    00000100                             : Startup.oe66 (.text:xdc_runtime_Startup_exec__E)
                  82831f00    000000e0     rts6600_elf.lib : hostlseek.c.obj (.text:HOSTlseek)
                  82831fe0    000000e0                     : hostopen.c.obj (.text:HOSTopen)
                  828320c0    000000e0                     : hostwrite.c.obj (.text:HOSTwrite)
                  828321a0    000000e0     ipc.ae66 : Ipc.obj (.text:HeapMemMP_openByAddr)
                  82832280    000000e0              : Ipc.obj (.text:ListMP_openByAddr)
                  82832360    000000e0              : Ipc.obj (.text:MessageQ_Params_init__S)
                  82832440    000000e0     ti.drv.qmss.ae66 : qmss_drv.oe66 (.text:Qmss_rmNameService)
                  82832520    000000e0     ti.drv.uart.ae66 : UART_v0.oe66 (.text:UART_close_v0$0)
                  82832600    000000e0                      : UART_v0.oe66 (.text:UART_readCancelNoCB$0)
                  828326e0    000000e0     rts6600_elf.lib : _io_perm.c.obj (.text:__TI_wrt_ok)
                  828327c0    000000e0                     : close.c.obj (.text:close)
                  828328a0    000000e0                     : exit.c.obj (.text:exit)
                  82832980    000000e0     uart_mutex.obj (.text:getSemaphore)
                  82832a60    000000e0     rts6600_elf.lib : ltoa.c.obj (.text:ltoa)
                  82832b40    000000e0                     : memset.c.obj (.text:memset)
                  82832c20    000000e0                     : printf.c.obj (.text:printf)
                  82832d00    000000e0     ipc.ae66 : Ipc.obj (.text:ti_sdo_ipc_ListMP_Instance_finalize__E)
                  82832de0    000000e0              : Ipc.obj (.text:ti_sdo_ipc_MessageQ_Module_startup__E)
                  82832ec0    000000e0              : Ipc.obj (.text:ti_sdo_ipc_Notify_Instance_finalize__E)
                  82832fa0    000000e0              : Ipc.obj (.text:ti_sdo_ipc_SharedRegion_clearReservedMemory__F)
                  82833080    000000e0              : Ipc.obj (.text:ti_sdo_ipc_gates_GateMPSupportNull_enter__E)
                  82833160    000000e0              : Ipc.obj (.text:ti_sdo_ipc_gates_GateMPSupportNull_leave__E)
                  82833240    000000e0              : Ipc.obj (.text:ti_sdo_ipc_heaps_HeapMemMP_Instance_finalize__E)
                  82833320    000000e0              : Ipc.obj (.text:ti_sdo_ipc_nsremote_NameServerRemoteNotify_Instance_finalize__E)
                  82833400    000000e0              : Ipc.obj (.text:ti_sdo_ipc_transports_TransportShmSetup_attach__E)
                  828334e0    000000e0     sysbios.ae66 : BIOS.obj (.text:ti_sysbios_heaps_HeapMem_alloc__E)
                  828335c0    000000e0                  : BIOS.obj (.text:ti_sysbios_knl_Swi_Instance_finalize__E)
                  828336a0    000000e0                  : BIOS.obj (.text:ti_sysbios_timers_timer64_Timer_startup__E)
                  82833780    000000e0     ti.targets.rts6000.ae66 : Text.oe66 (.text:xdc_runtime_Text_visitRope2__I)
                  82833860    000000c0     rts6600_elf.lib : hostread.c.obj (.text:HOSTread)
                  82833920    000000c0                     : hostunlink.c.obj (.text:HOSTunlink)
                  828339e0    000000c0     ti.osal.ae66 : Utils_tirtos.oe66 (.text:Osal_delay)
                  82833aa0    000000c0     ti.drv.qmss.ae66 : qmss_drv.oe66 (.text:Qmss_getMemRegQueueHandleSubSys)
                  82833b60    000000c0     ipc.ae66 : Ipc.obj (.text:SharedRegion_getId)
                  82833c20    000000c0     ti.drv.srio.ae66 : srio_drv.oe66 (.text:Srio_flushSockData:Srio_flushSockData)
                  82833ce0    000000c0                      : srio_drv.oe66 (.text:Srio_getDescSize:Srio_getDescSize)
                  82833da0    000000c0                      : srio_drv.oe66 (.text:Srio_initSockData:Srio_initSockData)
                  82833e60    000000c0     ti.drv.uart.ae66 : UART_v0.oe66 (.text:UART_charPut$0)
                  82833f20    000000c0                      : UART_v0.oe66 (.text:UART_writeCancelNoCB$0)
                  82833fe0    000000c0     rts6600_elf.lib : fflush.c.obj (.text:__TI_doflush)
                  828340a0    000000c0                     : divu.asm.obj (.text:__divu)
                  82834160    000000c0     ti.drv.cppi.ae66 : cppi_listlib.oe66 (.text:cppi_list_cat)
                  82834220    000000c0     platform_osal_function.obj (.text)
                  828342e0    000000c0     app_pe66.oe66 (.text:ti_sdo_ipc_GateMP_create)
                  828343a0    000000c0     ipc.ae66 : Ipc.obj (.text:ti_sdo_ipc_GateMP_getRegion0ReservedSize__F)
                  82834460    000000c0     app_pe66.oe66 (.text:ti_sdo_ipc_ListMP_create)
                  82834520    000000c0     app_pe66.oe66 (.text:ti_sdo_ipc_MessageQ_create)
                  828345e0    000000c0     ipc.ae66 : Ipc.obj (.text:ti_sdo_ipc_MessageQ_grow__I)
                  828346a0    000000c0     app_pe66.oe66 (.text:ti_sdo_ipc_gates_GatePeterson_Object__create__S)
                  82834760    000000c0     app_pe66.oe66 (.text:ti_sdo_ipc_gates_GatePeterson_create)
                  82834820    000000c0     app_pe66.oe66 (.text:ti_sdo_ipc_heaps_HeapMemMP_Object__create__S)
                  828348e0    000000c0     app_pe66.oe66 (.text:ti_sdo_ipc_heaps_HeapMemMP_create)
                  828349a0    000000c0     app_pe66.oe66 (.text:ti_sdo_ipc_nsremote_NameServerRemoteNotify_Object__create__S)
                  82834a60    000000c0     app_pe66.oe66 (.text:ti_sdo_ipc_nsremote_NameServerRemoteNotify_create)
                  82834b20    000000c0     app_pe66.oe66 (.text:ti_sdo_ipc_transports_TransportShm_Object__create__S)
                  82834be0    000000c0     app_pe66.oe66 (.text:ti_sdo_ipc_transports_TransportShm_create)
                  82834ca0    000000c0     sysbios.ae66 : BIOS.obj (.text:ti_sysbios_gates_GateAll_leave__E)
                  82834d60    000000c0                  : BIOS.obj (.text:ti_sysbios_heaps_HeapMem_getStats__E)
                  82834e20    000000c0                  : BIOS.obj (.text:ti_sysbios_knl_Clock_logTick__E)
                  82834ee0    000000c0                  : BIOS.obj (.text:ti_sysbios_knl_Swi_schedule__I)
                  82834fa0    000000c0                  : BIOS.obj (.text:ti_sysbios_knl_Task_allBlockedFunction__I)
                  82835060    000000c0     app_pe66.oe66 (.text:ti_sysbios_knl_Task_create)
                  82835120    000000c0     app_pe66.oe66 (.text:ti_sysbios_syncs_SyncSem_Object__create__S)
                  828351e0    000000c0     app_pe66.oe66 (.text:ti_sysbios_syncs_SyncSem_create)
                  828352a0    000000c0     rts6600_elf.lib : tls.c.obj (.text:tls:init:__TI_tls_init)
                  82835360    000000c0     ti.targets.rts6000.ae66 : Assert.oe66 (.text:xdc_runtime_Assert_raise__I)
                  82835420    000000c0                             : Error.oe66 (.text:xdc_runtime_Error_setX__E)
                  828354e0    000000c0     app_pe66.oe66 (.text:xdc_runtime_LoggerBuf_Object__create__S)
                  828355a0    000000c0     ti.targets.rts6000.ae66 : SysMin.oe66 (.text:xdc_runtime_SysMin_abort__E)
                  82835660    000000c0                             : SysMin.oe66 (.text:xdc_runtime_SysMin_flush__E)
                  82835720    000000a0     ti.drv.cppi.ae66 : cppi_drv.oe66 (.text:Cppi_channelEnable)
                  828357c0    000000a0                      : cppi_drv.oe66 (.text:Cppi_setCpdmaLoopback)
                  82835860    000000a0     rts6600_elf.lib : hostclose.c.obj (.text:HOSTclose)
                  82835900    000000a0     ti.osal.ae66 : RegisterIntr_tirtos.oe66 (.text:Osal_DeleteInterrupt)
                  828359a0    000000a0     ti.drv.qmss.ae66 : qmss_drv.oe66 (.text:Qmss_queueOpenSubSys)
                  82835a40    000000a0     ti.drv.uart.ae66 : UART_drv.oe66 (.text:UART_init)
                  82835ae0    000000a0                      : UART_stdio.oe66 (.text:UART_stdioInit)
                  82835b80    000000a0                      : UART_v0.oe66 (.text:UART_v0_callback)
                  82835c20    000000a0     rts6600_elf.lib : fopen.c.obj (.text:__TI_cleanup)
                  82835cc0    000000a0                     : remu.asm.obj (.text:__remu)
                  82835d60    000000a0     boot.ae66 : boot.oe66 (.text:_c_int00)
                  82835e00    000000a0     rts6600_elf.lib : _printfi.c.obj (.text:_ecpy)
                  82835ea0    000000a0     sysbios.ae66 : c64p_Hwi_asm.obj (.text:_ti_sysbios_family_c64p_Hwi_plug__E)
                  82835f40    000000a0     rts6600_elf.lib : getdevice.c.obj (.text:finddevice)
                  82835fe0    000000a0                     : memcpy64.asm.obj (.text:memcpy)
                  82836080    000000a0     ipc.ae66 : Ipc.obj (.text:ti_sdo_ipc_gates_GatePeterson_leave__E)
                  82836120    000000a0              : Ipc.obj (.text:ti_sdo_ipc_gates_GatePeterson_postInit__I)
                  828361c0    000000a0              : Ipc.obj (.text:ti_sdo_ipc_nsremote_NameServerRemoteNotify_detach__E)
                  82836260    000000a0              : Ipc.obj (.text:ti_sdo_ipc_transports_TransportShm_sharedMemReq__E)
                  82836300    000000a0     sysbios.ae66 : BIOS.obj (.text:ti_sysbios_family_c64p_Exception_Module_startup__E)
                  828363a0    000000a0     app_pe66.oe66 (.text:ti_sysbios_family_c64p_Hwi_construct)
                  82836440    000000a0     sysbios.ae66 : BIOS.obj (.text:ti_sysbios_family_c64p_Hwi_dispatchC__I)
                  828364e0    000000a0                  : BIOS.obj (.text:ti_sysbios_family_c64p_Hwi_eventMap__E)
                  82836580    000000a0                  : BIOS.obj (.text:ti_sysbios_family_c64p_Hwi_getStackInfo__E)
                  82836620    000000a0                  : BIOS.obj (.text:ti_sysbios_family_c66_tci66xx_CpIntc_mapSysIntToHostInt__E)
                  828366c0    000000a0                  : BIOS.obj (.text:ti_sysbios_gates_GateSwi_leave__E)
                  82836760    000000a0     app_pe66.oe66 (.text:ti_sysbios_knl_Swi_construct)
                  82836800    000000a0     sysbios.ae66 : BIOS.obj (.text:ti_sysbios_timers_timer64_Timer_stop__E)
                  828368a0    000000a0     ti.targets.rts6000.ae66 : Core-params.oe66 (.text:xdc_runtime_Core_assignParams__I)
                  82836940    000000a0                             : SysMin.oe66 (.text:xdc_runtime_SysMin_putch__E)
                  828369e0    000000a0                             : System.oe66 (.text:xdc_runtime_System_formatNum__I)
                  82836a80    000000a0                             : System.oe66 (.text:xdc_runtime_System_putchar__I)
                  82836b20    000000a0                             : Text.oe66 (.text:xdc_runtime_Text_printVisFxn__I)
                  82836bc0    000000a0                             : Text.oe66 (.text:xdc_runtime_Text_xprintf__I)
                  82836c60    000000a0     app_pe66.oe66 (.text:xdc_runtime_knl_GateThread_Object__create__S)
                  82836d00    000000a0     app_pe66.oe66 (.text:xdc_runtime_knl_GateThread_create)
                  82836da0    00000080     ti.board.ae66 : cyhc5GC6678_phy.oe66 (.text:CSL_SGMII_setAdvAbility$0)
                  82836e20    00000080     ti.osal.ae66 : EventCombinerP_tirtos.oe66 (.text:EventCombinerP_getHwi)
                  82836ea0    00000080     ipc.ae66 : Ipc.obj (.text:HeapMemMP_restore)
                  82836f20    00000080              : Ipc.obj (.text:ListMP_create)
                  82836fa0    00000080     ti.osal.ae66 : MuxIntcP_tirtos.oe66 (.text:MuxIntcP_create)
                  82837020    00000080     ti.drv.qmss.ae66 : qmss_drv.oe66 (.text:Qmss_queueOpen)
                  828370a0    00000080     ti.drv.srio.ae66 : srio_drv.oe66 (.text:Srio_freeRxDrvBuffer:Srio_freeRxDrvBuffer)
                  82837120    00000080                      : srio_drv.oe66 (.text:Srio_sockBind:Srio_sockBind)
                  828371a0    00000080                      : srio_drv.oe66 (.text:Srio_sockSend:Srio_sockSend)
                  82837220    00000080     ti.csl.ae66 : uart.oe66 (.text:UART_charPut_v0)
                  828372a0    00000080                 : uart.oe66 (.text:UART_fIFOConfig_v0)
                  82837320    00000080     rts6600_elf.lib : trgmsg.c.obj (.text:__TI_readmsg)
                  828373a0    00000080                     : fixdu.c.obj (.text:__c6xabi_fixdu)
                  82837420    00000080                     : llshift.c.obj (.text:__c6xabi_llshl)
                  828374a0    00000080                     : snprintf.c.obj (.text:_outs)
                  82837520    00000080     sysbios.ae66 : c62_TaskSupport_asm.obj (.text:_ti_sysbios_family_c62_TaskSupport_swap__E)
                  828375a0    00000080     ti.drv.cppi.ae66 : cppi_heap.oe66 (.text:cppi_internal_heap_cache_begin)
                  82837620    00000080                      : cppi_heap.oe66 (.text:cppi_internal_heap_malloc)
                  828376a0    00000080                      : cppi_listlib.oe66 (.text:cppi_list_add)
                  82837720    00000080                      : cppi_listlib.oe66 (.text:cppi_list_remove)
                  828377a0    00000080     init.obj (.text)
                  82837820    00000080     rts6600_elf.lib : snprintf.c.obj (.text:snprintf)
                  828378a0    00000080     ti.platform.evm6678l.ae66 : cyhc5g_i2c.obj (.text)
                  82837920    00000080     ipc.ae66 : Ipc.obj (.text:ti_sdo_ipc_Ipc_getMasterAddr__I)
                  828379a0    00000080              : Ipc.obj (.text:ti_sdo_ipc_gates_GateHWSem_Module_startup__E)
                  82837a20    00000080     app_pe66.oe66 (.text:ti_sdo_ipc_gates_GateHWSem_Object__create__S)
                  82837aa0    00000080     app_pe66.oe66 (.text:ti_sdo_ipc_gates_GateHWSem_create)
                  82837b20    00000080     app_pe66.oe66 (.text:ti_sdo_ipc_gates_GateMPSupportNull_Object__create__S)
                  82837ba0    00000080     app_pe66.oe66 (.text:ti_sdo_ipc_gates_GateMPSupportNull_create)
                  82837c20    00000080     ipc.ae66 : Ipc.obj (.text:ti_sdo_ipc_transports_TransportShm_swiFxn__I)
                  82837ca0    00000080     app_pe66.oe66 (.text:ti_sysbios_BIOS_atExitFunc__I)
                  82837d20    00000080     app_pe66.oe66 (.text:ti_sysbios_BIOS_registerRTSLock__I)
                  82837da0    00000080     sysbios.ae66 : BIOS.obj (.text:ti_sysbios_family_c66_Cache_invL1pAll__E)
                  82837e20    00000080                  : BIOS.obj (.text:ti_sysbios_family_c66_tci66xx_CpIntc_getEventId__E)
                  82837ea0    00000080     app_pe66.oe66 (.text:ti_sysbios_gates_GateAll_Object__create__S)
                  82837f20    00000080     app_pe66.oe66 (.text:ti_sysbios_gates_GateHwi_Object__create__S)
                  82837fa0    00000080     app_pe66.oe66 (.text:ti_sysbios_gates_GateMutexPri_Object__create__S)
                  82838020    00000080     app_pe66.oe66 (.text:ti_sysbios_gates_GateMutex_Object__create__S)
                  828380a0    00000080     app_pe66.oe66 (.text:ti_sysbios_gates_GateSwi_Object__create__S)
                  82838120    00000080     sysbios.ae66 : BIOS.obj (.text:ti_sysbios_hal_Hwi_checkStack)
                  828381a0    00000080                  : BIOS.obj (.text:ti_sysbios_hal_Hwi_initStack)
                  82838220    00000080     app_pe66.oe66 (.text:ti_sysbios_heaps_HeapMem_Object__create__S)
                  828382a0    00000080     sysbios.ae66 : BIOS.obj (.text:ti_sysbios_heaps_HeapMem_init__I)
                  82838320    00000080     app_pe66.oe66 (.text:ti_sysbios_knl_Clock_doTick__I)
                  828383a0    00000080     sysbios.ae66 : BIOS.obj (.text:ti_sysbios_knl_Idle_run__E)
                  82838420    00000080     app_pe66.oe66 (.text:ti_sysbios_knl_Semaphore_create)
                  828384a0    00000080     sysbios.ae66 : BIOS.obj (.text:ti_sysbios_knl_Semaphore_pendTimeout__I)
                  82838520    00000080                  : BIOS.obj (.text:ti_sysbios_knl_Swi_startup__E)
                  828385a0    00000080                  : BIOS.obj (.text:ti_sysbios_knl_Task_restore__E)
                  82838620    00000080     app_pe66.oe66 (.text:ti_sysbios_rts_MemAlloc_alloc)
                  828386a0    00000080     sysbios.ae66 : BIOS.obj (.text:ti_sysbios_syncs_SyncSem_wait__E)
                  82838720    00000080     app_pe66.oe66 (.text:ti_sysbios_xdcruntime_GateThreadSupport_create)
                  828387a0    00000080     rts6600_elf.lib : unlink.c.obj (.text:unlink)
                  82838820    00000080     ti.targets.rts6000.ae66 : Core-label.oe66 (.text:xdc_runtime_Core_assignLabel__I)
                  828388a0    00000080                             : LoggerBuf.oe66 (.text:xdc_runtime_LoggerBuf_Instance_init__E)
                  82838920    00000080                             : LoggerBuf.oe66 (.text:xdc_runtime_LoggerBuf_Module_startup__E)
                  828389a0    00000080                             : LoggerBuf.oe66 (.text:xdc_runtime_LoggerBuf_filterOutEvent__I)
                  82838a20    00000080     app_pe66.oe66 (.text:xdc_runtime_SysMin_output__I)
                  82838aa0    00000080     ti.targets.rts6000.ae66 : System.oe66 (.text:xdc_runtime_System_atexit__E)
                  82838b20    00000080                             : System.oe66 (.text:xdc_runtime_System_avprintf__E)
                  82838ba0    00000080                             : System.oe66 (.text:xdc_runtime_System_processAtExit__E)
                  82838c20    00000080                             : System.oe66 (.text:xdc_runtime_System_vprintf__E)
                  82838ca0    00000060     ti.board.ae66 : board_pll.oe66 (.text:Board_PLLInit)
                  82838d00    00000060                   : cyhc5GC6678_ecc.oe66 (.text:Board_eccInit)
                  82838d60    00000060     ipc.ae66 : Ipc.obj (.text:HeapMemMP_create)
                  82838dc0    00000060              : Ipc.obj (.text:HeapMemMP_getRTSCParams$12)
                  82838e20    00000060     ti.osal.ae66 : HwiP_tirtos.oe66 (.text:HwiP_delete)
                  82838e80    00000060     ipc.ae66 : Ipc.obj (.text:Notify_attach)
                  82838ee0    00000060     ti.osal.ae66 : Utils_tirtos.oe66 (.text:Osal_getHwAttrs)
                  82838f40    00000060                  : Utils_tirtos.oe66 (.text:Osal_getThreadType)
                  82838fa0    00000060     ti.drv.qmss.ae66 : qmss_acc.oe66 (.text:Qmss_programAccumulator)
                  82839000    00000060                      : qmss_drv.oe66 (.text:Qmss_setQueueThreshold)
                  82839060    00000060     ti.osal.ae66 : SemaphoreP_tirtos.oe66 (.text:SemaphoreP_delete)
                  828390c0    00000060                  : SemaphoreP_tirtos.oe66 (.text:SemaphoreP_pend)
                  82839120    00000060     ti.drv.srio.ae66 : listlib.oe66 (.text:Srio_listCat)
                  82839180    00000060     ti.csl.ae66 : uart.oe66 (.text:UART_divisorLatchWrite_v0)
                  828391e0    00000060                 : uart.oe66 (.text:UART_divisorValCompute_v0)
                  82839240    00000060                 : uart.oe66 (.text:UART_fifoWait_v0)
                  828392a0    00000060                 : uart.oe66 (.text:UART_lineCharacConfig_v0)
                  82839300    00000060     ti.drv.uart.ae66 : UART_v0.oe66 (.text:UART_readCancel_v0$0)
                  82839360    00000060                      : UART_soc.oe66 (.text:UART_socGetInitCfg)
                  828393c0    00000060                      : UART_soc.oe66 (.text:UART_socSetInitCfg)
                  82839420    00000060                      : UART_v0.oe66 (.text:UART_writeCancel_v0$0)
                  82839480    00000060     rts6600_elf.lib : frcmpyd_div.c.obj (.text:__TI_frcmpyd_div)
                  828394e0    00000060                     : trgmsg.c.obj (.text:__TI_writemsg)
                  82839540    00000060                     : llshift.c.obj (.text:__c6xabi_llshru)
                  828395a0    00000060                     : imath64.c.obj (.text:_subcull)
                  82839600    00000060     sysbios.ae66 : c64p_Hwi_asm_switch.obj (.text:_ti_sysbios_family_c64p_Hwi_switchAndDispatch__I)
                  82839660    00000060                  : c64p_Hwi_asm_switch.obj (.text:_ti_sysbios_family_xxx_Hwi_switchAndRunFunc)
                  828396c0    00000060     ti.drv.cppi.ae66 : cppi_listlib.oe66 (.text:cppi_list_cache_invalidate)
                  82839720    00000060     rts6600_elf.lib : lseek.c.obj (.text:lseek)
                  82839780    00000060                     : memccpy.c.obj (.text:memccpy)
                  828397e0    00000060                     : sprintf.c.obj (.text:sprintf)
                  82839840    00000060     app_pe66.oe66 (.text:ti_sdo_ipc_GateMP_Object__delete__S)
                  828398a0    00000060     ipc.ae66 : Ipc.obj (.text:ti_sdo_ipc_Ipc_getSlaveAddr__I)
                  82839900    00000060              : Ipc.obj (.text:ti_sdo_ipc_Ipc_reservedSizePerProc__I)
                  82839960    00000060     app_pe66.oe66 (.text:ti_sdo_ipc_ListMP_Object__delete__S)
                  828399c0    00000060     ipc.ae66 : Ipc.obj (.text:ti_sdo_ipc_ListMP_elemClear__I)
                  82839a20    00000060     app_pe66.oe66 (.text:ti_sdo_ipc_gates_GatePeterson_Object__delete__S)
                  82839a80    00000060     ipc.ae66 : Ipc.obj (.text:ti_sdo_ipc_gates_GatePeterson_sharedMemReq__E)
                  82839ae0    00000060     app_pe66.oe66 (.text:ti_sdo_ipc_heaps_HeapMemMP_Object__delete__S)
                  82839b40    00000060     app_pe66.oe66 (.text:ti_sdo_ipc_nsremote_NameServerRemoteNotify_Object__delete__S)
                  82839ba0    00000060     app_pe66.oe66 (.text:ti_sdo_ipc_transports_TransportShm_Object__delete__S)
                  82839c00    00000060     app_pe66.oe66 (.text:ti_sdo_utils_List_construct)
                  82839c60    00000060     app_pe66.oe66 (.text:ti_sysbios_BIOS_errorRaiseHook__I)
                  82839cc0    00000060     app_pe66.oe66 (.text:ti_sysbios_BIOS_removeRTSLock__I)
                  82839d20    00000060     app_pe66.oe66 (.text:ti_sysbios_BIOS_startFunc__I)
                  82839d80    00000060     sysbios.ae66 : BIOS.obj (.text:ti_sysbios_family_c62_TaskSupport_start__E)
                  82839de0    00000060                  : BIOS.obj (.text:ti_sysbios_family_c64p_EventCombiner_Module_startup__E)
                  82839e40    00000060                  : BIOS.obj (.text:ti_sysbios_family_c64p_EventCombiner_unused__E)
                  82839ea0    00000060                  : BIOS.obj (.text:ti_sysbios_family_c64p_Hwi_getEventId__E)
                  82839f00    00000060                  : BIOS.obj (.text:ti_sysbios_family_c66_Cache_Module_startup__E)
                  82839f60    00000060                  : BIOS.obj (.text:ti_sysbios_family_c66_tci66xx_CpIntc_unused__E)
                  82839fc0    00000060                  : BIOS.obj (.text:ti_sysbios_gates_GateAll_enter__E)
                  8283a020    00000060     app_pe66.oe66 (.text:ti_sysbios_gates_GateMutexPri_Object__delete__S)
                  8283a080    00000060     app_pe66.oe66 (.text:ti_sysbios_gates_GateMutexPri_construct)
                  8283a0e0    00000060     app_pe66.oe66 (.text:ti_sysbios_gates_GateMutex_Object__delete__S)
                  8283a140    00000060     sysbios.ae66 : BIOS.obj (.text:ti_sysbios_heaps_HeapMem_free__E)
                  8283a1a0    00000060                  : BIOS.obj (.text:ti_sysbios_knl_Clock_Module_startup__E)
                  8283a200    00000060     app_pe66.oe66 (.text:ti_sysbios_knl_Queue_construct)
                  8283a260    00000060     app_pe66.oe66 (.text:ti_sysbios_knl_Semaphore_Object__delete__S)
                  8283a2c0    00000060     app_pe66.oe66 (.text:ti_sysbios_knl_Semaphore_construct)
                  8283a320    00000060     sysbios.ae66 : BIOS.obj (.text:ti_sysbios_knl_Swi_Module_startup__E)
                  8283a380    00000060                  : BIOS.obj (.text:ti_sysbios_knl_Task_enter__I)
                  8283a3e0    00000060     app_pe66.oe66 (.text:ti_sysbios_syncs_SyncSem_Object__delete__S)
                  8283a440    00000060     app_pe66.oe66 (.text:ti_sysbios_xdcruntime_GateThreadSupport_Object__delete__S)
                  8283a4a0    00000060     ti.drv.uart.ae66 : UART_stdio.oe66 (.text:uart_console_putc$0)
                  8283a500    00000060     rts6600_elf.lib : write.c.obj (.text:write)
                  8283a560    00000060     app_pe66.oe66 (.text:xdc_runtime_LoggerBuf_Object__delete__S)
                  8283a5c0    00000060     ti.targets.rts6000.ae66 : LoggerBuf.oe66 (.text:xdc_runtime_LoggerBuf_reset__E)
                  8283a620    00000060                             : Memory.oe66 (.text:xdc_runtime_Memory_valloc__E)
                  8283a680    00000060                             : Text.oe66 (.text:xdc_runtime_Text_cordText__E)
                  8283a6e0    00000060     app_pe66.oe66 (.text:xdc_runtime_knl_GateThread_Object__delete__S)
                  8283a740    00000040     ipc.ae66 : Ipc.obj (.text:GateMP_Params_init)
                  8283a780    00000040              : Ipc.obj (.text:HeapMemMP_Params_init)
                  8283a7c0    00000040              : Ipc.obj (.text:Notify_numIntLines)
                  8283a800    00000040              : Ipc.obj (.text:Notify_sharedMemReq)
                  8283a840    00000040     ti.osal.ae66 : RegisterIntr_tirtos.oe66 (.text:Osal_RegisterInterrupt_initParams)
                  8283a880    00000040     ti.drv.qmss.ae66 : qmss_drv.oe66 (.text:Qmss_getMemRegDescSizeSubSys)
                  8283a8c0    00000040                      : qmss_drv.oe66 (.text:Qmss_internalVirtToPhy)
                  8283a900    00000040                      : qmss_drv.oe66 (.text:Qmss_queueClose)
                  8283a940    00000040                      : qmss_drv.oe66 (.text:Qmss_start)
                  8283a980    00000040     ti.osal.ae66 : SemaphoreP_tirtos.oe66 (.text:SemaphoreP_Params_init)
                  8283a9c0    00000040                  : SemaphoreP_tirtos.oe66 (.text:SemaphoreP_post)
                  8283aa00    00000040     ti.drv.srio.ae66 : listlib.oe66 (.text:Srio_listAdd)
                  8283aa40    00000040                      : listlib.oe66 (.text:Srio_listRemove)
                  8283aa80    00000040     ti.csl.ae66 : uart.oe66 (.text:UART_breakCtl_v0)
                  8283aac0    00000040                 : uart.oe66 (.text:UART_charGetNonBlocking2_v0)
                  8283ab00    00000040                 : uart.oe66 (.text:UART_intDisable_v0)
                  8283ab40    00000040                 : uart.oe66 (.text:UART_intEnable_v0)
                  8283ab80    00000040                 : uart.oe66 (.text:UART_intIdentityGet_v0)
                  8283abc0    00000040                 : uart.oe66 (.text:UART_loopbackModeControl_v0)
                  8283ac00    00000040     ti.drv.uart.ae66 : UART_drv.oe66 (.text:UART_open)
                  8283ac40    00000040     ti.csl.ae66 : uart.oe66 (.text:UART_readLineStatus_v0)
                  8283ac80    00000040     ti.osal.ae66 : Utils_tirtos.oe66 (.text:_DebugP_assert)
                  8283acc0    00000040     rts6600_elf.lib : isinf.c.obj (.text:__c6xabi_isinf)
                  8283ad00    00000040                     : _printfi.c.obj (.text:__c6xabi_isnan)
                  8283ad40    00000040                     : call_stub.asm.obj (.text:__call_stub)
                  8283ad80    00000040                     : strasg.asm.obj (.text:__strasgi_64plus)
                  8283adc0    00000040                     : args_main.c.obj (.text:_args_main)
                  8283ae00    00000040                     : snprintf.c.obj (.text:_outc)
                  8283ae40    00000040                     : sprintf.c.obj (.text:_outs)
                  8283ae80    00000040                     : vsprintf.c.obj (.text:_outs)
                  8283aec0    00000040     sysbios.ae66 : c62_TaskSupport_asm.obj (.text:_ti_sysbios_family_c62_TaskSupport_buildTaskStack)
                  8283af00    00000040     common.obj (.text)
                  8283af40    00000040     app_pe66.oe66 (.text:free)
                  8283af80    00000040     uart_mutex.obj (.text:releaseSemaphore)
                  8283afc0    00000040     ti.platform.evm6678l.ae66 : cyhc5g_led.obj (.text)
                  8283b000    00000040     ipc.ae66 : Ipc.obj (.text:ti_sdo_ipc_Ipc_getRegion0ReservedSize__I)
                  8283b040    00000040     app_pe66.oe66 (.text:ti_sdo_ipc_gates_GateHWSem_Handle__label__S)
                  8283b080    00000040     app_pe66.oe66 (.text:ti_sdo_ipc_gates_GateHWSem_Object__delete__S)
                  8283b0c0    00000040     ipc.ae66 : Ipc.obj (.text:ti_sdo_ipc_gates_GateHWSem_leave__E)
                  8283b100    00000040     app_pe66.oe66 (.text:ti_sdo_ipc_gates_GateMPSupportNull_Handle__label__S)
                  8283b140    00000040     app_pe66.oe66 (.text:ti_sdo_ipc_gates_GateMPSupportNull_Object__delete__S)
                  8283b180    00000040     app_pe66.oe66 (.text:ti_sdo_ipc_gates_GatePeterson_Handle__label__S)
                  8283b1c0    00000040     ipc.ae66 : Ipc.obj (.text:ti_sdo_ipc_gates_GatePeterson_Instance_finalize__E)
                  8283b200    00000040     app_pe66.oe66 (.text:ti_sdo_ipc_heaps_HeapMemMP_Handle__label__S)
                  8283b240    00000040     app_pe66.oe66 (.text:ti_sdo_ipc_nsremote_NameServerRemoteNotify_Handle__label__S)
                  8283b280    00000040     ipc.ae66 : Ipc.obj (.text:ti_sdo_ipc_nsremote_NameServerRemoteNotify_swiFxnResponse__I)
                  8283b2c0    00000040              : Ipc.obj (.text:ti_sdo_ipc_transports_TransportShmSetup_sharedMemReq__E)
                  8283b300    00000040     app_pe66.oe66 (.text:ti_sdo_ipc_transports_TransportShm_Handle__label__S)
                  8283b340    00000040     utils.ae66 : UTILS.obj (.text:ti_sdo_utils_List_get__E)
                  8283b380    00000040                : UTILS.obj (.text:ti_sdo_utils_List_putHead__E)
                  8283b3c0    00000040                : UTILS.obj (.text:ti_sdo_utils_List_put__E)
                  8283b400    00000040     app_pe66.oe66 (.text:ti_sdo_utils_NameServer_Object__get__S)
                  8283b440    00000040     app_pe66.oe66 (.text:ti_sysbios_BIOS_exitFunc__I)
                  8283b480    00000040     app_pe66.oe66 (.text:ti_sysbios_BIOS_rtsLock__I)
                  8283b4c0    00000040     app_pe66.oe66 (.text:ti_sysbios_BIOS_rtsUnlock__I)
                  8283b500    00000040     app_pe66.oe66 (.text:ti_sysbios_family_c64p_Hwi_destruct)
                  8283b540    00000040     sysbios.ae66 : BIOS.obj (.text:ti_sysbios_family_c64p_Hwi_disableInterrupt__E)
                  8283b580    00000040                  : BIOS.obj (.text:ti_sysbios_family_c64p_Hwi_enableInterrupt__E)
                  8283b5c0    00000040                  : BIOS.obj (.text:ti_sysbios_family_c66_tci66xx_CpIntc_dispatchPlug__E)
                  8283b600    00000040     app_pe66.oe66 (.text:ti_sysbios_gates_GateAll_Handle__label__S)
                  8283b640    00000040     app_pe66.oe66 (.text:ti_sysbios_gates_GateAll_Object__delete__S)
                  8283b680    00000040     app_pe66.oe66 (.text:ti_sysbios_gates_GateHwi_Handle__label__S)
                  8283b6c0    00000040     app_pe66.oe66 (.text:ti_sysbios_gates_GateHwi_Object__delete__S)
                  8283b700    00000040     app_pe66.oe66 (.text:ti_sysbios_gates_GateMutexPri_Handle__label__S)
                  8283b740    00000040     sysbios.ae66 : BIOS.obj (.text:ti_sysbios_gates_GateMutexPri_Instance_init__E)
                  8283b780    00000040     app_pe66.oe66 (.text:ti_sysbios_gates_GateMutexPri_destruct)
                  8283b7c0    00000040     app_pe66.oe66 (.text:ti_sysbios_gates_GateMutex_Handle__label__S)
                  8283b800    00000040     sysbios.ae66 : BIOS.obj (.text:ti_sysbios_gates_GateMutex_Instance_init__E)
                  8283b840    00000040                  : BIOS.obj (.text:ti_sysbios_gates_GateMutex_leave__E)
                  8283b880    00000040     app_pe66.oe66 (.text:ti_sysbios_gates_GateSwi_Handle__label__S)
                  8283b8c0    00000040     app_pe66.oe66 (.text:ti_sysbios_gates_GateSwi_Object__delete__S)
                  8283b900    00000040     app_pe66.oe66 (.text:ti_sysbios_heaps_HeapMem_Handle__label__S)
                  8283b940    00000040     app_pe66.oe66 (.text:ti_sysbios_heaps_HeapMem_Object__delete__S)
                  8283b980    00000040     app_pe66.oe66 (.text:ti_sysbios_heaps_HeapMem_Object__get__S)
                  8283b9c0    00000040     app_pe66.oe66 (.text:ti_sysbios_knl_Semaphore_destruct)
                  8283ba00    00000040     app_pe66.oe66 (.text:ti_sysbios_knl_Swi_Object__get__S)
                  8283ba40    00000040     app_pe66.oe66 (.text:ti_sysbios_knl_Swi_destruct)
                  8283ba80    00000040     app_pe66.oe66 (.text:ti_sysbios_knl_Task_Object__get__S)
                  8283bac0    00000040     sysbios.ae66 : BIOS.obj (.text:ti_sysbios_knl_Task_sleepTimeout__I)
                  8283bb00    00000040     app_pe66.oe66 (.text:ti_sysbios_syncs_SyncSem_Handle__label__S)
                  8283bb40    00000040     rts6600_elf.lib : vsprintf.c.obj (.text:vsprintf)
                  8283bb80    00000040                     : wcslen.c.obj (.text:wcslen)
                  8283bbc0    00000040     ti.targets.rts6000.ae66 : Error.oe66 (.text:xdc_runtime_Error_check__E)
                  8283bc00    00000040                             : Error.oe66 (.text:xdc_runtime_Error_init__E)
                  8283bc40    00000040     app_pe66.oe66 (.text:xdc_runtime_GateNull_Handle__label__S)
                  8283bc80    00000040     app_pe66.oe66 (.text:xdc_runtime_GateNull_Object__create__S)
                  8283bcc0    00000040     app_pe66.oe66 (.text:xdc_runtime_GateNull_Object__delete__S)
                  8283bd00    00000040     app_pe66.oe66 (.text:xdc_runtime_LoggerBuf_Handle__label__S)
                  8283bd40    00000040     ti.targets.rts6000.ae66 : LoggerBuf.oe66 (.text:xdc_runtime_LoggerBuf_Instance_finalize__E)
                  8283bd80    00000040     app_pe66.oe66 (.text:xdc_runtime_LoggerBuf_Object__get__S)
                  8283bdc0    00000040     ti.targets.rts6000.ae66 : LoggerBuf.oe66 (.text:xdc_runtime_LoggerBuf_write0__E)
                  8283be00    00000040                             : LoggerBuf.oe66 (.text:xdc_runtime_LoggerBuf_write1__E)
                  8283be40    00000040                             : LoggerBuf.oe66 (.text:xdc_runtime_LoggerBuf_write2__E)
                  8283be80    00000040                             : Registry.oe66 (.text:xdc_runtime_Registry_findById__E)
                  8283bec0    00000040                             : SysMin.oe66 (.text:xdc_runtime_SysMin_Module_startup__E)
                  8283bf00    00000040                             : SysMin.oe66 (.text:xdc_runtime_SysMin_exit__E)
                  8283bf40    00000040                             : System.oe66 (.text:xdc_runtime_System_abort__E)
                  8283bf80    00000040     app_pe66.oe66 (.text:xdc_runtime_System_aprintf__E)
                  8283bfc0    00000040     ti.targets.rts6000.ae66 : System.oe66 (.text:xdc_runtime_System_exit__E)
                  8283c000    00000040     app_pe66.oe66 (.text:xdc_runtime_System_printf__E)
                  8283c040    00000040     app_pe66.oe66 (.text:xdc_runtime_knl_GateThread_Handle__label__S)
                  8283c080    00000040     ti.targets.rts6000.ae66 : GateThread.oe66 (.text:xdc_runtime_knl_GateThread_Instance_init__E)
                  8283c0c0    00000040     ti.board.ae66 : cyhc5GC6678_ddr.oe66 (.text:xmc_add_emif_cfg_region$0)
                  8283c100    00000020                   : cyhc5GC6678_phy.oe66 (.text:Board_ethPhyInit)
                  8283c120    00000020                   : cyhc5GC6678_clock.oe66 (.text:Board_getNumPSCconfigs)
                  8283c140    00000020                   : cyhc5GC6678_pll.oe66 (.text:Board_getNumPllcConfigs)
                  8283c160    00000020                   : board_lld_init.oe66 (.text:Board_uartStdioInit)
                  8283c180    00000020     ti.csl.ae66 : csl_gpioGetBaseAddress.oe66 (.text:CSL_GPIO_open)
                  8283c1a0    00000020                 : csl_srioGetBaseAddress.oe66 (.text:CSL_SRIO_Open)
                  8283c1c0    00000020     ti.board.ae66 : board_utils.oe66 (.text:CSL_chipWriteTSCL$0)
                  8283c1e0    00000020     ti.drv.cppi.ae66 : cppi_drv.oe66 (.text:Cppi_getChannelNumber)
                  8283c200    00000020                      : cppi_drv.oe66 (.text:Cppi_getFlowId)
                  8283c220    00000020                      : cppi_desc.oe66 (.text:Cppi_initDescriptor)
                  8283c240    00000020                      : cppi_drv.oe66 (.text:Cppi_txChannelOpen)
                  8283c260    00000020     ti.osal.ae66 : EventCombinerP_tirtos.oe66 (.text:EventCombinerP_disableEvent)
                  8283c280    00000020                  : EventCombinerP_tirtos.oe66 (.text:EventCombinerP_dispatchPlug)
                  8283c2a0    00000020                  : EventCombinerP_tirtos.oe66 (.text:EventCombinerP_enableEvent)
                  8283c2c0    00000020     ipc.ae66 : Ipc.obj (.text:GateMP_delete)
                  8283c2e0    00000020              : Ipc.obj (.text:GateMP_getDefaultRemote)
                  8283c300    00000020              : Ipc.obj (.text:GateMP_getSharedParams$0)
                  8283c320    00000020              : Ipc.obj (.text:HeapMemMP_getSharedParams$12)
                  8283c340    00000020     ti.osal.ae66 : HwiP_tirtos.oe66 (.text:HwiP_disable)
                  8283c360    00000020                  : HwiP_tirtos.oe66 (.text:HwiP_restore)
                  8283c380    00000020     ipc.ae66 : Ipc.obj (.text:ListMP_Params_init)
                  8283c3a0    00000020              : Ipc.obj (.text:ListMP_close)
                  8283c3c0    00000020              : Ipc.obj (.text:ListMP_delete)
                  8283c3e0    00000020     utils.ae66 : UTILS.obj (.text:MultiProc_getBaseIdOfCluster)
                  8283c400    00000020                : UTILS.obj (.text:MultiProc_self)
                  8283c420    00000020                : UTILS.obj (.text:NameServer_addUInt32)
                  8283c440    00000020                : UTILS.obj (.text:NameServer_getLocalUInt32)
                  8283c460    00000020                : UTILS.obj (.text:NameServer_removeEntry)
                  8283c480    00000020     ti.drv.qmss.ae66 : qmss_drv.oe66 (.text:Qmss_getQueueHandle)
                  8283c4a0    00000020                      : qmss_drv.oe66 (.text:Qmss_getQueueNumber)
                  8283c4c0    00000020                      : qmss_drv.oe66 (.text:Qmss_init)
                  8283c4e0    00000020                      : qmss_drv.oe66 (.text:Qmss_insertMemoryRegion)
                  8283c500    00000020     ipc.ae66 : Ipc.obj (.text:SharedRegion_invalidSRPtr)
                  8283c520    00000020     ti.drv.srio.ae66 : srio_drv.oe66 (.text:Srio_init:Srio_init)
                  8283c540    00000020     ti.drv.uart.ae66 : UART_drv.oe66 (.text:UART_Params_init)
                  8283c560    00000020                      : UART_v0.oe66 (.text:UART_control_v0$0)
                  8283c580    00000020     ti.csl.ae66 : uart.oe66 (.text:UART_divisorLatchDisable_v0)
                  8283c5a0    00000020                 : uart.oe66 (.text:UART_fIFOCharPut_v0)
                  8283c5c0    00000020                 : uart.oe66 (.text:UART_fifoEmpty_v0)
                  8283c5e0    00000020     ti.drv.uart.ae66 : UART_v0.oe66 (.text:UART_init_v0$0)
                  8283c600    00000020     ti.csl.ae66 : uart.oe66 (.text:UART_operatingModeSelect_v0)
                  8283c620    00000020                 : uart.oe66 (.text:UART_pwremuConfig_v0)
                  8283c640    00000020     ti.drv.uart.ae66 : UART_drv.oe66 (.text:UART_write)
                  8283c660    00000020                      : UART_drv.oe66 (.text:UART_writePolling)
                  8283c680    00000020     app_pe66.oe66 (.text:_GateMP_virtToPhys)
                  8283c6a0    00000020     rts6600_elf.lib : errno.c.obj (.text:__c6xabi_errno_addr)
                  8283c6c0    00000020                     : push.asm.obj (.text:__pop_rts)
                  8283c6e0    00000020                     : push.asm.obj (.text:__push_rts)
                  8283c700    00000020                     : _lock.c.obj (.text:_nop)
                  8283c720    00000020                     : printf.c.obj (.text:_outc)
                  8283c740    00000020                     : sprintf.c.obj (.text:_outc)
                  8283c760    00000020                     : vsprintf.c.obj (.text:_outc)
                  8283c780    00000020                     : printf.c.obj (.text:_outs)
                  8283c7a0    00000020                     : _lock.c.obj (.text:_register_lock)
                  8283c7c0    00000020                     : _data_synch.c.obj (.text:_register_synch_api)
                  8283c7e0    00000020                     : _lock.c.obj (.text:_register_unlock)
                  8283c800    00000020                     : signbit.c.obj (.text:_signbit)
                  8283c820    00000020     sysbios.ae66 : c62_TaskSupport_asm.obj (.text:_ti_sysbios_family_c62_TaskSupport_glue)
                  8283c840    00000020     rts6600_elf.lib : exit.c.obj (.text:abort)
                  8283c860    00000020                     : s_copysign.c.obj (.text:copysign)
                  8283c880    00000020     ti.drv.cppi.ae66 : cppi_listlib.oe66 (.text:cppi_list_get_head)
                  8283c8a0    00000020                      : cppi_listlib.oe66 (.text:cppi_list_get_next)
                  8283c8c0    00000020     ti.csl.ae66 : csl_tsc.oe66 (.text:cslsys_section:tsc)
                  8283c8e0    00000020     rts6600_elf.lib : copy_decompress_none.c.obj (.text:decompress:none:__TI_decompress_none)
                  8283c900    00000020                     : copy_decompress_rle.c.obj (.text:decompress:rle24:__TI_decompress_rle24)
                  8283c920    00000020     ti.board.ae66 : board_pll.oe66 (.text:pllc_delay$0)
                  8283c940    00000020     app_pe66.oe66 (.text:ti_sdo_ipc_GateMP_Params__init__S)
                  8283c960    00000020     app_pe66.oe66 (.text:ti_sdo_ipc_GateMP_RemoteCustom1Proxy_Proxy__abstract__S)
                  8283c980    00000020     app_pe66.oe66 (.text:ti_sdo_ipc_GateMP_RemoteCustom1Proxy_Proxy__delegate__S)
                  8283c9a0    00000020     app_pe66.oe66 (.text:ti_sdo_ipc_GateMP_RemoteCustom1Proxy_create)
                  8283c9c0    00000020     app_pe66.oe66 (.text:ti_sdo_ipc_GateMP_RemoteCustom1Proxy_delete)
                  8283c9e0    00000020     app_pe66.oe66 (.text:ti_sdo_ipc_GateMP_RemoteCustom2Proxy_Proxy__abstract__S)
                  8283ca00    00000020     app_pe66.oe66 (.text:ti_sdo_ipc_GateMP_RemoteCustom2Proxy_Proxy__delegate__S)
                  8283ca20    00000020     app_pe66.oe66 (.text:ti_sdo_ipc_GateMP_RemoteCustom2Proxy_create)
                  8283ca40    00000020     app_pe66.oe66 (.text:ti_sdo_ipc_GateMP_RemoteCustom2Proxy_delete)
                  8283ca60    00000020     app_pe66.oe66 (.text:ti_sdo_ipc_GateMP_RemoteSystemProxy_Proxy__abstract__S)
                  8283ca80    00000020     app_pe66.oe66 (.text:ti_sdo_ipc_GateMP_RemoteSystemProxy_Proxy__delegate__S)
                  8283caa0    00000020     app_pe66.oe66 (.text:ti_sdo_ipc_GateMP_RemoteSystemProxy_create)
                  8283cac0    00000020     app_pe66.oe66 (.text:ti_sdo_ipc_GateMP_RemoteSystemProxy_delete)
                  8283cae0    00000020     app_pe66.oe66 (.text:ti_sdo_ipc_GateMP_delete)
                  8283cb00    00000020     ipc.ae66 : Ipc.obj (.text:ti_sdo_ipc_GateMP_getSharedAddr__F)
                  8283cb20    00000020              : Ipc.obj (.text:ti_sdo_ipc_GateMP_setDefaultRemote__F)
                  8283cb40    00000020     app_pe66.oe66 (.text:ti_sdo_ipc_ListMP_Params__init__S)
                  8283cb60    00000020     app_pe66.oe66 (.text:ti_sdo_ipc_ListMP_delete)
                  8283cb80    00000020     app_pe66.oe66 (.text:ti_sdo_ipc_MessageQ_Object__get__S)
                  8283cba0    00000020     app_pe66.oe66 (.text:ti_sdo_ipc_MessageQ_Params__init__S)
                  8283cbc0    00000020     app_pe66.oe66 (.text:ti_sdo_ipc_Notify_Module_GateProxy_enter__E)
                  8283cbe0    00000020     app_pe66.oe66 (.text:ti_sdo_ipc_Notify_Module_GateProxy_leave__E)
                  8283cc00    00000020     app_pe66.oe66 (.text:ti_sdo_ipc_gates_GateHWSem_Params__init__S)
                  8283cc20    00000020     ipc.ae66 : Ipc.obj (.text:ti_sdo_ipc_gates_GateHWSem_getReservedMask__E)
                  8283cc40    00000020              : Ipc.obj (.text:ti_sdo_ipc_gates_GateHWSem_query__E)
                  8283cc60    00000020              : Ipc.obj (.text:ti_sdo_ipc_gates_GateHWSem_sharedMemReq__E)
                  8283cc80    00000020              : Ipc.obj (.text:ti_sdo_ipc_gates_GateMPSupportNull_Instance_init__E)
                  8283cca0    00000020     app_pe66.oe66 (.text:ti_sdo_ipc_gates_GateMPSupportNull_Params__init__S)
                  8283ccc0    00000020     ipc.ae66 : Ipc.obj (.text:ti_sdo_ipc_gates_GateMPSupportNull_getReservedMask__E)
                  8283cce0    00000020              : Ipc.obj (.text:ti_sdo_ipc_gates_GateMPSupportNull_query__E)
                  8283cd00    00000020              : Ipc.obj (.text:ti_sdo_ipc_gates_GateMPSupportNull_sharedMemReq__E)
                  8283cd20    00000020     app_pe66.oe66 (.text:ti_sdo_ipc_gates_GatePeterson_Params__init__S)
                  8283cd40    00000020     ipc.ae66 : Ipc.obj (.text:ti_sdo_ipc_gates_GatePeterson_getReservedMask__E)
                  8283cd60    00000020              : Ipc.obj (.text:ti_sdo_ipc_gates_GatePeterson_query__E)
                  8283cd80    00000020     app_pe66.oe66 (.text:ti_sdo_ipc_heaps_HeapMemMP_Params__init__S)
                  8283cda0    00000020     ipc.ae66 : Ipc.obj (.text:ti_sdo_ipc_heaps_HeapMemMP_isBlocking__E)
                  8283cdc0    00000020              : Ipc.obj (.text:ti_sdo_ipc_notifyDrivers_NotifySetupNull_attach__E)
                  8283cde0    00000020              : Ipc.obj (.text:ti_sdo_ipc_notifyDrivers_NotifySetupNull_numIntLines__E)
                  8283ce00    00000020              : Ipc.obj (.text:ti_sdo_ipc_notifyDrivers_NotifySetupNull_sharedMemReq__E)
                  8283ce20    00000020     app_pe66.oe66 (.text:ti_sdo_ipc_nsremote_NameServerRemoteNotify_Object__first__S)
                  8283ce40    00000020     app_pe66.oe66 (.text:ti_sdo_ipc_nsremote_NameServerRemoteNotify_Object__next__S)
                  8283ce60    00000020     app_pe66.oe66 (.text:ti_sdo_ipc_nsremote_NameServerRemoteNotify_Params__init__S)
                  8283ce80    00000020     app_pe66.oe66 (.text:ti_sdo_ipc_nsremote_NameServerRemoteNotify_delete)
                  8283cea0    00000020     ipc.ae66 : Ipc.obj (.text:ti_sdo_ipc_nsremote_NameServerRemoteNotify_sharedMemReq__E)
                  8283cec0    00000020              : Ipc.obj (.text:ti_sdo_ipc_transports_TransportShmSetup_isRegistered__E)
                  8283cee0    00000020     app_pe66.oe66 (.text:ti_sdo_ipc_transports_TransportShm_Params__init__S)
                  8283cf00    00000020     ipc.ae66 : Ipc.obj (.text:ti_sdo_ipc_transports_TransportShm_control__E)
                  8283cf20    00000020              : Ipc.obj (.text:ti_sdo_ipc_transports_TransportShm_getStatus__E)
                  8283cf40    00000020              : Ipc.obj (.text:ti_sdo_ipc_transports_TransportShm_notifyFxn__I)
                  8283cf60    00000020              : Ipc.obj (.text:ti_sdo_ipc_transports_TransportShm_setErrFxn__E)
                  8283cf80    00000020     utils.ae66 : UTILS.obj (.text:ti_sdo_utils_List_Instance_init__E)
                  8283cfa0    00000020     app_pe66.oe66 (.text:ti_sdo_utils_List_Object__get__S)
                  8283cfc0    00000020     app_pe66.oe66 (.text:ti_sdo_utils_List_destruct)
                  8283cfe0    00000020     utils.ae66 : UTILS.obj (.text:ti_sdo_utils_MultiProc_getClusterId__F)
                  8283d000    00000020     app_pe66.oe66 (.text:ti_sdo_utils_NameServer_Module__startupDone__F)
                  8283d020    00000020     app_pe66.oe66 (.text:ti_sdo_utils_NameServer_Object__first__S)
                  8283d040    00000020     app_pe66.oe66 (.text:ti_sdo_utils_NameServer_Object__next__S)
                  8283d060    00000020     app_pe66.oe66 (.text:ti_sysbios_BIOS_RtsGateProxy_enter__E)
                  8283d080    00000020     app_pe66.oe66 (.text:ti_sysbios_BIOS_RtsGateProxy_leave__E)
                  8283d0a0    00000020     sysbios.ae66 : BIOS.obj (.text:ti_sysbios_BIOS_exit__E)
                  8283d0c0    00000020                  : BIOS.obj (.text:ti_sysbios_BIOS_getThreadType__E)
                  8283d0e0    00000020                  : BIOS.obj (.text:ti_sysbios_BIOS_linkedWithIncorrectBootLibrary__E)
                  8283d100    00000020     app_pe66.oe66 (.text:ti_sysbios_BIOS_nullFunc__I)
                  8283d120    00000020     sysbios.ae66 : BIOS.obj (.text:ti_sysbios_BIOS_setThreadType__E)
                  8283d140    00000020                  : BIOS.obj (.text:ti_sysbios_BIOS_start__E)
                  8283d160    00000020     app_pe66.oe66 (.text:ti_sysbios_family_c62_TaskSupport_Module__startupDone__S)
                  8283d180    00000020     sysbios.ae66 : BIOS.obj (.text:ti_sysbios_family_c62_TaskSupport_checkStack__E)
                  8283d1a0    00000020                  : BIOS.obj (.text:ti_sysbios_family_c62_TaskSupport_getStackAlignment__E)
                  8283d1c0    00000020     app_pe66.oe66 (.text:ti_sysbios_family_c64p_Hwi_Module__startupDone__F)
                  8283d1e0    00000020     app_pe66.oe66 (.text:ti_sysbios_family_c64p_Hwi_Params__init__S)
                  8283d200    00000020     sysbios.ae66 : BIOS.obj (.text:ti_sysbios_family_c64p_Hwi_clearInterrupt__E)
                  8283d220    00000020                  : BIOS.obj (.text:ti_sysbios_family_c64p_Hwi_getFunc__E)
                  8283d240    00000020                  : BIOS.obj (.text:ti_sysbios_family_c64p_Hwi_getHandle__E)
                  8283d260    00000020                  : BIOS.obj (.text:ti_sysbios_family_c64p_Hwi_startup__E)
                  8283d280    00000020                  : BIOS.obj (.text:ti_sysbios_family_c64p_Hwi_switchFromBootStack__E)
                  8283d2a0    00000020                  : BIOS.obj (.text:ti_sysbios_family_c64p_Hwi_unPluggedInterrupt__I)
                  8283d2c0    00000020                  : BIOS.obj (.text:ti_sysbios_family_c64p_TimestampProvider_Module_startup__E)
                  8283d2e0    00000020                  : BIOS.obj (.text:ti_sysbios_family_c64p_TimestampProvider_get64__E)
                  8283d300    00000020                  : BIOS.obj (.text:ti_sysbios_family_c64p_tci6488_TimerSupport_enable__E)
                  8283d320    00000020                  : BIOS.obj (.text:ti_sysbios_family_c66_Cache_RTSSynchInv__I)
                  8283d340    00000020                  : BIOS.obj (.text:ti_sysbios_family_c66_Cache_RTSSynchWbInv__I)
                  8283d360    00000020                  : BIOS.obj (.text:ti_sysbios_family_c66_Cache_RTSSynchWb__I)
                  8283d380    00000020                  : BIOS.obj (.text:ti_sysbios_family_c66_Cache_inv__E)
                  8283d3a0    00000020                  : BIOS.obj (.text:ti_sysbios_family_c66_Cache_wait__E)
                  8283d3c0    00000020                  : BIOS.obj (.text:ti_sysbios_family_c66_Cache_wbInv__E)
                  8283d3e0    00000020                  : BIOS.obj (.text:ti_sysbios_family_c66_tci66xx_CpIntc_enableHostInt__E)
                  8283d400    00000020                  : BIOS.obj (.text:ti_sysbios_gates_GateAll_Instance_init__E)
                  8283d420    00000020                  : BIOS.obj (.text:ti_sysbios_gates_GateAll_query__E)
                  8283d440    00000020                  : BIOS.obj (.text:ti_sysbios_gates_GateHwi_Instance_init__E)
                  8283d460    00000020                  : BIOS.obj (.text:ti_sysbios_gates_GateHwi_enter__E)
                  8283d480    00000020                  : BIOS.obj (.text:ti_sysbios_gates_GateHwi_leave__E)
                  8283d4a0    00000020                  : BIOS.obj (.text:ti_sysbios_gates_GateHwi_query__E)
                  8283d4c0    00000020                  : BIOS.obj (.text:ti_sysbios_gates_GateMutexPri_Instance_finalize__E)
                  8283d4e0    00000020                  : BIOS.obj (.text:ti_sysbios_gates_GateMutexPri_query__E)
                  8283d500    00000020                  : BIOS.obj (.text:ti_sysbios_gates_GateMutex_Instance_finalize__E)
                  8283d520    00000020                  : BIOS.obj (.text:ti_sysbios_gates_GateMutex_query__E)
                  8283d540    00000020                  : BIOS.obj (.text:ti_sysbios_gates_GateSwi_Instance_init__E)
                  8283d560    00000020                  : BIOS.obj (.text:ti_sysbios_gates_GateSwi_query__E)
                  8283d580    00000020                  : BIOS.obj (.text:ti_sysbios_hal_Hwi_Module_startup__E)
                  8283d5a0    00000020     app_pe66.oe66 (.text:ti_sysbios_heaps_HeapMem_Module_GateProxy_enter__E)
                  8283d5c0    00000020     app_pe66.oe66 (.text:ti_sysbios_heaps_HeapMem_Module_GateProxy_leave__E)
                  8283d5e0    00000020     sysbios.ae66 : BIOS.obj (.text:ti_sysbios_heaps_HeapMem_isBlocking__E)
                  8283d600    00000020     app_pe66.oe66 (.text:ti_sysbios_knl_Clock_TimerProxy_getMaxTicks__E)
                  8283d620    00000020     sysbios.ae66 : BIOS.obj (.text:ti_sysbios_knl_Idle_loop__E)
                  8283d640    00000020                  : BIOS.obj (.text:ti_sysbios_knl_Queue_Instance_init__E)
                  8283d660    00000020     app_pe66.oe66 (.text:ti_sysbios_knl_Queue_Object__get__S)
                  8283d680    00000020     app_pe66.oe66 (.text:ti_sysbios_knl_Queue_destruct)
                  8283d6a0    00000020     sysbios.ae66 : BIOS.obj (.text:ti_sysbios_knl_Queue_empty__E)
                  8283d6c0    00000020                  : BIOS.obj (.text:ti_sysbios_knl_Semaphore_Instance_finalize__E)
                  8283d6e0    00000020     app_pe66.oe66 (.text:ti_sysbios_knl_Semaphore_Params__init__S)
                  8283d700    00000020     app_pe66.oe66 (.text:ti_sysbios_knl_Semaphore_delete)
                  8283d720    00000020     app_pe66.oe66 (.text:ti_sysbios_knl_Swi_Params__init__S)
                  8283d740    00000020     sysbios.ae66 : BIOS.obj (.text:ti_sysbios_knl_Swi_disable__E)
                  8283d760    00000020                  : BIOS.obj (.text:ti_sysbios_knl_Task_disable__E)
                  8283d780    00000020                  : BIOS.obj (.text:ti_sysbios_knl_Task_startup__E)
                  8283d7a0    00000020                  : BIOS.obj (.text:ti_sysbios_syncs_SyncSem_Instance_finalize__E)
                  8283d7c0    00000020     app_pe66.oe66 (.text:ti_sysbios_syncs_SyncSem_delete)
                  8283d7e0    00000020     sysbios.ae66 : BIOS.obj (.text:ti_sysbios_syncs_SyncSem_query__E)
                  8283d800    00000020                  : BIOS.obj (.text:ti_sysbios_syncs_SyncSem_signal__E)
                  8283d820    00000020     app_pe66.oe66 (.text:ti_sysbios_timers_timer64_Timer_Module__startupDone__F)
                  8283d840    00000020     sysbios.ae66 : BIOS.obj (.text:ti_sysbios_timers_timer64_Timer_getMaxTicks__E)
                  8283d860    00000020                  : BIOS.obj (.text:ti_sysbios_xdcruntime_GateThreadSupport_Instance_finalize__E)
                  8283d880    00000020                  : BIOS.obj (.text:ti_sysbios_xdcruntime_GateThreadSupport_Instance_init__E)
                  8283d8a0    00000020                  : BIOS.obj (.text:ti_sysbios_xdcruntime_GateThreadSupport_enter__E)
                  8283d8c0    00000020     ti.targets.rts6000.ae66 : Error.oe66 (.text:xdc_runtime_Error_getSite__E)
                  8283d8e0    00000020                             : Error.oe66 (.text:xdc_runtime_Error_raiseX__E)
                  8283d900    00000020                             : GateNull.oe66 (.text:xdc_runtime_GateNull_enter__E)
                  8283d920    00000020                             : GateNull.oe66 (.text:xdc_runtime_GateNull_leave__E)
                  8283d940    00000020                             : GateNull.oe66 (.text:xdc_runtime_GateNull_query__E)
                  8283d960    00000020                             : Gate.oe66 (.text:xdc_runtime_Gate_enterSystem__E)
                  8283d980    00000020                             : Gate.oe66 (.text:xdc_runtime_Gate_leaveSystem__E)
                  8283d9a0    00000020     app_pe66.oe66 (.text:xdc_runtime_IHeap_alloc)
                  8283d9c0    00000020     app_pe66.oe66 (.text:xdc_runtime_IHeap_free)
                  8283d9e0    00000020     app_pe66.oe66 (.text:xdc_runtime_LoggerBuf_Module_GateProxy_enter__E)
                  8283da00    00000020     app_pe66.oe66 (.text:xdc_runtime_LoggerBuf_Module_GateProxy_leave__E)
                  8283da20    00000020     ti.targets.rts6000.ae66 : LoggerBuf.oe66 (.text:xdc_runtime_LoggerBuf_disable__E)
                  8283da40    00000020                             : LoggerBuf.oe66 (.text:xdc_runtime_LoggerBuf_enable__E)
                  8283da60    00000020                             : Memory.oe66 (.text:xdc_runtime_Memory_calloc__E)
                  8283da80    00000020                             : Memory.oe66 (.text:xdc_runtime_Memory_free__E)
                  8283daa0    00000020                             : Memory.oe66 (.text:xdc_runtime_Memory_getMaxDefaultTypeAlign__E)
                  8283dac0    00000020     app_pe66.oe66 (.text:xdc_runtime_Startup_Module__startupDone__S)
                  8283dae0    00000020     app_pe66.oe66 (.text:xdc_runtime_Startup_exec__I)
                  8283db00    00000020     ti.targets.rts6000.ae66 : Startup.oe66 (.text:xdc_runtime_Startup_rtsDone__E)
                  8283db20    00000020                             : SysMin.oe66 (.text:xdc_runtime_SysMin_ready__E)
                  8283db40    00000020     app_pe66.oe66 (.text:xdc_runtime_System_Module_GateProxy_enter__E)
                  8283db60    00000020     app_pe66.oe66 (.text:xdc_runtime_System_Module_GateProxy_leave__E)
                  8283db80    00000020     ti.targets.rts6000.ae66 : System.oe66 (.text:xdc_runtime_System_Module_startup__E)
                  8283dba0    00000020                             : System.oe66 (.text:xdc_runtime_System_vsnprintf__E)
                  8283dbc0    00000020                             : Text.oe66 (.text:xdc_runtime_Text_ropeText__E)
                  8283dbe0    00000020     app_pe66.oe66 (.text:xdc_runtime_Text_visitRope__I)
                  8283dc00    00000020     ti.targets.rts6000.ae66 : GateThread.oe66 (.text:xdc_runtime_knl_GateThread_Instance_finalize__E)
                  8283dc20    00000020     app_pe66.oe66 (.text:xdc_runtime_knl_GateThread_Module__startupDone__S)
                  8283dc40    00000020     app_pe66.oe66 (.text:xdc_runtime_knl_GateThread_Proxy_create)
                  8283dc60    00000020     app_pe66.oe66 (.text:xdc_runtime_knl_GateThread_Proxy_delete)
                  8283dc80    00000020     app_pe66.oe66 (.text:xdc_runtime_knl_GateThread_Proxy_enter__E)
                  8283dca0    00000020     app_pe66.oe66 (.text:xdc_runtime_knl_GateThread_Proxy_leave__E)
                  8283dcc0    00000020     ti.targets.rts6000.ae66 : GateThread.oe66 (.text:xdc_runtime_knl_GateThread_enter__E)
                  8283dce0    00000020                             : GateThread.oe66 (.text:xdc_runtime_knl_GateThread_leave__E)

.far       0    8283dd00    000134fa     UNINITIALIZED
                  8283dd00    0000e800     (.common:ti_sysbios_heaps_HeapMem_Instance_State_0_buf__A)
                  8284c500    00004000     app_pe66.oe66 (.far:taskStackSection)
                  82850500    000005a8     ti.drv.qmss.ae66 : qmss_drv.oe66 (.far:local:uninit)
                  82850aa8    00000200     (.common:xdc_runtime_LoggerBuf_Instance_State_0_entryArr__A)
                  82850ca8    00000200     (.common:xdc_runtime_SysMin_Module_State_0_outbuf__A)
                  82850ea8    00000140     (.common:__TI_tmpnams)
                  82850fe8    000000f0     (.common:gDataBufferMemMgr)
                  828510d8    000000ac     (.common:UartObjects)
                  82851184    00000004     --HOLE--
                  82851188    00000044     (.common:gI2cBlock)
                  828511cc    00000004     --HOLE--
                  828511d0    0000001c     (.common:rxQueHnd)
                  828511ec    00000004     --HOLE--
                  828511f0    00000008     (.common:parmbuf)
                  828511f8    00000002                      : qmss_drv.oe66 (.far:local:init)

.const     0    82851200    00006634     
                  82851200    00002d99     app_pe66.oe66 (.const:xdc_runtime_Text_charTab__A)
                  82853f99    00000977     ipc.ae66 : Ipc.obj (.const:.string)
                  82854910    00000794     ti.drv.srio.ae66 : srio_drv.oe66 (.const:.string)
                  828550a4    00000518     sysbios.ae66 : BIOS.obj (.const:.string)
                  828555bc    00000004     ti.targets.rts6000.ae66 : Assert.oe66 (.const:.string)
                  828555c0    00000400     app_pe66.oe66 (.const:ti_sysbios_family_c66_Cache_marvalues__C)
                  828559c0    00000264     qmss_init.obj (.const:.string)
                  82855c24    00000004     ti.platform.evm6678l.ae66 : cyhc5g_gpio.obj (.const)
                  82855c28    00000180     app_pe66.oe66 (.const:xdc_runtime_Text_nodeTab__A)
                  82855da8    00000140     app_pe66.oe66 (.const:ti_sysbios_family_c66_tci66xx_CpIntc_sysIntToHostInt__A)
                  82855ee8    00000118     srio_laneconfig.obj (.const:.string)
                  82856000    00000101     rts6600_elf.lib : ctype.c.obj (.const:.string:_ctypes_)
                  82856101    00000001     app_pe66.oe66 (.const:ti_sysbios_timers_timer64_Timer_localTimerBaseId__C)
                  82856102    00000002     app_pe66.oe66 (.const:ti_sdo_ipc_GateMP_Module__id__C)
                  82856104    000000f8     srio_init.obj (.const:.string)
                  828561fc    000000d4     app_pe66.oe66 (.const:.string)
                  828562d0    0000008c     main.obj (.const:.string)
                  8285635c    00000070     ti.platform.evm6678l.ae66 : platform.obj (.const)
                  828563cc    0000005c                               : platform.obj (.const:.string)
                  82856428    00000058     ti.targets.rts6000.ae66 : Error.oe66 (.const:.string)
                  82856480    00000048     app_pe66.oe66 (.const:xdc_runtime_Startup_sfxnTab__A)
                  828564c8    00000044     app_pe66.oe66 (.const:ti_sysbios_knl_Task_Object__PARAMS__C)
                  8285650c    00000040     ti.targets.rts6000.ae66 : Text.oe66 (.const:.string)
                  8285654c    00000040     ti.drv.uart.ae66 : UART_drv.oe66 (.const:UART_defaultParams)
                  8285658c    00000004     ti.platform.evm6678l.ae66 : cyhc5g_i2c_eeprom.obj (.const)
                  82856590    00000040     ti.board.ae66 : cyhc5GC6678_clock.oe66 (.const:pscConfigs)
                  828565d0    0000003c     app_pe66.oe66 (.const:xdc_runtime_LoggerBuf_Module__FXNS__C)
                  8285660c    00000034     app_pe66.oe66 (.const:ti_sdo_ipc_GateMP_Object__PARAMS__C)
                  82856640    00000030     ti.drv.uart.ae66 : UART_v0.oe66 (.const:UART_FxnTable_v0)
                  82856670    00000030     ti.board.ae66 : cyhc5GC6678_pll.oe66 (.const:pllcConfigs)
                  828566a0    00000030     app_pe66.oe66 (.const:ti_sdo_ipc_heaps_HeapMemMP_Object__PARAMS__C)
                  828566d0    00000030     app_pe66.oe66 (.const:ti_sysbios_family_c64p_Hwi_Object__PARAMS__C)
                  82856700    0000002c     ti.targets.rts6000.ae66 : Startup.oe66 (.const:.string)
                  8285672c    0000002c     app_pe66.oe66 (.const:ti_sdo_ipc_ListMP_Object__PARAMS__C)
                  82856758    0000002c     app_pe66.oe66 (.const:ti_sdo_ipc_gates_GateHWSem_Module__FXNS__C)
                  82856784    0000002c     app_pe66.oe66 (.const:ti_sdo_ipc_gates_GateMPSupportNull_Module__FXNS__C)
                  828567b0    0000002c     app_pe66.oe66 (.const:ti_sdo_ipc_gates_GatePeterson_Module__FXNS__C)
                  828567dc    00000004     ti.platform.evm6678l.ae66 : cyhc5g_uart.obj (.const)
                  828567e0    00000028                               : cyhc5g_nand.obj (.const:.string:rbl_eccLoc)
                  82856808    00000028     app_pe66.oe66 (.const:ti_sdo_ipc_heaps_HeapMemMP_Module__FXNS__C)
                  82856830    00000028     app_pe66.oe66 (.const:ti_sdo_ipc_nsremote_NameServerRemoteNotify_Module__FXNS__C)
                  82856858    00000028     app_pe66.oe66 (.const:ti_sdo_ipc_transports_TransportShm_Module__FXNS__C)
                  82856880    00000028     app_pe66.oe66 (.const:ti_sdo_ipc_transports_TransportShm_Object__PARAMS__C)
                  828568a8    00000028     app_pe66.oe66 (.const:ti_sysbios_heaps_HeapMem_Module__FXNS__C)
                  828568d0    00000028     app_pe66.oe66 (.const:ti_sysbios_knl_Swi_Object__PARAMS__C)
                  828568f8    00000028     app_pe66.oe66 (.const:xdc_runtime_LoggerBuf_Object__PARAMS__C)
                  82856920    00000024     init.obj (.const:.string)
                  82856944    00000024     rts6600_elf.lib : _printfi.c.obj (.const:.string)
                  82856968    00000024     ti.drv.uart.ae66 : UART_stdio.oe66 (.const:.string)
                  8285698c    00000004     app_pe66.oe66 (.const:ti_sdo_ipc_GateMP_A_invalidClose__C)
                  82856990    00000024     ti.board.ae66 : cyhc5GC6678.oe66 (.const:Board_ext_clk)
                  828569b4    00000024     app_pe66.oe66 (.const:ti_sdo_ipc_gates_GateHWSem_Object__PARAMS__C)
                  828569d8    00000024     app_pe66.oe66 (.const:ti_sdo_ipc_gates_GateMPSupportNull_Object__PARAMS__C)
                  828569fc    00000024     app_pe66.oe66 (.const:ti_sdo_ipc_gates_GatePeterson_Object__PARAMS__C)
                  82856a20    00000024     app_pe66.oe66 (.const:ti_sysbios_gates_GateAll_Module__FXNS__C)
                  82856a44    00000024     app_pe66.oe66 (.const:ti_sysbios_gates_GateHwi_Module__FXNS__C)
                  82856a68    00000024     app_pe66.oe66 (.const:ti_sysbios_gates_GateMutexPri_Module__FXNS__C)
                  82856a8c    00000024     app_pe66.oe66 (.const:ti_sysbios_gates_GateMutex_Module__FXNS__C)
                  82856ab0    00000024     app_pe66.oe66 (.const:ti_sysbios_gates_GateSwi_Module__FXNS__C)
                  82856ad4    00000024     app_pe66.oe66 (.const:ti_sysbios_heaps_HeapMem_Object__PARAMS__C)
                  82856af8    00000024     app_pe66.oe66 (.const:ti_sysbios_knl_Semaphore_Object__PARAMS__C)
                  82856b1c    00000024     app_pe66.oe66 (.const:ti_sysbios_syncs_SyncSem_Module__FXNS__C)
                  82856b40    00000024     app_pe66.oe66 (.const:xdc_runtime_GateNull_Module__FXNS__C)
                  82856b64    00000004     app_pe66.oe66 (.const:ti_sdo_ipc_GateMP_A_invalidDelete__C)
                  82856b68    00000024     app_pe66.oe66 (.const:xdc_runtime_Startup_sfxnRts__A)
                  82856b8c    00000024     app_pe66.oe66 (.const:xdc_runtime_knl_GateThread_Module__FXNS__C)
                  82856bb0    00000020     ti.osal.ae66 : SemaphoreP_tirtos.oe66 (.const:.string)
                  82856bd0    00000020     ti.board.ae66 : cyhc5GC6678_pll.oe66 (.const:keystonePllcRegs)
                  82856bf0    00000020     qmss_init.obj (.const:rxQueNum)
                  82856c10    00000020     app_pe66.oe66 (.const:ti_sdo_ipc_GateMP_Object__DESC__C)
                  82856c30    00000020     app_pe66.oe66 (.const:ti_sdo_ipc_ListMP_Object__DESC__C)
                  82856c50    00000020     app_pe66.oe66 (.const:ti_sdo_ipc_MessageQ_Object__DESC__C)
                  82856c70    00000020     app_pe66.oe66 (.const:ti_sdo_ipc_MessageQ_Object__PARAMS__C)
                  82856c90    00000020     app_pe66.oe66 (.const:ti_sdo_ipc_Notify_Object__DESC__C)
                  82856cb0    00000020     app_pe66.oe66 (.const:ti_sdo_ipc_gates_GateHWSem_Object__DESC__C)
                  82856cd0    00000020     app_pe66.oe66 (.const:ti_sdo_ipc_gates_GateMPSupportNull_Object__DESC__C)
                  82856cf0    00000020     app_pe66.oe66 (.const:ti_sdo_ipc_gates_GatePeterson_Object__DESC__C)
                  82856d10    00000020     app_pe66.oe66 (.const:ti_sdo_ipc_heaps_HeapMemMP_Object__DESC__C)
                  82856d30    00000020     app_pe66.oe66 (.const:ti_sdo_ipc_nsremote_NameServerRemoteNotify_Object__DESC__C)
                  82856d50    00000020     app_pe66.oe66 (.const:ti_sdo_ipc_nsremote_NameServerRemoteNotify_Object__PARAMS__C)
                  82856d70    00000020     app_pe66.oe66 (.const:ti_sdo_ipc_transports_TransportShm_Object__DESC__C)
                  82856d90    00000020     app_pe66.oe66 (.const:ti_sdo_utils_List_Object__DESC__C)
                  82856db0    00000020     app_pe66.oe66 (.const:ti_sysbios_family_c64p_Hwi_Object__DESC__C)
                  82856dd0    00000020     app_pe66.oe66 (.const:ti_sysbios_family_c66_tci66xx_CpIntc_hostIntToEventId__A)
                  82856df0    00000020     app_pe66.oe66 (.const:ti_sysbios_gates_GateAll_Object__DESC__C)
                  82856e10    00000020     app_pe66.oe66 (.const:ti_sysbios_gates_GateHwi_Object__DESC__C)
                  82856e30    00000020     app_pe66.oe66 (.const:ti_sysbios_gates_GateMutexPri_Object__DESC__C)
                  82856e50    00000020     app_pe66.oe66 (.const:ti_sysbios_gates_GateMutex_Object__DESC__C)
                  82856e70    00000020     app_pe66.oe66 (.const:ti_sysbios_gates_GateSwi_Object__DESC__C)
                  82856e90    00000020     app_pe66.oe66 (.const:ti_sysbios_heaps_HeapMem_Object__DESC__C)
                  82856eb0    00000020     app_pe66.oe66 (.const:ti_sysbios_knl_Queue_Object__DESC__C)
                  82856ed0    00000020     app_pe66.oe66 (.const:ti_sysbios_knl_Semaphore_Object__DESC__C)
                  82856ef0    00000020     app_pe66.oe66 (.const:ti_sysbios_knl_Swi_Object__DESC__C)
                  82856f10    00000020     app_pe66.oe66 (.const:ti_sysbios_knl_Task_Object__DESC__C)
                  82856f30    00000020     app_pe66.oe66 (.const:ti_sysbios_syncs_SyncSem_Object__DESC__C)
                  82856f50    00000020     app_pe66.oe66 (.const:ti_sysbios_xdcruntime_GateThreadSupport_Object__DESC__C)
                  82856f70    00000020     app_pe66.oe66 (.const:xdc_runtime_GateNull_Object__DESC__C)
                  82856f90    00000020     app_pe66.oe66 (.const:xdc_runtime_LoggerBuf_Object__DESC__C)
                  82856fb0    00000020     app_pe66.oe66 (.const:xdc_runtime_knl_GateThread_Object__DESC__C)
                  82856fd0    0000001c     ti.drv.uart.ae66 : UART_v0.oe66 (.const:.string)
                  82856fec    0000001c     ti.osal.ae66 : HwiP_tirtos.oe66 (.const:.string)
                  82857008    0000001c     app_pe66.oe66 (.const:ti_sysbios_syncs_SyncSem_Object__PARAMS__C)
                  82857024    00000004     app_pe66.oe66 (.const:ti_sdo_ipc_GateMP_E_gateUnavailable__C)
                  82857028    00000019     app_pe66.oe66 (.const:ti_sysbios_family_c66_tci66xx_CpIntc_eventId__A)
                  82857041    00000001     --HOLE-- [fill = 0]
                  82857042    00000002     app_pe66.oe66 (.const:ti_sdo_ipc_GateMP_Module__loggerDefined__C)
                  82857044    00000004     app_pe66.oe66 (.const:ti_sdo_ipc_GateMP_E_localGate__C)
                  82857048    00000019     app_pe66.oe66 (.const:ti_sysbios_family_c66_tci66xx_CpIntc_hostIntToEventId_0__A)
                  82857061    00000001     --HOLE-- [fill = 0]
                  82857062    00000002     app_pe66.oe66 (.const:ti_sdo_ipc_Ipc_Module__id__C)
                  82857064    00000004     app_pe66.oe66 (.const:ti_sdo_ipc_GateMP_LM_create__C)
                  82857068    00000019     app_pe66.oe66 (.const:ti_sysbios_family_c66_tci66xx_CpIntc_hostIntToEventId_1__A)
                  82857081    00000001     --HOLE-- [fill = 0]
                  82857082    00000002     app_pe66.oe66 (.const:ti_sdo_ipc_Ipc_generateSlaveDataForHost__C)
                  82857084    00000004     app_pe66.oe66 (.const:ti_sdo_ipc_GateMP_LM_delete__C)
                  82857088    00000019     app_pe66.oe66 (.const:ti_sysbios_family_c66_tci66xx_CpIntc_hostIntToEventId_2__A)
                  828570a1    00000001     --HOLE-- [fill = 0]
                  828570a2    00000002     app_pe66.oe66 (.const:ti_sdo_ipc_ListMP_Module__id__C)
                  828570a4    00000004     app_pe66.oe66 (.const:ti_sdo_ipc_GateMP_LM_enter__C)
                  828570a8    00000019     app_pe66.oe66 (.const:ti_sysbios_family_c66_tci66xx_CpIntc_hostIntToEventId_3__A)
                  828570c1    00000001     --HOLE-- [fill = 0]
                  828570c2    00000002     app_pe66.oe66 (.const:ti_sdo_ipc_MessageQ_Module__id__C)
                  828570c4    00000004     app_pe66.oe66 (.const:ti_sdo_ipc_GateMP_LM_leave__C)
                  828570c8    00000019     app_pe66.oe66 (.const:ti_sysbios_family_c66_tci66xx_CpIntc_hostIntToEventId_4__A)
                  828570e1    00000001     --HOLE-- [fill = 0]
                  828570e2    00000002     app_pe66.oe66 (.const:ti_sdo_ipc_MessageQ_Module__loggerDefined__C)
                  828570e4    00000004     app_pe66.oe66 (.const:ti_sdo_ipc_GateMP_LM_open__C)
                  828570e8    00000019     app_pe66.oe66 (.const:ti_sysbios_family_c66_tci66xx_CpIntc_hostIntToEventId_5__A)
                  82857101    00000001     --HOLE-- [fill = 0]
                  82857102    00000002     app_pe66.oe66 (.const:ti_sdo_ipc_Notify_Module__id__C)
                  82857104    00000004     app_pe66.oe66 (.const:ti_sdo_ipc_GateMP_Module__diagsEnabled__C)
                  82857108    00000019     app_pe66.oe66 (.const:ti_sysbios_family_c66_tci66xx_CpIntc_hostIntToEventId_6__A)
                  82857121    00000001     --HOLE-- [fill = 0]
                  82857122    00000002     app_pe66.oe66 (.const:ti_sdo_ipc_Notify_numLines__C)
                  82857124    00000004     app_pe66.oe66 (.const:ti_sdo_ipc_GateMP_Module__diagsIncluded__C)
                  82857128    00000019     app_pe66.oe66 (.const:ti_sysbios_family_c66_tci66xx_CpIntc_hostIntToEventId_7__A)
                  82857141    00000001     --HOLE-- [fill = 0]
                  82857142    00000002     app_pe66.oe66 (.const:ti_sdo_ipc_Notify_reservedEvents__C)
                  82857144    00000004     app_pe66.oe66 (.const:ti_sdo_ipc_GateMP_Module__diagsMask__C)
                  82857148    00000018     srio_init.obj (.const:$P$T0$1)
                  82857160    00000018     ti.targets.rts6000.ae66 : System.oe66 (.const:.string)
                  82857178    00000018     ti.drv.uart.ae66 : UART_soc.oe66 (.const:UART_config)
                  82857190    00000018     app_pe66.oe66 (.const:ti_sdo_ipc_Notify_Object__PARAMS__C)
                  828571a8    00000018     app_pe66.oe66 (.const:ti_sdo_utils_List_Object__PARAMS__C)
                  828571c0    00000018     app_pe66.oe66 (.const:ti_sysbios_gates_GateAll_Object__PARAMS__C)
                  828571d8    00000018     app_pe66.oe66 (.const:ti_sysbios_gates_GateHwi_Object__PARAMS__C)
                  828571f0    00000018     app_pe66.oe66 (.const:ti_sysbios_gates_GateMutexPri_Object__PARAMS__C)
                  82857208    00000018     app_pe66.oe66 (.const:ti_sysbios_gates_GateMutex_Object__PARAMS__C)
                  82857220    00000018     app_pe66.oe66 (.const:ti_sysbios_gates_GateSwi_Object__PARAMS__C)
                  82857238    00000018     app_pe66.oe66 (.const:ti_sysbios_knl_Queue_Object__PARAMS__C)
                  82857250    00000018     app_pe66.oe66 (.const:ti_sysbios_xdcruntime_GateThreadSupport_Object__PARAMS__C)
                  82857268    00000018     app_pe66.oe66 (.const:xdc_runtime_GateNull_Object__PARAMS__C)
                  82857280    00000018     app_pe66.oe66 (.const:xdc_runtime_knl_GateThread_Object__PARAMS__C)
                  82857298    00000014     ti.platform.evm6678l.ae66 : cyhc5g_nor.obj (.const)
                  828572ac    00000004     app_pe66.oe66 (.const:ti_sdo_ipc_GateMP_Module__loggerFxn2__C)
                  828572b0    00000010     qmss_init.obj (.const:flowIdNum)
                  828572c0    00000010     app_pe66.oe66 (.const:ti_sysbios_family_c64p_EventCombiner_EVTMASK__C)
                  828572d0    00000008     ti.drv.qmss.ae66 : qmss_drv.oe66 (.const:qmssQueueFree)
                  828572d8    00000008                      : qmss_drv.oe66 (.const:qmssQueueFreeSize)
                  828572e0    00000008     ti.platform.evm6678l.ae66 : cyhc5g_nand.obj (.const)
                  828572e8    00000008                               : cyhc5g_spi.obj (.const)
                  828572f0    00000008     app_pe66.oe66 (.const:ti_sysbios_knl_Idle_funcList__C)
                  828572f8    00000008     app_pe66.oe66 (.const:xdc_runtime_Startup_firstFxns__A)
                  82857300    00000008     app_pe66.oe66 (.const:xdc_runtime_Startup_firstFxns__C)
                  82857308    00000008     app_pe66.oe66 (.const:xdc_runtime_Startup_lastFxns__C)
                  82857310    00000004     app_pe66.oe66 (.const:ti_sdo_ipc_GateMP_Module__loggerFxn4__C)
                  82857314    00000004     app_pe66.oe66 (.const:ti_sdo_ipc_GateMP_Module__loggerObj__C)
                  82857318    00000004     app_pe66.oe66 (.const:ti_sdo_ipc_Ipc_A_addrNotCacheAligned__C)
                  8285731c    00000004     app_pe66.oe66 (.const:ti_sdo_ipc_Ipc_A_addrNotInSharedRegion__C)
                  82857320    00000004     app_pe66.oe66 (.const:ti_sdo_ipc_Ipc_A_internal__C)
                  82857324    00000004     app_pe66.oe66 (.const:ti_sdo_ipc_Ipc_A_invArgument__C)
                  82857328    00000004     app_pe66.oe66 (.const:ti_sdo_ipc_Ipc_A_invParam__C)
                  8285732c    00000004     app_pe66.oe66 (.const:ti_sdo_ipc_Ipc_A_nullArgument__C)
                  82857330    00000004     app_pe66.oe66 (.const:ti_sdo_ipc_Ipc_A_nullPointer__C)
                  82857334    00000004     app_pe66.oe66 (.const:ti_sdo_ipc_Ipc_E_internal__C)
                  82857338    00000004     app_pe66.oe66 (.const:ti_sdo_ipc_Ipc_E_nameFailed__C)
                  8285733c    00000004     app_pe66.oe66 (.const:ti_sdo_ipc_Ipc_E_versionMismatch__C)
                  82857340    00000004     app_pe66.oe66 (.const:ti_sdo_ipc_Ipc_Module__diagsEnabled__C)
                  82857344    00000004     app_pe66.oe66 (.const:ti_sdo_ipc_Ipc_Module__diagsIncluded__C)
                  82857348    00000004     app_pe66.oe66 (.const:ti_sdo_ipc_Ipc_Module__diagsMask__C)
                  8285734c    00000004     app_pe66.oe66 (.const:ti_sdo_ipc_Ipc_numUserFxns__C)
                  82857350    00000004     app_pe66.oe66 (.const:ti_sdo_ipc_Ipc_procSync__C)
                  82857354    00000004     app_pe66.oe66 (.const:ti_sdo_ipc_Ipc_userFxns__C)
                  82857358    00000004     app_pe66.oe66 (.const:ti_sdo_ipc_ListMP_Module__diagsEnabled__C)
                  8285735c    00000004     app_pe66.oe66 (.const:ti_sdo_ipc_ListMP_Module__diagsIncluded__C)
                  82857360    00000004     app_pe66.oe66 (.const:ti_sdo_ipc_ListMP_Module__diagsMask__C)
                  82857364    00000004     app_pe66.oe66 (.const:ti_sdo_ipc_MessageQ_A_invalidMsg__C)
                  82857368    00000004     app_pe66.oe66 (.const:ti_sdo_ipc_MessageQ_A_invalidObj__C)
                  8285736c    00000004     app_pe66.oe66 (.const:ti_sdo_ipc_MessageQ_A_invalidQueueId__C)
                  82857370    00000004     app_pe66.oe66 (.const:ti_sdo_ipc_MessageQ_A_procIdInvalid__C)
                  82857374    00000004     app_pe66.oe66 (.const:ti_sdo_ipc_MessageQ_A_unregisteredTransport__C)
                  82857378    00000004     app_pe66.oe66 (.const:ti_sdo_ipc_MessageQ_E_indexNotAvailable__C)
                  8285737c    00000004     app_pe66.oe66 (.const:ti_sdo_ipc_MessageQ_E_maxReached__C)
                  82857380    00000004     app_pe66.oe66 (.const:ti_sdo_ipc_MessageQ_E_nameFailed__C)
                  82857384    00000004     app_pe66.oe66 (.const:ti_sdo_ipc_MessageQ_Instance_State_highList__O)
                  82857388    00000004     app_pe66.oe66 (.const:ti_sdo_ipc_MessageQ_Instance_State_normalList__O)
                  8285738c    00000004     app_pe66.oe66 (.const:ti_sdo_ipc_MessageQ_LM_get__C)
                  82857390    00000004     app_pe66.oe66 (.const:ti_sdo_ipc_MessageQ_LM_putLocal__C)
                  82857394    00000004     app_pe66.oe66 (.const:ti_sdo_ipc_MessageQ_Module__diagsEnabled__C)
                  82857398    00000004     app_pe66.oe66 (.const:ti_sdo_ipc_MessageQ_Module__diagsIncluded__C)
                  8285739c    00000004     app_pe66.oe66 (.const:ti_sdo_ipc_MessageQ_Module__diagsMask__C)
                  828573a0    00000004     app_pe66.oe66 (.const:ti_sdo_ipc_MessageQ_Module__loggerFxn4__C)
                  828573a4    00000004     app_pe66.oe66 (.const:ti_sdo_ipc_MessageQ_Module__loggerObj__C)
                  828573a8    00000004     app_pe66.oe66 (.const:ti_sdo_ipc_MessageQ_Object__count__C)
                  828573ac    00000004     app_pe66.oe66 (.const:ti_sdo_ipc_MessageQ_Object__heap__C)
                  828573b0    00000004     app_pe66.oe66 (.const:ti_sdo_ipc_MessageQ_maxRuntimeEntries__C)
                  828573b4    00000004     app_pe66.oe66 (.const:ti_sdo_ipc_MessageQ_numReservedEntries__C)
                  828573b8    00000004     app_pe66.oe66 (.const:ti_sdo_ipc_Notify_A_alreadyRegistered__C)
                  828573bc    00000004     app_pe66.oe66 (.const:ti_sdo_ipc_Notify_A_internal__C)
                  828573c0    00000004     app_pe66.oe66 (.const:ti_sdo_ipc_Notify_A_invArgument__C)
                  828573c4    00000004     app_pe66.oe66 (.const:ti_sdo_ipc_Notify_A_notRegistered__C)
                  828573c8    00000004     app_pe66.oe66 (.const:ti_sdo_ipc_Notify_A_reservedEvent__C)
                  828573cc    00000004     app_pe66.oe66 (.const:ti_sdo_ipc_Notify_Module__diagsEnabled__C)
                  828573d0    00000004     app_pe66.oe66 (.const:ti_sdo_ipc_Notify_Module__diagsIncluded__C)
                  828573d4    00000004     app_pe66.oe66 (.const:ti_sdo_ipc_Notify_Module__diagsMask__C)
                  828573d8    00000004     app_pe66.oe66 (.const:ti_sdo_ipc_Notify_Module__gateObj__C)
                  828573dc    00000004     app_pe66.oe66 (.const:ti_sdo_ipc_Notify_Object__heap__C)
                  828573e0    00000004     app_pe66.oe66 (.const:ti_sdo_ipc_Notify_numEvents__C)
                  828573e4    00000004     app_pe66.oe66 (.const:ti_sdo_ipc_SharedRegion_A_addrOutOfRange__C)
                  828573e8    00000004     app_pe66.oe66 (.const:ti_sdo_ipc_SharedRegion_A_idTooLarge__C)
                  828573ec    00000004     app_pe66.oe66 (.const:ti_sdo_ipc_SharedRegion_A_noHeap__C)
                  828573f0    00000004     app_pe66.oe66 (.const:ti_sdo_ipc_SharedRegion_A_region0Invalid__C)
                  828573f4    00000004     app_pe66.oe66 (.const:ti_sdo_ipc_SharedRegion_A_regionInvalid__C)
                  828573f8    00000004     app_pe66.oe66 (.const:ti_sdo_ipc_SharedRegion_A_reserveTooMuch__C)
                  828573fc    00000004     app_pe66.oe66 (.const:ti_sdo_ipc_SharedRegion_INVALIDSRPTR__C)
                  82857400    00000004     app_pe66.oe66 (.const:ti_sdo_ipc_SharedRegion_Module__diagsEnabled__C)
                  82857404    00000004     app_pe66.oe66 (.const:ti_sdo_ipc_SharedRegion_Module__diagsIncluded__C)
                  82857408    00000004     app_pe66.oe66 (.const:ti_sdo_ipc_SharedRegion_Module__diagsMask__C)
                  8285740c    00000004     app_pe66.oe66 (.const:ti_sdo_ipc_SharedRegion_numOffsetBits__C)
                  82857410    00000004     app_pe66.oe66 (.const:ti_sdo_ipc_SharedRegion_offsetMask__C)
                  82857414    00000004     app_pe66.oe66 (.const:ti_sdo_ipc_gates_GateHWSem_A_invSemNum__C)
                  82857418    00000004     app_pe66.oe66 (.const:ti_sdo_ipc_gates_GateHWSem_Module__diagsEnabled__C)
                  8285741c    00000004     app_pe66.oe66 (.const:ti_sdo_ipc_gates_GateHWSem_Module__diagsIncluded__C)
                  82857420    00000004     app_pe66.oe66 (.const:ti_sdo_ipc_gates_GateHWSem_Module__diagsMask__C)
                  82857424    00000004     app_pe66.oe66 (.const:ti_sdo_ipc_gates_GateHWSem_baseAddr__C)
                  82857428    00000004     app_pe66.oe66 (.const:ti_sdo_ipc_gates_GateHWSem_numSems__C)
                  8285742c    00000004     app_pe66.oe66 (.const:ti_sdo_ipc_gates_GateHWSem_reservedMaskArr__C)
                  82857430    00000004     app_pe66.oe66 (.const:ti_sdo_ipc_gates_GateHWSem_reservedMaskArr__A)
                  82857434    00000004     app_pe66.oe66 (.const:ti_sdo_ipc_gates_GateMPSupportNull_A_invalidAction__C)
                  82857438    00000004     app_pe66.oe66 (.const:ti_sdo_ipc_gates_GateMPSupportNull_Module__diagsEnabled__C)
                  8285743c    00000004     app_pe66.oe66 (.const:ti_sdo_ipc_gates_GateMPSupportNull_Module__diagsIncluded__C)
                  82857440    00000004     app_pe66.oe66 (.const:ti_sdo_ipc_gates_GateMPSupportNull_Module__diagsMask__C)
                  82857444    00000004     app_pe66.oe66 (.const:ti_sdo_ipc_gates_GateMPSupportNull_action__C)
                  82857448    00000004     app_pe66.oe66 (.const:ti_sdo_ipc_gates_GatePeterson_E_gateRemotelyOpened__C)
                  8285744c    00000004     app_pe66.oe66 (.const:ti_sdo_ipc_gates_GatePeterson_Module__diagsEnabled__C)
                  82857450    00000004     app_pe66.oe66 (.const:ti_sdo_ipc_gates_GatePeterson_Module__diagsIncluded__C)
                  82857454    00000004     app_pe66.oe66 (.const:ti_sdo_ipc_gates_GatePeterson_Module__diagsMask__C)
                  82857458    00000004     app_pe66.oe66 (.const:ti_sdo_ipc_gates_GatePeterson_numInstances__C)
                  8285745c    00000004     app_pe66.oe66 (.const:ti_sdo_ipc_heaps_HeapMemMP_A_align__C)
                  82857460    00000004     app_pe66.oe66 (.const:ti_sdo_ipc_heaps_HeapMemMP_A_heapSize__C)
                  82857464    00000004     app_pe66.oe66 (.const:ti_sdo_ipc_heaps_HeapMemMP_A_invalidFree__C)
                  82857468    00000004     app_pe66.oe66 (.const:ti_sdo_ipc_heaps_HeapMemMP_A_zeroBlock__C)
                  8285746c    00000004     app_pe66.oe66 (.const:ti_sdo_ipc_heaps_HeapMemMP_E_memory__C)
                  82857470    00000004     app_pe66.oe66 (.const:ti_sdo_ipc_heaps_HeapMemMP_Module__diagsEnabled__C)
                  82857474    00000004     app_pe66.oe66 (.const:ti_sdo_ipc_heaps_HeapMemMP_Module__diagsIncluded__C)
                  82857478    00000004     app_pe66.oe66 (.const:ti_sdo_ipc_heaps_HeapMemMP_Module__diagsMask__C)
                  8285747c    00000004     app_pe66.oe66 (.const:ti_sdo_ipc_interfaces_IGateMPSupport_Interface__BASE__C)
                  82857480    00000004     app_pe66.oe66 (.const:ti_sdo_ipc_interfaces_IMessageQTransport_Interface__BASE__C)
                  82857484    00000004     app_pe66.oe66 (.const:ti_sdo_ipc_interfaces_INetworkTransport_Interface__BASE__C)
                  82857488    00000004     app_pe66.oe66 (.const:ti_sdo_ipc_interfaces_ITransport_Interface__BASE__C)
                  8285748c    00000004     app_pe66.oe66 (.const:ti_sdo_ipc_nsremote_NameServerRemoteNotify_A_invalidValueLen__C)
                  82857490    00000004     app_pe66.oe66 (.const:ti_sdo_ipc_nsremote_NameServerRemoteNotify_A_messageSize__C)
                  82857494    00000004     app_pe66.oe66 (.const:ti_sdo_ipc_nsremote_NameServerRemoteNotify_Instance_State_semMultiBlock__O)
                  82857498    00000004     app_pe66.oe66 (.const:ti_sdo_ipc_nsremote_NameServerRemoteNotify_Instance_State_semRemoteWait__O)
                  8285749c    00000004     app_pe66.oe66 (.const:ti_sdo_ipc_nsremote_NameServerRemoteNotify_Instance_State_swiRequest__O)
                  828574a0    00000004     app_pe66.oe66 (.const:ti_sdo_ipc_nsremote_NameServerRemoteNotify_Instance_State_swiResponse__O)
                  828574a4    00000004     app_pe66.oe66 (.const:ti_sdo_ipc_nsremote_NameServerRemoteNotify_Module__diagsEnabled__C)
                  828574a8    00000004     app_pe66.oe66 (.const:ti_sdo_ipc_nsremote_NameServerRemoteNotify_Module__diagsIncluded__C)
                  828574ac    00000004     app_pe66.oe66 (.const:ti_sdo_ipc_nsremote_NameServerRemoteNotify_Module__diagsMask__C)
                  828574b0    00000004     app_pe66.oe66 (.const:ti_sdo_ipc_nsremote_NameServerRemoteNotify_notifyEventId__C)
                  828574b4    00000004     app_pe66.oe66 (.const:ti_sdo_ipc_nsremote_NameServerRemoteNotify_timeout__C)
                  828574b8    00000004     app_pe66.oe66 (.const:ti_sdo_ipc_transports_TransportShmSetup_priority__C)
                  828574bc    00000004     app_pe66.oe66 (.const:ti_sdo_ipc_transports_TransportShm_Instance_State_swiObj__O)
                  828574c0    00000004     app_pe66.oe66 (.const:ti_sdo_ipc_transports_TransportShm_Module__diagsEnabled__C)
                  828574c4    00000004     app_pe66.oe66 (.const:ti_sdo_ipc_transports_TransportShm_Module__diagsIncluded__C)
                  828574c8    00000004     app_pe66.oe66 (.const:ti_sdo_ipc_transports_TransportShm_Module__diagsMask__C)
                  828574cc    00000004     app_pe66.oe66 (.const:ti_sdo_utils_INameServerRemote_Interface__BASE__C)
                  828574d0    00000004     app_pe66.oe66 (.const:ti_sdo_utils_MultiProc_A_invalidMultiProcId__C)
                  828574d4    00000004     app_pe66.oe66 (.const:ti_sdo_utils_MultiProc_procAddrMode__C)
                  828574d8    00000004     app_pe66.oe66 (.const:ti_sdo_utils_NameServer_A_invArgument__C)
                  828574dc    00000004     app_pe66.oe66 (.const:ti_sdo_utils_NameServer_A_invalidLen__C)
                  828574e0    00000004     app_pe66.oe66 (.const:ti_sdo_utils_NameServer_E_entryExists__C)
                  828574e4    00000004     app_pe66.oe66 (.const:ti_sdo_utils_NameServer_E_maxReached__C)
                  828574e8    00000004     app_pe66.oe66 (.const:ti_sdo_utils_NameServer_Instance_State_freeList__O)
                  828574ec    00000004     app_pe66.oe66 (.const:ti_sdo_utils_NameServer_Instance_State_nameList__O)
                  828574f0    00000004     app_pe66.oe66 (.const:ti_sdo_utils_NameServer_Module__diagsEnabled__C)
                  828574f4    00000004     app_pe66.oe66 (.const:ti_sdo_utils_NameServer_Module__diagsIncluded__C)
                  828574f8    00000004     app_pe66.oe66 (.const:ti_sdo_utils_NameServer_Module__diagsMask__C)
                  828574fc    00000004     app_pe66.oe66 (.const:ti_sdo_utils_NameServer_Object__count__C)
                  82857500    00000004     app_pe66.oe66 (.const:ti_sysbios_family_c62_TaskSupport_stackAlignment__C)
                  82857504    00000004     app_pe66.oe66 (.const:ti_sysbios_family_c64p_EventCombiner_A_invalidEventId__C)
                  82857508    00000004     app_pe66.oe66 (.const:ti_sysbios_family_c64p_EventCombiner_EVTRegs__C)
                  8285750c    00000004     app_pe66.oe66 (.const:ti_sysbios_family_c64p_EventCombiner_E_unpluggedEvent__C)
                  82857510    00000004     app_pe66.oe66 (.const:ti_sysbios_family_c64p_EventCombiner_Module__diagsEnabled__C)
                  82857514    00000004     app_pe66.oe66 (.const:ti_sysbios_family_c64p_EventCombiner_Module__diagsIncluded__C)
                  82857518    00000004     app_pe66.oe66 (.const:ti_sysbios_family_c64p_EventCombiner_Module__diagsMask__C)
                  8285751c    00000004     app_pe66.oe66 (.const:ti_sysbios_family_c64p_Exception_E_exceptionMax__C)
                  82857520    00000004     app_pe66.oe66 (.const:ti_sysbios_family_c64p_Exception_exceptionHook__C)
                  82857524    00000004     app_pe66.oe66 (.const:ti_sysbios_family_c64p_Exception_externalHook__C)
                  82857528    00000004     app_pe66.oe66 (.const:ti_sysbios_family_c64p_Exception_internalHook__C)
                  8285752c    00000004     app_pe66.oe66 (.const:ti_sysbios_family_c64p_Exception_nmiHook__C)
                  82857530    00000004     app_pe66.oe66 (.const:ti_sysbios_family_c64p_Hwi_E_alreadyDefined__C)
                  82857534    00000004     app_pe66.oe66 (.const:ti_sysbios_family_c64p_Hwi_E_handleNotFound__C)
                  82857538    00000004     app_pe66.oe66 (.const:ti_sysbios_family_c64p_Hwi_E_invalidIntNum__C)
                  8285753c    00000004     app_pe66.oe66 (.const:ti_sysbios_family_c64p_Hwi_INTRMUX1Address__C)
                  82857540    00000004     app_pe66.oe66 (.const:ti_sysbios_family_c64p_Hwi_LD_end__C)
                  82857544    00000004     app_pe66.oe66 (.const:ti_sysbios_family_c64p_Hwi_LM_begin__C)
                  82857548    00000004     app_pe66.oe66 (.const:ti_sysbios_family_c64p_Hwi_Module__diagsEnabled__C)
                  8285754c    00000004     app_pe66.oe66 (.const:ti_sysbios_family_c64p_Hwi_Module__diagsIncluded__C)
                  82857550    00000004     app_pe66.oe66 (.const:ti_sysbios_family_c64p_Hwi_Module__diagsMask__C)
                  82857554    00000004     app_pe66.oe66 (.const:ti_sysbios_family_c64p_Hwi_Module__loggerFxn1__C)
                  82857558    00000004     app_pe66.oe66 (.const:ti_sysbios_family_c64p_Hwi_Module__loggerFxn8__C)
                  8285755c    00000004     app_pe66.oe66 (.const:ti_sysbios_family_c64p_Hwi_Module__loggerObj__C)
                  82857560    00000004     app_pe66.oe66 (.const:ti_sysbios_family_c66_Cache_E_invalidL1CacheSize__C)
                  82857564    00000004     app_pe66.oe66 (.const:ti_sysbios_family_c66_Cache_E_invalidL2CacheSize__C)
                  82857568    00000004     app_pe66.oe66 (.const:ti_sysbios_family_c66_Cache_atomicBlockSize__C)
                  8285756c    00000004     app_pe66.oe66 (.const:ti_sysbios_family_c66_tci66xx_CpIntc_E_unpluggedSysInt__C)
                  82857570    00000004     app_pe66.oe66 (.const:ti_sysbios_family_c66_tci66xx_CpIntc_eventId__C)
                  82857574    00000004     app_pe66.oe66 (.const:ti_sysbios_family_c66_tci66xx_CpIntc_hostIntToEventId__C)
                  82857578    00000004     app_pe66.oe66 (.const:ti_sysbios_family_c66_tci66xx_CpIntc_numEvents__C)
                  8285757c    00000004     app_pe66.oe66 (.const:ti_sysbios_family_c66_tci66xx_CpIntc_numStatusRegs__C)
                  82857580    00000004     app_pe66.oe66 (.const:ti_sysbios_family_c66_tci66xx_CpIntc_numSysInts__C)
                  82857584    00000004     app_pe66.oe66 (.const:ti_sysbios_family_c66_tci66xx_CpIntc_sysIntToHostInt__C)
                  82857588    00000004     app_pe66.oe66 (.const:ti_sysbios_gates_GateMutexPri_A_badContext__C)
                  8285758c    00000004     app_pe66.oe66 (.const:ti_sysbios_gates_GateMutexPri_A_enterTaskDisabled__C)
                  82857590    00000004     app_pe66.oe66 (.const:ti_sysbios_gates_GateMutexPri_Instance_State_pendQ__O)
                  82857594    00000004     app_pe66.oe66 (.const:ti_sysbios_gates_GateMutexPri_Module__diagsEnabled__C)
                  82857598    00000004     app_pe66.oe66 (.const:ti_sysbios_gates_GateMutexPri_Module__diagsIncluded__C)
                  8285759c    00000004     app_pe66.oe66 (.const:ti_sysbios_gates_GateMutexPri_Module__diagsMask__C)
                  828575a0    00000004     app_pe66.oe66 (.const:ti_sysbios_gates_GateMutex_A_badContext__C)
                  828575a4    00000004     app_pe66.oe66 (.const:ti_sysbios_gates_GateMutex_Instance_State_sem__O)
                  828575a8    00000004     app_pe66.oe66 (.const:ti_sysbios_gates_GateMutex_Module__diagsEnabled__C)
                  828575ac    00000004     app_pe66.oe66 (.const:ti_sysbios_gates_GateMutex_Module__diagsIncluded__C)
                  828575b0    00000004     app_pe66.oe66 (.const:ti_sysbios_gates_GateMutex_Module__diagsMask__C)
                  828575b4    00000004     app_pe66.oe66 (.const:ti_sysbios_gates_GateSwi_A_badContext__C)
                  828575b8    00000004     app_pe66.oe66 (.const:ti_sysbios_gates_GateSwi_Module__diagsEnabled__C)
                  828575bc    00000004     app_pe66.oe66 (.const:ti_sysbios_gates_GateSwi_Module__diagsIncluded__C)
                  828575c0    00000004     app_pe66.oe66 (.const:ti_sysbios_gates_GateSwi_Module__diagsMask__C)
                  828575c4    00000004     app_pe66.oe66 (.const:ti_sysbios_hal_Hwi_E_stackOverflow__C)
                  828575c8    00000004     app_pe66.oe66 (.const:ti_sysbios_heaps_HeapMem_A_align__C)
                  828575cc    00000004     app_pe66.oe66 (.const:ti_sysbios_heaps_HeapMem_A_heapSize__C)
                  828575d0    00000004     app_pe66.oe66 (.const:ti_sysbios_heaps_HeapMem_A_invalidFree__C)
                  828575d4    00000004     app_pe66.oe66 (.const:ti_sysbios_heaps_HeapMem_A_zeroBlock__C)
                  828575d8    00000004     app_pe66.oe66 (.const:ti_sysbios_heaps_HeapMem_E_memory__C)
                  828575dc    00000004     app_pe66.oe66 (.const:ti_sysbios_heaps_HeapMem_Module__diagsEnabled__C)
                  828575e0    00000004     app_pe66.oe66 (.const:ti_sysbios_heaps_HeapMem_Module__diagsIncluded__C)
                  828575e4    00000004     app_pe66.oe66 (.const:ti_sysbios_heaps_HeapMem_Module__diagsMask__C)
                  828575e8    00000004     app_pe66.oe66 (.const:ti_sysbios_heaps_HeapMem_Module__gateObj__C)
                  828575ec    00000004     app_pe66.oe66 (.const:ti_sysbios_heaps_HeapMem_Object__count__C)
                  828575f0    00000004     app_pe66.oe66 (.const:ti_sysbios_heaps_HeapMem_reqAlign__C)
                  828575f4    00000004     app_pe66.oe66 (.const:ti_sysbios_knl_Clock_LM_begin__C)
                  828575f8    00000004     app_pe66.oe66 (.const:ti_sysbios_knl_Clock_LM_tick__C)
                  828575fc    00000004     app_pe66.oe66 (.const:ti_sysbios_knl_Clock_LW_delayed__C)
                  82857600    00000004     app_pe66.oe66 (.const:ti_sysbios_knl_Clock_Module_State_clockQ__O)
                  82857604    00000004     app_pe66.oe66 (.const:ti_sysbios_knl_Clock_Module__diagsEnabled__C)
                  82857608    00000004     app_pe66.oe66 (.const:ti_sysbios_knl_Clock_Module__diagsIncluded__C)
                  8285760c    00000004     app_pe66.oe66 (.const:ti_sysbios_knl_Clock_Module__diagsMask__C)
                  82857610    00000004     app_pe66.oe66 (.const:ti_sysbios_knl_Clock_Module__loggerFxn1__C)
                  82857614    00000004     app_pe66.oe66 (.const:ti_sysbios_knl_Clock_Module__loggerFxn2__C)
                  82857618    00000004     app_pe66.oe66 (.const:ti_sysbios_knl_Clock_Module__loggerObj__C)
                  8285761c    00000004     app_pe66.oe66 (.const:ti_sysbios_knl_Clock_tickPeriod__C)
                  82857620    00000004     app_pe66.oe66 (.const:ti_sysbios_knl_Idle_funcList__A)
                  82857624    00000004     app_pe66.oe66 (.const:ti_sysbios_knl_Semaphore_A_badContext__C)
                  82857628    00000004     app_pe66.oe66 (.const:ti_sysbios_knl_Semaphore_A_noEvents__C)
                  8285762c    00000004     app_pe66.oe66 (.const:ti_sysbios_knl_Semaphore_A_overflow__C)
                  82857630    00000004     app_pe66.oe66 (.const:ti_sysbios_knl_Semaphore_A_pendTaskDisabled__C)
                  82857634    00000004     app_pe66.oe66 (.const:ti_sysbios_knl_Semaphore_Instance_State_pendQ__O)
                  82857638    00000004     app_pe66.oe66 (.const:ti_sysbios_knl_Semaphore_LM_pend__C)
                  8285763c    00000004     app_pe66.oe66 (.const:ti_sysbios_knl_Semaphore_LM_post__C)
                  82857640    00000004     app_pe66.oe66 (.const:ti_sysbios_knl_Semaphore_Module__diagsEnabled__C)
                  82857644    00000004     app_pe66.oe66 (.const:ti_sysbios_knl_Semaphore_Module__diagsIncluded__C)
                  82857648    00000004     app_pe66.oe66 (.const:ti_sysbios_knl_Semaphore_Module__diagsMask__C)
                  8285764c    00000004     app_pe66.oe66 (.const:ti_sysbios_knl_Semaphore_Module__loggerFxn2__C)
                  82857650    00000004     app_pe66.oe66 (.const:ti_sysbios_knl_Semaphore_Module__loggerFxn4__C)
                  82857654    00000004     app_pe66.oe66 (.const:ti_sysbios_knl_Semaphore_Module__loggerObj__C)
                  82857658    00000004     app_pe66.oe66 (.const:ti_sysbios_knl_Swi_A_badPriority__C)
                  8285765c    00000004     app_pe66.oe66 (.const:ti_sysbios_knl_Swi_LD_end__C)
                  82857660    00000004     app_pe66.oe66 (.const:ti_sysbios_knl_Swi_LM_begin__C)
                  82857664    00000004     app_pe66.oe66 (.const:ti_sysbios_knl_Swi_LM_post__C)
                  82857668    00000004     app_pe66.oe66 (.const:ti_sysbios_knl_Swi_Module__diagsEnabled__C)
                  8285766c    00000004     app_pe66.oe66 (.const:ti_sysbios_knl_Swi_Module__diagsIncluded__C)
                  82857670    00000004     app_pe66.oe66 (.const:ti_sysbios_knl_Swi_Module__diagsMask__C)
                  82857674    00000004     app_pe66.oe66 (.const:ti_sysbios_knl_Swi_Module__loggerFxn1__C)
                  82857678    00000004     app_pe66.oe66 (.const:ti_sysbios_knl_Swi_Module__loggerFxn4__C)
                  8285767c    00000004     app_pe66.oe66 (.const:ti_sysbios_knl_Swi_Module__loggerObj__C)
                  82857680    00000004     app_pe66.oe66 (.const:ti_sysbios_knl_Swi_Object__count__C)
                  82857684    00000004     app_pe66.oe66 (.const:ti_sysbios_knl_Task_A_badPriority__C)
                  82857688    00000004     app_pe66.oe66 (.const:ti_sysbios_knl_Task_A_badTaskState__C)
                  8285768c    00000004     app_pe66.oe66 (.const:ti_sysbios_knl_Task_A_badThreadType__C)
                  82857690    00000004     app_pe66.oe66 (.const:ti_sysbios_knl_Task_A_badTimeout__C)
                  82857694    00000004     app_pe66.oe66 (.const:ti_sysbios_knl_Task_A_noPendElem__C)
                  82857698    00000004     app_pe66.oe66 (.const:ti_sysbios_knl_Task_A_sleepTaskDisabled__C)
                  8285769c    00000004     app_pe66.oe66 (.const:ti_sysbios_knl_Task_E_spOutOfBounds__C)
                  828576a0    00000004     app_pe66.oe66 (.const:ti_sysbios_knl_Task_E_stackOverflow__C)
                  828576a4    00000004     app_pe66.oe66 (.const:ti_sysbios_knl_Task_LD_block__C)
                  828576a8    00000004     app_pe66.oe66 (.const:ti_sysbios_knl_Task_LD_exit__C)
                  828576ac    00000004     app_pe66.oe66 (.const:ti_sysbios_knl_Task_LD_ready__C)
                  828576b0    00000004     app_pe66.oe66 (.const:ti_sysbios_knl_Task_LM_setPri__C)
                  828576b4    00000004     app_pe66.oe66 (.const:ti_sysbios_knl_Task_LM_sleep__C)
                  828576b8    00000004     app_pe66.oe66 (.const:ti_sysbios_knl_Task_LM_switch__C)
                  828576bc    00000004     app_pe66.oe66 (.const:ti_sysbios_knl_Task_Module_State_inactiveQ__O)
                  828576c0    00000004     app_pe66.oe66 (.const:ti_sysbios_knl_Task_Module__diagsEnabled__C)
                  828576c4    00000004     app_pe66.oe66 (.const:ti_sysbios_knl_Task_Module__diagsIncluded__C)
                  828576c8    00000004     app_pe66.oe66 (.const:ti_sysbios_knl_Task_Module__diagsMask__C)
                  828576cc    00000004     app_pe66.oe66 (.const:ti_sysbios_knl_Task_Module__loggerFxn2__C)
                  828576d0    00000004     app_pe66.oe66 (.const:ti_sysbios_knl_Task_Module__loggerFxn4__C)
                  828576d4    00000004     app_pe66.oe66 (.const:ti_sysbios_knl_Task_Module__loggerObj__C)
                  828576d8    00000004     app_pe66.oe66 (.const:ti_sysbios_knl_Task_Object__count__C)
                  828576dc    00000004     app_pe66.oe66 (.const:ti_sysbios_knl_Task_allBlockedFunc__C)
                  828576e0    00000004     app_pe66.oe66 (.const:ti_sysbios_knl_Task_defaultStackHeap__C)
                  828576e4    00000004     app_pe66.oe66 (.const:ti_sysbios_knl_Task_defaultStackSize__C)
                  828576e8    00000004     app_pe66.oe66 (.const:ti_sysbios_knl_Task_numConstructedTasks__C)
                  828576ec    00000004     app_pe66.oe66 (.const:ti_sysbios_syncs_SyncSem_Module__diagsEnabled__C)
                  828576f0    00000004     app_pe66.oe66 (.const:ti_sysbios_syncs_SyncSem_Module__diagsIncluded__C)
                  828576f4    00000004     app_pe66.oe66 (.const:ti_sysbios_syncs_SyncSem_Module__diagsMask__C)
                  828576f8    00000004     app_pe66.oe66 (.const:ti_sysbios_timers_timer64_Timer_A_notAvailable__C)
                  828576fc    00000004     app_pe66.oe66 (.const:ti_sysbios_timers_timer64_Timer_E_cannotSupport__C)
                  82857700    00000004     app_pe66.oe66 (.const:ti_sysbios_timers_timer64_Timer_Module__diagsEnabled__C)
                  82857704    00000004     app_pe66.oe66 (.const:ti_sysbios_timers_timer64_Timer_Module__diagsIncluded__C)
                  82857708    00000004     app_pe66.oe66 (.const:ti_sysbios_timers_timer64_Timer_Module__diagsMask__C)
                  8285770c    00000004     app_pe66.oe66 (.const:ti_sysbios_timers_timer64_Timer_anyMaskHigh__C)
                  82857710    00000004     app_pe66.oe66 (.const:ti_sysbios_timers_timer64_Timer_anyMask__C)
                  82857714    00000004     app_pe66.oe66 (.const:ti_sysbios_timers_timer64_Timer_freqDivisor__C)
                  82857718    00000004     app_pe66.oe66 (.const:ti_sysbios_timers_timer64_Timer_numLocalTimers__C)
                  8285771c    00000004     app_pe66.oe66 (.const:ti_sysbios_timers_timer64_Timer_numTimerDevices__C)
                  82857720    00000004     app_pe66.oe66 (.const:ti_sysbios_xdcruntime_GateThreadSupport_Instance_State_gate__O)
                  82857724    00000004     app_pe66.oe66 (.const:xdc_runtime_Assert_E_assertFailed__C)
                  82857728    00000004     app_pe66.oe66 (.const:xdc_runtime_Core_A_initializedParams__C)
                  8285772c    00000004     app_pe66.oe66 (.const:xdc_runtime_Core_Module__diagsEnabled__C)
                  82857730    00000004     app_pe66.oe66 (.const:xdc_runtime_Core_Module__diagsIncluded__C)
                  82857734    00000004     app_pe66.oe66 (.const:xdc_runtime_Core_Module__diagsMask__C)
                  82857738    00000004     app_pe66.oe66 (.const:xdc_runtime_Error_E_memory__C)
                  8285773c    00000004     app_pe66.oe66 (.const:xdc_runtime_Error_Module__diagsEnabled__C)
                  82857740    00000004     app_pe66.oe66 (.const:xdc_runtime_Error_Module__diagsIncluded__C)
                  82857744    00000004     app_pe66.oe66 (.const:xdc_runtime_Error_Module__diagsMask__C)
                  82857748    00000004     app_pe66.oe66 (.const:xdc_runtime_Error_Module__loggerFxn8__C)
                  8285774c    00000004     app_pe66.oe66 (.const:xdc_runtime_Error_Module__loggerObj__C)
                  82857750    00000004     app_pe66.oe66 (.const:xdc_runtime_Error_policyFxn__C)
                  82857754    00000004     app_pe66.oe66 (.const:xdc_runtime_Error_policy__C)
                  82857758    00000004     app_pe66.oe66 (.const:xdc_runtime_Error_raiseHook__C)
                  8285775c    00000004     app_pe66.oe66 (.const:xdc_runtime_IFilterLogger_Interface__BASE__C)
                  82857760    00000004     app_pe66.oe66 (.const:xdc_runtime_IGateProvider_Interface__BASE__C)
                  82857764    00000004     app_pe66.oe66 (.const:xdc_runtime_IHeap_Interface__BASE__C)
                  82857768    00000004     app_pe66.oe66 (.const:xdc_runtime_ILogger_Interface__BASE__C)
                  8285776c    00000004     app_pe66.oe66 (.const:xdc_runtime_IModule_Interface__BASE__C)
                  82857770    00000004     app_pe66.oe66 (.const:xdc_runtime_Log_L_error__C)
                  82857774    00000004     app_pe66.oe66 (.const:xdc_runtime_LoggerBuf_E_badLevel__C)
                  82857778    00000004     app_pe66.oe66 (.const:xdc_runtime_LoggerBuf_Module__gateObj__C)
                  8285777c    00000004     app_pe66.oe66 (.const:xdc_runtime_LoggerBuf_Object__count__C)
                  82857780    00000004     app_pe66.oe66 (.const:xdc_runtime_LoggerBuf_statusLogger__C)
                  82857784    00000004     app_pe66.oe66 (.const:xdc_runtime_Memory_defaultHeapInstance__C)
                  82857788    00000004     app_pe66.oe66 (.const:xdc_runtime_Startup_execImpl__C)
                  8285778c    00000004     app_pe66.oe66 (.const:xdc_runtime_Startup_maxPasses__C)
                  82857790    00000004     app_pe66.oe66 (.const:xdc_runtime_Startup_sfxnRts__C)
                  82857794    00000004     app_pe66.oe66 (.const:xdc_runtime_Startup_sfxnTab__C)
                  82857798    00000004     app_pe66.oe66 (.const:xdc_runtime_SysMin_bufSize__C)
                  8285779c    00000004     app_pe66.oe66 (.const:xdc_runtime_SysMin_outputFunc__C)
                  828577a0    00000004     app_pe66.oe66 (.const:xdc_runtime_System_Module__gateObj__C)
                  828577a4    00000004     app_pe66.oe66 (.const:xdc_runtime_System_abortFxn__C)
                  828577a8    00000004     app_pe66.oe66 (.const:xdc_runtime_System_exitFxn__C)
                  828577ac    00000004     app_pe66.oe66 (.const:xdc_runtime_System_extendFxn__C)
                  828577b0    00000004     app_pe66.oe66 (.const:xdc_runtime_System_maxAtexitHandlers__C)
                  828577b4    00000004     app_pe66.oe66 (.const:xdc_runtime_Text_charTab__C)
                  828577b8    00000004     app_pe66.oe66 (.const:xdc_runtime_Text_nameEmpty__C)
                  828577bc    00000004     app_pe66.oe66 (.const:xdc_runtime_Text_nameStatic__C)
                  828577c0    00000004     app_pe66.oe66 (.const:xdc_runtime_Text_nameUnknown__C)
                  828577c4    00000004     app_pe66.oe66 (.const:xdc_runtime_Text_nodeTab__C)
                  828577c8    00000004     app_pe66.oe66 (.const:xdc_runtime_Text_visitRopeFxn__C)
                  828577cc    00000004     app_pe66.oe66 (.const:xdc_runtime_knl_ISync_Interface__BASE__C)
                  828577d0    00000002     app_pe66.oe66 (.const:ti_sdo_ipc_SharedRegion_Module__id__C)
                  828577d2    00000002     app_pe66.oe66 (.const:ti_sdo_ipc_SharedRegion_numEntries__C)
                  828577d4    00000002     app_pe66.oe66 (.const:ti_sdo_ipc_SharedRegion_translate__C)
                  828577d6    00000002     app_pe66.oe66 (.const:ti_sdo_ipc_gates_GateHWSem_Module__id__C)
                  828577d8    00000002     app_pe66.oe66 (.const:ti_sdo_ipc_gates_GateMPSupportNull_Module__id__C)
                  828577da    00000002     app_pe66.oe66 (.const:ti_sdo_ipc_gates_GatePeterson_Module__id__C)
                  828577dc    00000002     app_pe66.oe66 (.const:ti_sdo_ipc_heaps_HeapMemMP_Module__id__C)
                  828577de    00000002     app_pe66.oe66 (.const:ti_sdo_ipc_nsremote_NameServerRemoteNotify_Module__id__C)
                  828577e0    00000002     app_pe66.oe66 (.const:ti_sdo_ipc_transports_TransportShm_Module__id__C)
                  828577e2    00000002     app_pe66.oe66 (.const:ti_sdo_ipc_transports_TransportShm_notifyEventId__C)
                  828577e4    00000002     app_pe66.oe66 (.const:ti_sdo_utils_MultiProc_numProcessors__C)
                  828577e6    00000002     app_pe66.oe66 (.const:ti_sdo_utils_MultiProc_numProcsInCluster__C)
                  828577e8    00000002     app_pe66.oe66 (.const:ti_sdo_utils_NameServer_Module__id__C)
                  828577ea    00000002     app_pe66.oe66 (.const:ti_sysbios_family_c64p_EventCombiner_Module__id__C)
                  828577ec    00000002     app_pe66.oe66 (.const:ti_sysbios_family_c64p_Exception_Module__id__C)
                  828577ee    00000002     app_pe66.oe66 (.const:ti_sysbios_family_c64p_Exception_useInternalBuffer__C)
                  828577f0    00000002     app_pe66.oe66 (.const:ti_sysbios_family_c64p_Hwi_Module__id__C)
                  828577f2    00000002     app_pe66.oe66 (.const:ti_sysbios_family_c64p_Hwi_Module__loggerDefined__C)
                  828577f4    00000002     app_pe66.oe66 (.const:ti_sysbios_family_c66_Cache_Module__id__C)
                  828577f6    00000002     app_pe66.oe66 (.const:ti_sysbios_family_c66_Cache_registerRTSSynch__C)
                  828577f8    00000002     app_pe66.oe66 (.const:ti_sysbios_family_c66_tci66xx_CpIntc_Module__id__C)
                  828577fa    00000002     app_pe66.oe66 (.const:ti_sysbios_gates_GateMutexPri_Module__id__C)
                  828577fc    00000002     app_pe66.oe66 (.const:ti_sysbios_gates_GateMutex_Module__id__C)
                  828577fe    00000002     app_pe66.oe66 (.const:ti_sysbios_gates_GateSwi_Module__id__C)
                  82857800    00000002     app_pe66.oe66 (.const:ti_sysbios_hal_Hwi_Module__id__C)
                  82857802    00000002     app_pe66.oe66 (.const:ti_sysbios_heaps_HeapMem_Module__id__C)
                  82857804    00000002     app_pe66.oe66 (.const:ti_sysbios_knl_Clock_Module__id__C)
                  82857806    00000002     app_pe66.oe66 (.const:ti_sysbios_knl_Clock_Module__loggerDefined__C)
                  82857808    00000002     app_pe66.oe66 (.const:ti_sysbios_knl_Semaphore_Module__id__C)
                  8285780a    00000002     app_pe66.oe66 (.const:ti_sysbios_knl_Semaphore_Module__loggerDefined__C)
                  8285780c    00000002     app_pe66.oe66 (.const:ti_sysbios_knl_Swi_Module__id__C)
                  8285780e    00000002     app_pe66.oe66 (.const:ti_sysbios_knl_Swi_Module__loggerDefined__C)
                  82857810    00000002     app_pe66.oe66 (.const:ti_sysbios_knl_Task_Module__id__C)
                  82857812    00000002     app_pe66.oe66 (.const:ti_sysbios_knl_Task_Module__loggerDefined__C)
                  82857814    00000002     app_pe66.oe66 (.const:ti_sysbios_syncs_SyncSem_Module__id__C)
                  82857816    00000002     app_pe66.oe66 (.const:ti_sysbios_timers_timer64_Timer_Module__id__C)
                  82857818    00000002     app_pe66.oe66 (.const:ti_sysbios_timers_timer64_Timer_startupNeeded__C)
                  8285781a    00000002     app_pe66.oe66 (.const:ti_sysbios_timers_timer64_Timer_useTimer64pRegMap__C)
                  8285781c    00000002     app_pe66.oe66 (.const:xdc_runtime_Core_Module__id__C)
                  8285781e    00000002     app_pe66.oe66 (.const:xdc_runtime_Error_Module__loggerDefined__C)
                  82857820    00000002     app_pe66.oe66 (.const:xdc_runtime_Error_maxDepth__C)
                  82857822    00000002     app_pe66.oe66 (.const:xdc_runtime_LoggerBuf_Module__id__C)
                  82857824    00000002     app_pe66.oe66 (.const:xdc_runtime_LoggerBuf_filterByLevel__C)
                  82857826    00000002     app_pe66.oe66 (.const:xdc_runtime_Main_Module__id__C)
                  82857828    00000002     app_pe66.oe66 (.const:xdc_runtime_Memory_Module__id__C)
                  8285782a    00000002     app_pe66.oe66 (.const:xdc_runtime_SysMin_flushAtExit__C)
                  8285782c    00000002     app_pe66.oe66 (.const:xdc_runtime_Text_charCnt__C)
                  8285782e    00000002     app_pe66.oe66 (.const:xdc_runtime_Text_isLoaded__C)
                  82857830    00000002     app_pe66.oe66 (.const:xdc_runtime_Text_registryModsLastId__C)
                  82857832    00000002     app_pe66.oe66 (.const:xdc_runtime_Text_unnamedModsLastId__C)

.fardata   0    82857840    0000442a     UNINITIALIZED
                  82857840    00000b40     ti.osal.ae66 : SemaphoreP_tirtos.oe66 (.fardata:gOsalSemPTiRtosPool$0)
                  82858380    000009d8     cppi_device.obj (.fardata:cppiGblCPDMACfgParams)
                  82858d58    00000800     app_pe66.oe66 (.fardata:ti_sdo_ipc_GateMP_Module_State_0_remoteCustom1Gates__A)
                  82859558    00000500     ti.osal.ae66 : HwiP_tirtos.oe66 (.fardata:gOsalHwiPTiRtosPool$0)
                  82859a58    00000500     app_pe66.oe66 (.fardata:ti_sysbios_family_c66_tci66xx_CpIntc_Module_State_0_dispatchTab__A)
                  82859f58    00000024     app_pe66.oe66 (.fardata:ti_sysbios_BIOS_Module__state__V)
                  82859f7c    00000004     rts6600_elf.lib : _lock.c.obj (.fardata:_lock)
                  82859f80    00000400     main.obj (.fardata:data)
                  8285a380    00000400     app_pe66.oe66 (.fardata:ti_sysbios_family_c64p_EventCombiner_Module__state__V)
                  8285a780    000002d0     qmss_device.obj (.fardata:qmssGblCfgParams)
                  8285aa50    000001e0     rts6600_elf.lib : defs.c.obj (.fardata:_ftable)
                  8285ac30    0000018c     qmss_device.obj (.fardata:GlobalQmGroup0)
                  8285adbc    00000004     rts6600_elf.lib : _lock.c.obj (.fardata:_unlock)
                  8285adc0    00000180     app_pe66.oe66 (.fardata:ti_sysbios_timers_timer64_Timer_Module_State_0_device__A)
                  8285af40    000000f0     app_pe66.oe66 (.fardata:ti_sdo_utils_NameServer_Object__table__V)
                  8285b030    000000a8     ti.drv.uart.ae66 : UART_soc.oe66 (.fardata:uartInitCfg)
                  8285b0d8    000000a0     rts6600_elf.lib : write.c.obj (.fardata:_stream)
                  8285b178    00000098     app_pe66.oe66 (.fardata:ti_sysbios_family_c66_tci66xx_CpIntc_Module_State_0_hostIntToSysInt__A)
                  8285b210    00000090     app_pe66.oe66 (.fardata:ti_sdo_ipc_SharedRegion_Module_State_0_regions__A)
                  8285b2a0    00000080     app_pe66.oe66 (.fardata:ti_sdo_ipc_GateMP_Module_State_0_remoteSystemGates__A)
                  8285b320    00000080     app_pe66.oe66 (.fardata:ti_sysbios_knl_Swi_Module_State_0_readyQ__A)
                  8285b3a0    00000080     app_pe66.oe66 (.fardata:ti_sysbios_knl_Task_Module_State_0_readyQ__A)
                  8285b420    00000080     app_pe66.oe66 (.fardata:ti_sysbios_timers_timer64_Timer_Module_State_0_gctrl__A)
                  8285b4a0    00000080     app_pe66.oe66 (.fardata:ti_sysbios_timers_timer64_Timer_Module_State_0_handles__A)
                  8285b520    00000080     app_pe66.oe66 (.fardata:ti_sysbios_timers_timer64_Timer_Module_State_0_intFreqs__A)
                  8285b5a0    00000078     rts6600_elf.lib : write.c.obj (.fardata:_device)
                  8285b618    0000006c     app_pe66.oe66 (.fardata:ti_sysbios_family_c64p_Hwi_Module__state__V)
                  8285b684    00000068     app_pe66.oe66 (.fardata:ti_sdo_ipc_MessageQ_Module__state__V)
                  8285b6ec    00000004     rts6600_elf.lib : defs.c.obj (.fardata)
                  8285b6f0    0000005c     app_pe66.oe66 (.fardata:ti_sysbios_knl_Task_Object__table__V)
                  8285b74c    00000050     app_pe66.oe66 (.fardata:ti_sdo_ipc_GateMP_Module__state__V)
                  8285b79c    00000004     rts6600_elf.lib : errno.c.obj (.fardata)
                  8285b7a0    00000050     app_pe66.oe66 (.fardata:ti_sysbios_timers_timer64_Timer_Object__table__V)
                  8285b7f0    00000048     app_pe66.oe66 (.fardata:ti_sysbios_knl_Task_Module__state__V)
                  8285b838    00000040     app_pe66.oe66 (.fardata:ti_sysbios_gates_GateMutex_Object__table__V)
                  8285b878    00000030     ti.osal.ae66 : Utils_tirtos.oe66 (.fardata:gOsal_HwAttrs)
                  8285b8a8    00000030     app_pe66.oe66 (.fardata:ti_sysbios_family_c64p_Exception_Module__state__V)
                  8285b8d8    00000030     app_pe66.oe66 (.fardata:ti_sysbios_knl_Swi_Object__table__V)
                  8285b908    0000002c     app_pe66.oe66 (.fardata:ti_sysbios_knl_Clock_Module__state__V)
                  8285b934    00000004     app_pe66.oe66 (.fardata:ti_sdo_ipc_ListMP_Module__state__V)
                  8285b938    00000024     app_pe66.oe66 (.fardata:xdc_runtime_LoggerBuf_Object__table__V)
                  8285b95c    00000004     app_pe66.oe66 (.fardata:ti_sdo_ipc_SharedRegion_Module__state__V)
                  8285b960    00000020     app_pe66.oe66 (.fardata:ti_sdo_ipc_MessageQ_Module_State_0_heaps__A)
                  8285b980    00000020     app_pe66.oe66 (.fardata:xdc_runtime_Error_IgnoreBlock)
                  8285b9a0    0000001c     app_pe66.oe66 (.fardata:ti_sysbios_knl_Swi_Module__state__V)
                  8285b9bc    00000004     app_pe66.oe66 (.fardata:ti_sdo_ipc_heaps_HeapMemMP_Module__state__V)
                  8285b9c0    00000018     app_pe66.oe66 (.fardata:ti_sysbios_family_c64p_Hwi_Object__table__V)
                  8285b9d8    00000018     app_pe66.oe66 (.fardata:ti_sysbios_gates_GateMutexPri_Object__table__V)
                  8285b9f0    00000018     app_pe66.oe66 (.fardata:ti_sysbios_heaps_HeapMem_Object__table__V)
                  8285ba08    00000018     app_pe66.oe66 (.fardata:ti_sysbios_timers_timer64_Timer_Module__state__V)
                  8285ba20    00000014     cppi_device.obj (.fardata:cppiGblCfgParams)
                  8285ba34    00000014     ti.drv.cppi.ae66 : cppi_drv.oe66 (.fardata:cppiLObj)
                  8285ba48    00000014     app_pe66.oe66 (.fardata:ti_sdo_ipc_Ipc_Module_State_0_procEntry__A)
                  8285ba5c    00000004     app_pe66.oe66 (.fardata:ti_sdo_ipc_transports_TransportShmSetup_Module__state__V)
                  8285ba60    00000014     app_pe66.oe66 (.fardata:ti_sysbios_family_c66_tci66xx_CpIntc_Module_State_0_initSIER__A)
                  8285ba74    00000004     app_pe66.oe66 (.fardata:xdc_runtime_Memory_Module__state__V)
                  8285ba78    00000010     ti.csl.ae66 : csl_cpsgmii.oe66 (.fardata:cpsgmiiPortBaseAddr)
                  8285ba88    00000010     app_pe66.oe66 (.fardata:ti_sysbios_family_c66_tci66xx_CpIntc_Module_State_0_controller__A)
                  8285ba98    00000010     app_pe66.oe66 (.fardata:ti_sysbios_family_c66_tci66xx_CpIntc_Module__state__V)
                  8285baa8    00000010     app_pe66.oe66 (.fardata:ti_sysbios_gates_GateAll_Object__table__V)
                  8285bab8    00000010     app_pe66.oe66 (.fardata:xdc_runtime_System_Module_State_0_atexitHandlers__A)
                  8285bac8    0000000c     rts6600_elf.lib : exit.c.obj (.fardata)
                  8285bad4    0000000c     app_pe66.oe66 (.fardata:ti_sdo_ipc_Ipc_Module__state__V)
                  8285bae0    0000000c     app_pe66.oe66 (.fardata:ti_sdo_utils_NameServer_Module__state__V)
                  8285baec    00000002     app_pe66.oe66 (.fardata:xdc_runtime_Error_Module__state__V)
                  8285baee    00000002     --HOLE--
                  8285baf0    0000000c     app_pe66.oe66 (.fardata:ti_sysbios_gates_GateSwi_Object__table__V)
                  8285bafc    0000000c     app_pe66.oe66 (.fardata:xdc_runtime_SysMin_Module__state__V)
                  8285bb08    00000008     app_pe66.oe66 (.fardata:ti_sdo_ipc_GateMP_Module__root__V)
                  8285bb10    00000008     app_pe66.oe66 (.fardata:ti_sdo_ipc_ListMP_Module__root__V)
                  8285bb18    00000008     app_pe66.oe66 (.fardata:ti_sdo_ipc_MessageQ_Module_State_0_transports__A)
                  8285bb20    00000008     app_pe66.oe66 (.fardata:ti_sdo_ipc_MessageQ_Module__root__V)
                  8285bb28    00000008     app_pe66.oe66 (.fardata:ti_sdo_ipc_Notify_Module__root__V)
                  8285bb30    00000008     app_pe66.oe66 (.fardata:ti_sdo_ipc_Notify_Module__state__V)
                  8285bb38    00000008     app_pe66.oe66 (.fardata:ti_sdo_ipc_gates_GateHWSem_Module__root__V)
                  8285bb40    00000008     app_pe66.oe66 (.fardata:ti_sdo_ipc_gates_GateMPSupportNull_Module__root__V)
                  8285bb48    00000008     app_pe66.oe66 (.fardata:ti_sdo_ipc_gates_GatePeterson_Module__root__V)
                  8285bb50    00000008     app_pe66.oe66 (.fardata:ti_sdo_ipc_heaps_HeapMemMP_Module__root__V)
                  8285bb58    00000008     app_pe66.oe66 (.fardata:ti_sdo_ipc_nsremote_NameServerRemoteNotify_Module__root__V)
                  8285bb60    00000008     app_pe66.oe66 (.fardata:ti_sdo_ipc_transports_TransportShm_Module__root__V)
                  8285bb68    00000008     app_pe66.oe66 (.fardata:ti_sdo_utils_List_Module__root__V)
                  8285bb70    00000008     app_pe66.oe66 (.fardata:ti_sdo_utils_MultiProc_Module__state__V)
                  8285bb78    00000008     app_pe66.oe66 (.fardata:ti_sdo_utils_NameServer_Module__root__V)
                  8285bb80    00000008     app_pe66.oe66 (.fardata:ti_sysbios_family_c64p_Hwi_Module__root__V)
                  8285bb88    00000008     app_pe66.oe66 (.fardata:ti_sysbios_gates_GateAll_Module__root__V)
                  8285bb90    00000008     app_pe66.oe66 (.fardata:ti_sysbios_gates_GateHwi_Module__root__V)
                  8285bb98    00000008     app_pe66.oe66 (.fardata:ti_sysbios_gates_GateMutexPri_Module__root__V)
                  8285bba0    00000008     app_pe66.oe66 (.fardata:ti_sysbios_gates_GateMutex_Module__root__V)
                  8285bba8    00000008     app_pe66.oe66 (.fardata:ti_sysbios_gates_GateSwi_Module__root__V)
                  8285bbb0    00000008     app_pe66.oe66 (.fardata:ti_sysbios_hal_Hwi_Object__table__V)
                  8285bbb8    00000008     app_pe66.oe66 (.fardata:ti_sysbios_heaps_HeapMem_Module__root__V)
                  8285bbc0    00000008     app_pe66.oe66 (.fardata:ti_sysbios_knl_Queue_Module__root__V)
                  8285bbc8    00000008     app_pe66.oe66 (.fardata:ti_sysbios_knl_Semaphore_Module__root__V)
                  8285bbd0    00000008     app_pe66.oe66 (.fardata:ti_sysbios_knl_Swi_Module__root__V)
                  8285bbd8    00000008     app_pe66.oe66 (.fardata:ti_sysbios_knl_Task_Module__root__V)
                  8285bbe0    00000008     app_pe66.oe66 (.fardata:ti_sysbios_syncs_SyncSem_Module__root__V)
                  8285bbe8    00000008     app_pe66.oe66 (.fardata:ti_sysbios_xdcruntime_GateThreadSupport_Module__root__V)
                  8285bbf0    00000008     ti.drv.uart.ae66 : UART_stdio.oe66 (.fardata:uart_stdio)
                  8285bbf8    00000008     app_pe66.oe66 (.fardata:xdc_runtime_GateNull_Module__root__V)
                  8285bc00    00000008     app_pe66.oe66 (.fardata:xdc_runtime_LoggerBuf_Module__root__V)
                  8285bc08    00000008     app_pe66.oe66 (.fardata:xdc_runtime_Registry_Module__state__V)
                  8285bc10    00000008     app_pe66.oe66 (.fardata:xdc_runtime_Startup_Module__state__V)
                  8285bc18    00000008     app_pe66.oe66 (.fardata:xdc_runtime_System_Module__state__V)
                  8285bc20    00000008     app_pe66.oe66 (.fardata:xdc_runtime_knl_GateThread_Module__root__V)
                  8285bc28    00000006     app_pe66.oe66 (.fardata:xdc_runtime_LoggerBuf_Module__state__V)
                  8285bc2e    00000002     --HOLE--
                  8285bc30    00000004     app_pe66.oe66 (.fardata:ti_sdo_ipc_Notify_Module_State_0_notifyHandles_0__A)
                  8285bc34    00000004     --HOLE--
                  8285bc38    00000004     app_pe66.oe66 (.fardata:ti_sdo_ipc_Notify_Module_State_0_notifyHandles__A)
                  8285bc3c    00000004     --HOLE--
                  8285bc40    00000004     app_pe66.oe66 (.fardata:ti_sdo_ipc_transports_TransportShmSetup_Module_State_0_handles__A)
                  8285bc44    00000004     --HOLE--
                  8285bc48    00000004     app_pe66.oe66 (.fardata:ti_sdo_utils_NameServer_Module_State_0_nsRemoteHandle__A)
                  8285bc4c    00000004     --HOLE--
                  8285bc50    00000004     app_pe66.oe66 (.fardata:ti_sysbios_gates_GateHwi_Object__table__V)
                  8285bc54    00000004     --HOLE--
                  8285bc58    00000004     app_pe66.oe66 (.fardata:ti_sysbios_knl_Task_Module_State_0_idleTask__A)
                  8285bc5c    00000004     --HOLE--
                  8285bc60    00000004     app_pe66.oe66 (.fardata:xdc_runtime_GateNull_Object__table__V)
                  8285bc64    00000004     --HOLE--
                  8285bc68    00000002     app_pe66.oe66 (.fardata:ti_sdo_utils_MultiProc_Module_State_0_clusterProcList__A)

.switch    0    8285bc6c    00000188     
                  8285bc6c    00000080     ti.csl.ae66 : csl_chip.oe66 (.switch:CSL_chipReadReg)
                  8285bcec    00000038     rts6600_elf.lib : _printfi.c.obj (.switch:__TI_printfi)
                  8285bd24    00000028     srio_laneconfig.obj (.switch:setSrioLanes)
                  8285bd4c    00000024     ti.drv.uart.ae66 : UART_stdio.oe66 (.switch:UART_printf)
                  8285bd70    0000001c     ti.platform.evm6678l.ae66 : platform.obj (.switch:platform_internal_memory_test)
                  8285bd8c    00000014     ti.drv.uart.ae66 : UART_v0.oe66 (.switch:UART_open_v0$0)
                  8285bda0    00000014     srio_laneconfig.obj (.switch:waitAllSrioPortsOperational)
                  8285bdb4    00000010     srio_init.obj (.switch:CSL_SRIO_SetPBMPortIngressPriorityWatermark)
                  8285bdc4    00000010     srio_laneconfig.obj (.switch:getPllValue)
                  8285bdd4    00000010     srio_laneconfig.obj (.switch:setEnableSrioPllRxTx)
                  8285bde4    00000010     ipc.ae66 : Ipc.obj (.switch:ti_sdo_ipc_GateMP_Instance_finalize__E)

.cio       0    8285bdf8    00000120     UNINITIALIZED
                  8285bdf8    00000120     rts6600_elf.lib : trgmsg.c.obj (.cio)

MODULE SUMMARY

       Module                        code     ro data   rw data
       ------                        ----     -------   -------
    .\
       main.obj                      992      146       1044   
       platform_osal_function.obj    192      0         0      
    +--+-----------------------------+--------+---------+---------+
       Total:                        1184     146       1044   
                                                               
    .\common\
       common.obj                    64       0         0      
    +--+-----------------------------+--------+---------+---------+
       Total:                        64       0         0      
                                                               
    .\driver-interface\
       bb_interface.obj              1568     0         16     
       uart_mutex.obj                672      0         0      
    +--+-----------------------------+--------+---------+---------+
       Total:                        2240     0         16     
                                                               
    .\init\
       qmss_init.obj                 3232     660       24652  
       srio_init.obj                 9952     288       48     
       srio_laneconfig.obj           3296     372       0      
       srio_osal.obj                 2336     0         252    
       cppi_device.obj               0        0         2540   
       qmss_osal.obj                 1728     0         24     
       qmss_device.obj               0        0         1116   
       init.obj                      128      36        0      
    +--+-----------------------------+--------+---------+---------+
       Total:                        20672    1356      28632  
                                                               
    D:\pxqwork\project\5G-DSP\5G_basic_platform_master\Debug\configPkg\package\cfg\
       app_pe66.oe66                 13408    17835     84334  
    +--+-----------------------------+--------+---------+---------+
       Total:                        13408    17835     84334  
                                                               
    C:\ti\ccs901\ccs\tools\compiler\ti-cgt-c6000_8.3.2\lib\rts6600_elf.lib
       _printfi.c.obj                13440    92        0      
       divd.c.obj                    1536     0         0      
       defs.c.obj                    0        0         804    
       fputs.c.obj                   800      0         0      
       imath64.c.obj                 672      0         0      
       trgmsg.c.obj                  224      0         288    
       fputc.c.obj                   448      0         0      
       getdevice.c.obj               448      0         0      
       imath40.c.obj                 448      0         0      
       setvbuf.c.obj                 448      0         0      
       frexp.c.obj                   416      0         0      
       hostrename.c.obj              416      0         0      
       s_scalbn.c.obj                416      0         0      
       write.c.obj                   96       0         280    
       snprintf.c.obj                320      0         0      
       copy_decompress_rle.c.obj     288      0         0      
       printf.c.obj                  288      0         0      
       exit.c.obj                    256      0         12     
       ctype.c.obj                   0        257       0      
       atoi.c.obj                    256      0         0      
       fclose.c.obj                  256      0         0      
       fseek.c.obj                   256      0         0      
       hostopen.c.obj                224      0         8      
       _io_perm.c.obj                224      0         0      
       close.c.obj                   224      0         0      
       hostlseek.c.obj               224      0         0      
       hostwrite.c.obj               224      0         0      
       llshift.c.obj                 224      0         0      
       ltoa.c.obj                    224      0         0      
       memset.c.obj                  224      0         0      
       divu.asm.obj                  192      0         0      
       fflush.c.obj                  192      0         0      
       hostread.c.obj                192      0         0      
       hostunlink.c.obj              192      0         0      
       sprintf.c.obj                 192      0         0      
       tls.c.obj                     192      0         0      
       fopen.c.obj                   160      0         0      
       hostclose.c.obj               160      0         0      
       memcpy64.asm.obj              160      0         0      
       remu.asm.obj                  160      0         0      
       vsprintf.c.obj                160      0         0      
       fixdu.c.obj                   128      0         0      
       unlink.c.obj                  128      0         0      
       _lock.c.obj                   96       0         8      
       frcmpyd_div.c.obj             96       0         0      
       lseek.c.obj                   96       0         0      
       memccpy.c.obj                 96       0         0      
       args_main.c.obj               64       0         0      
       call_stub.asm.obj             64       0         0      
       isinf.c.obj                   64       0         0      
       push.asm.obj                  64       0         0      
       strasg.asm.obj                64       0         0      
       wcslen.c.obj                  64       0         0      
       errno.c.obj                   32       0         4      
       _data_synch.c.obj             32       0         0      
       copy_decompress_none.c.obj    32       0         0      
       s_copysign.c.obj              32       0         0      
       signbit.c.obj                 32       0         0      
    +--+-----------------------------+--------+---------+---------+
       Total:                        26656    349       1404   
                                                               
    C:\ti\pdk\6678\bios_6_75_02_00\packages\ti\targets\rts6000\lib\boot.ae66
       autoinit.oe66                 288      0         0      
       boot.oe66                     160      0         0      
    +--+-----------------------------+--------+---------+---------+
       Total:                        448      0         0      
                                                               
    C:\ti\pdk\6678\bios_6_75_02_00\packages\ti\targets\rts6000\lib\ti.targets.rts6000.ae66
       System.oe66                   3200     24        0      
       LoggerBuf.oe66                2560     0         0      
       Text.oe66                     1504     64        0      
       Error.oe66                    1184     88        0      
       Startup.oe66                  896      44        0      
       Core-mem.oe66                 896      0         0      
       SysMin.oe66                   704      0         0      
       Memory.oe66                   448      0         0      
       Core-smem.oe66                416      0         0      
       Assert.oe66                   192      4         0      
       Core-params.oe66              160      0         0      
       GateThread.oe66               160      0         0      
       Core-label.oe66               128      0         0      
       GateNull.oe66                 96       0         0      
       Gate.oe66                     64       0         0      
       Registry.oe66                 64       0         0      
    +--+-----------------------------+--------+---------+---------+
       Total:                        12672    224       0      
                                                               
    C:\ti\pdk\6678\ipc_3_50_03_04\packages\ti\sdo\ipc\lib\ipc\instrumented\ipc.ae66
       Ipc.obj                       50528    2439      0      
    +--+-----------------------------+--------+---------+---------+
       Total:                        50528    2439      0      
                                                               
    C:\ti\pdk\6678\ipc_3_50_03_04\packages\ti\sdo\utils\lib\utils\instrumented\utils.ae66
       UTILS.obj                     6752     0         0      
    +--+-----------------------------+--------+---------+---------+
       Total:                        6752     0         0      
                                                               
    C:\ti\pdk\6678\pdk_c667x_2_0_13\packages\ti\board\lib\cyhc5GC6678\c66\release\ti.board.ae66
       board_pll.oe66                1344     0         0      
       cyhc5GC6678_phy.oe66          960      0         0      
       cyhc5GC6678_ddr.oe66          736      0         0      
       cyhc5GC6678.oe66              384      36        0      
       board_clock.oe66              384      0         0      
       board_utils.oe66              288      0         0      
       cyhc5GC6678_pll.oe66          32       80        0      
       cyhc5GC6678_clock.oe66        32       64        0      
       cyhc5GC6678_ecc.oe66          96       0         0      
       board_lld_init.oe66           32       0         0      
    +--+-----------------------------+--------+---------+---------+
       Total:                        4288     180       0      
                                                               
    C:\ti\pdk\6678\pdk_c667x_2_0_13\packages\ti\csl\lib\c6678\c66\release\ti.csl.ae66
       uart.oe66                     1248     0         0      
       csl_chip.oe66                 288      128       0      
       csl_gpioGetBaseAddress.oe66   32       0         0      
       csl_srioGetBaseAddress.oe66   32       0         0      
       csl_tsc.oe66                  32       0         0      
       csl_cpsgmii.oe66              0        0         16     
    +--+-----------------------------+--------+---------+---------+
       Total:                        1632     128       16     
                                                               
    C:\ti\pdk\6678\pdk_c667x_2_0_13\packages\ti\drv\cppi\lib\c66\ti.drv.cppi.ae66
       cppi_drv.oe66                 7264     0         3988   
       cppi_desc.oe66                1184     0         0      
       cppi_heap.oe66                768      0         0      
       cppi_listlib.oe66             608      0         0      
    +--+-----------------------------+--------+---------+---------+
       Total:                        9824     0         3988   
                                                               
    C:\ti\pdk\6678\pdk_c667x_2_0_13\packages\ti\drv\qmss\lib\c66\ti.drv.qmss.ae66
       qmss_drv.oe66                 12672    16        28204  
       qmss_acc.oe66                 800      0         0      
    +--+-----------------------------+--------+---------+---------+
       Total:                        13472    16        28204  
                                                               
    C:\ti\pdk\6678\pdk_c667x_2_0_13\packages\ti\drv\srio\lib\c66\ti.drv.srio.ae66
       srio_drv.oe66                 13728    1940      256    
       listlib.oe66                  224      0         0      
    +--+-----------------------------+--------+---------+---------+
       Total:                        13952    1940      256    
                                                               
    C:\ti\pdk\6678\pdk_c667x_2_0_13\packages\ti\drv\uart\lib\c6678\c66\release\ti.drv.uart.ae66
       UART_v0.oe66                  7552     96        0      
       UART_stdio.oe66               2400     72        8      
       UART_soc.oe66                 192      24        340    
       UART_drv.oe66                 320      64        4      
    +--+-----------------------------+--------+---------+---------+
       Total:                        10464    256       352    
                                                               
    C:\ti\pdk\6678\pdk_c667x_2_0_13\packages\ti\osal\lib\tirtos\c6678\c66\release\ti.osal.ae66
       SemaphoreP_tirtos.oe66        832      32        2880   
       HwiP_tirtos.oe66              640      28        1280   
       RegisterIntr_tirtos.oe66      576      0         0      
       Utils_tirtos.oe66             448      0         72     
       EventCombinerP_tirtos.oe66    480      0         0      
       MuxIntcP_tirtos.oe66          128      0         0      
    +--+-----------------------------+--------+---------+---------+
       Total:                        3104     60        4232   
                                                               
    D:/pxqwork/project/5G-DSP/platform_lib_evmc6678l/lib/debug/ti.platform.evm6678l.ae66
       platform.obj                  6752     232       2408   
       cyhc5g_nand.obj               2880     48        2112   
       cyhc5g.obj                    2464     0         0      
       cyhc5g_i2c_eeprom.obj         2016     4         68     
       cyhc5g_spi.obj                1120     8         4      
       cyhc5g_nor.obj                992      20        0      
       cyhc5g_gpio.obj               832      4         0      
       cyhc5g_uart.obj               480      4         0      
       cyhc5g_i2c.obj                128      0         0      
       cyhc5g_led.obj                64       0         0      
    +--+-----------------------------+--------+---------+---------+
       Total:                        17728    320       4592   
                                                               
    D:\pxqwork\project\5G-DSP\5G_basic_platform_master\src\sysbios\sysbios.ae66
       BIOS.obj                      41088    1304      0      
       c64p_Hwi_disp_always.obj      512      0         0      
       c64p_Exception_asm.obj        384      0         0      
       c62_TaskSupport_asm.obj       224      0         0      
       c64p_Hwi_asm_switch.obj       192      0         0      
       c64p_Hwi_asm.obj              160      0         0      
    +--+-----------------------------+--------+---------+---------+
       Total:                        42560    1304      0      
                                                               
       Stack:                        0        0         16384  
       Linker Generated:             0        6710      0      
    +--+-----------------------------+--------+---------+---------+
       Grand Total:                  251648   33263     173454 


LINKER GENERATED COPY TABLES

__TI_cinit_table @ 8285dbe8 records: 10, size/record: 8, table size: 80
	.fardata: load addr=8285c200, load size=000018c0 bytes, run addr=82857840, run size=0000442a bytes, compression=rle
	platform_lib: load addr=8285dac0, load size=0000009f bytes, run addr=0080a048, run size=000011a0 bytes, compression=rle
	.neardata: load addr=8285db5f, load size=00000031 bytes, run addr=8285bf40, run size=00000084 bytes, compression=rle
	.far: load addr=8285db90, load size=0000000d bytes, run addr=8283dd00, run size=000134fa bytes, compression=rle
	.rodata: load addr=8285db9d, load size=0000000c bytes, run addr=8285bfc4, run size=00000006 bytes, compression=rle
	.L2RAM: load addr=8285dba9, load size=0000000b bytes, run addr=00800000, run size=00006044 bytes, compression=rle
	.cppi: load addr=8285dbb4, load size=0000000b bytes, run addr=0c206900, run size=00000f80 bytes, compression=rle
	.qmss: load addr=8285dbbf, load size=0000000b bytes, run addr=0c200000, run size=00006882 bytes, compression=rle
	.srioSharedMem: load addr=8285dbca, load size=0000000b bytes, run addr=0c207880, run size=00000100 bytes, compression=rle
	.bss: load addr=8285dbd5, load size=00000009 bytes, run addr=8285bf18, run size=00000024 bytes, compression=rle


LINKER GENERATED HANDLER TABLE

__TI_handler_table @ 8285dbe0 records: 2, size/record: 4, table size: 8
	index: 0, handler: __TI_decompress_rle24
	index: 1, handler: __TI_decompress_none


GLOBAL SYMBOLS: SORTED ALPHABETICALLY BY Name 

address   name                                                                      
-------   ----                                                                      
82830700  BOARD_delay                                                               
82823c40  Board_DDR3Init                                                            
82838ca0  Board_PLLInit                                                             
82838d00  Board_eccInit                                                             
8283c100  Board_ethPhyInit                                                          
82856990  Board_ext_clk                                                             
8283c120  Board_getNumPSCconfigs                                                    
8283c140  Board_getNumPllcConfigs                                                   
8282bf00  Board_init                                                                
8282c080  Board_moduleClockInit                                                     
8283c160  Board_uartStdioInit                                                       
8283c840  C$$EXIT                                                                   
82839538  C$$IO$$                                                                   
8283c180  CSL_GPIO_open                                                             
8283c1a0  CSL_SRIO_Open                                                             
8282f620  CSL_chipReadReg                                                           
8283c8c0  CSL_tscEnable                                                             
8283c8c8  CSL_tscRead                                                               
828068b8  Convert_CoreLocal2GlobalAddr                                              
8280bd40  CorePllcGetHwSetup                                                        
8280bb14  CorePllcHwSetup                                                           
82835720  Cppi_channelEnable                                                        
8280f880  Cppi_configureRxFlow                                                      
8283c1e0  Cppi_getChannelNumber                                                     
8283c200  Cppi_getFlowId                                                            
82819a00  Cppi_init                                                                 
8283c220  Cppi_initDescriptor                                                       
82819e80  Cppi_initDescriptorSubSys                                                 
82820e40  Cppi_open                                                                 
82818140  Cppi_rxChannelOpen                                                        
828357c0  Cppi_setCpdmaLoopback                                                     
8283c240  Cppi_txChannelOpen                                                        
82815fc0  Cppi_txChannelOpenWithHwCfg                                               
8280b8b8  DDR3Init                                                                  
82830800  EventCombinerP_GroupRegisterInt                                           
8283c260  EventCombinerP_disableEvent                                               
8283c280  EventCombinerP_dispatchPlug                                               
8283c2a0  EventCombinerP_enableEvent                                                
82836e20  EventCombinerP_getHwi                                                     
8283a740  GateMP_Params_init                                                        
8282f740  GateMP_close                                                              
8283c2c0  GateMP_delete                                                             
8282a500  GateMP_enter                                                              
8283c2e0  GateMP_getDefaultRemote                                                   
8282a6a0  GateMP_leave                                                              
82826ae0  GateMP_openByAddr                                                         
828280e0  GateMP_sharedMemReq                                                       
8285ac30  GlobalQmGroup0                                                            
82835860  HOSTclose                                                                 
82831f00  HOSTlseek                                                                 
82831fe0  HOSTopen                                                                  
82833860  HOSTread                                                                  
8282a840  HOSTrename                                                                
82833920  HOSTunlink                                                                
828320c0  HOSTwrite                                                                 
8283a780  HeapMemMP_Params_init                                                     
82838d60  HeapMemMP_create                                                          
828321a0  HeapMemMP_openByAddr                                                      
82836ea0  HeapMemMP_restore                                                         
82826ce0  HeapMemMP_sharedMemReq                                                    
828282c0  HwiP_create                                                               
82838e20  HwiP_delete                                                               
8283c340  HwiP_disable                                                              
8283c360  HwiP_restore                                                              
828284a0  Init_SGMII                                                                
828128c0  Ipc_attach                                                                
8285bf1c  Ipc_sr0MemorySetup                                                        
82826ee0  Ipc_start                                                                 
8283c380  ListMP_Params_init                                                        
8283c3a0  ListMP_close                                                              
82836f20  ListMP_create                                                             
8283c3c0  ListMP_delete                                                             
82821d40  ListMP_getHead                                                            
82832280  ListMP_openByAddr                                                         
82825c00  ListMP_putTail                                                            
8282dbe0  ListMP_remove                                                             
8282dd20  ListMP_sharedMemReq                                                       
82832360  MessageQ_Params_init__S                                                   
8282cf80  MessageQ_create                                                           
8282c200  MessageQ_get                                                              
8280ffa0  MessageQ_put                                                              
8283c3e0  MultiProc_getBaseIdOfCluster                                              
8283c400  MultiProc_self                                                            
82836fa0  MuxIntcP_create                                                           
82810dc0  NameServer_add                                                            
8283c420  NameServer_addUInt32                                                      
828291c0  NameServer_getHandle                                                      
82821140  NameServer_getLocal                                                       
8283c440  NameServer_getLocalUInt32                                                 
8283c460  NameServer_removeEntry                                                    
8280b3b0  NandGetDetails                                                            
8280aa10  NandReadSpareArea                                                         
8280aab0  NandWriteDataBytes                                                        
8280ac08  NandWriteSpareArea                                                        
82838e80  Notify_attach                                                             
8282de60  Notify_intLineRegistered                                                  
8283a7c0  Notify_numIntLines                                                        
8281c9c0  Notify_registerEventSingle                                                
8281c180  Notify_sendEvent                                                          
8283a800  Notify_sharedMemReq                                                       
8281d9c0  Notify_unregisterEventSingle                                              
8280ccd8  Osal_CacheInvalidate                                                      
8280cd14  Osal_CacheWriteback                                                       
8280cbd4  Osal_DataBufferFree                                                       
8280cb10  Osal_DataBufferMalloc                                                     
82835900  Osal_DeleteInterrupt                                                      
8280cc6c  Osal_MultiCoreEnter                                                       
8280cc88  Osal_MultiCoreExit                                                        
8282d0e0  Osal_RegisterInterrupt                                                    
8283a840  Osal_RegisterInterrupt_initParams                                         
8280cca0  Osal_SingleCoreEnter                                                      
8280ccc4  Osal_SingleCoreExit                                                       
82811ea8  Osal_cppiBeginMemAccess                                                   
82811e58  Osal_cppiCsEnter                                                          
82811e74  Osal_cppiCsExit                                                           
82811ee4  Osal_cppiEndMemAccess                                                     
82811e28  Osal_cppiFree                                                             
82811e8c  Osal_cppiLog                                                              
82811dec  Osal_cppiMalloc                                                           
8280ca68  Osal_dataBufferInitMemory                                                 
828339e0  Osal_delay                                                                
82838ee0  Osal_getHwAttrs                                                           
82838f40  Osal_getThreadType                                                        
82834294  Osal_platformFree                                                         
82834280  Osal_platformMalloc                                                       
828342b4  Osal_platformSpiCsEnter                                                   
828342d0  Osal_platformSpiCsExit                                                    
82811fa8  Osal_qmssAccCsEnter                                                       
82811fb0  Osal_qmssAccCsExit                                                        
82811ff8  Osal_qmssBeginMemAccess                                                   
82811f74  Osal_qmssCsEnter                                                          
82811f90  Osal_qmssCsExit                                                           
82812034  Osal_qmssEndMemAccess                                                     
82811f48  Osal_qmssFree                                                             
82811fe4  Osal_qmssLog                                                              
82811f14  Osal_qmssMalloc                                                           
82811fc8  Osal_qmssMtCsEnter                                                        
82811fd0  Osal_qmssMtCsExit                                                         
82812114  Osal_rmBeginMemAccess                                                     
828120cc  Osal_rmCsEnter                                                            
828120d4  Osal_rmCsExit                                                             
82812150  Osal_rmEndMemAccess                                                       
828120a0  Osal_rmFree                                                               
828121e8  Osal_rmLog                                                                
8281206c  Osal_rmMalloc                                                             
828120e8  Osal_rmMtCsEnter                                                          
82812100  Osal_rmMtCsExit                                                           
828121b4  Osal_rmTaskBlock                                                          
82812188  Osal_rmTaskBlockCreate                                                    
828121d4  Osal_rmTaskBlockDelete                                                    
828121c8  Osal_rmTaskUnblock                                                        
8280cd4c  Osal_srioBeginDescriptorAccess                                            
8280cd84  Osal_srioBeginMemAccess                                                   
8280cdb8  Osal_srioCreateSem                                                        
8280cdcc  Osal_srioDataBufferFree                                                   
8280ce64  Osal_srioDataBufferMalloc                                                 
8280cf28  Osal_srioDeleteSem                                                        
8280cd64  Osal_srioEndDescriptorAccess                                              
8280cf34  Osal_srioEndMemAccess                                                     
8280cf6c  Osal_srioEnterMultipleCoreCriticalSection                                 
8280cf88  Osal_srioEnterSingleCoreCriticalSection                                   
8280cfac  Osal_srioExitMultipleCoreCriticalSection                                  
8280cfc4  Osal_srioExitSingleCoreCriticalSection                                    
8280cfe8  Osal_srioFree                                                             
8280d014  Osal_srioLog                                                              
8280d02c  Osal_srioMalloc                                                           
8280d064  Osal_srioPendSem                                                          
8280d074  Osal_srioPostSem                                                          
8280b7c4  PowerUpDomains                                                            
8282a9e0  Qmss_cfgAccumulatorCh                                                     
8283a880  Qmss_getMemRegDescSizeSubSys                                              
82833aa0  Qmss_getMemRegQueueHandleSubSys                                           
8282f860  Qmss_getMemoryRegionCfg                                                   
8283c480  Qmss_getQueueHandle                                                       
8283c4a0  Qmss_getQueueNumber                                                       
8283c4c0  Qmss_init                                                                 
8280be20  Qmss_initSubSys                                                           
8283c4e0  Qmss_insertMemoryRegion                                                   
82806920  Qmss_insertMemoryRegionSubSys                                             
82824960  Qmss_internalQueueClose                                                   
82822020  Qmss_internalRmStartIndex                                                 
8283a8c0  Qmss_internalVirtToPhy                                                    
8282f980  Qmss_openAccumulatorChSubSys                                              
82838fa0  Qmss_programAccumulator                                                   
8283a900  Qmss_queueClose                                                           
82837020  Qmss_queueOpen                                                            
828359a0  Qmss_queueOpenSubSys                                                      
8282faa0  Qmss_rmService                                                            
8282dfa0  Qmss_rmServiceGroups                                                      
82839000  Qmss_setQueueThreshold                                                    
8283a940  Qmss_start                                                                
8282d240  Qmss_startSubSysCfg                                                       
8283a980  SemaphoreP_Params_init                                                    
828270e0  SemaphoreP_create                                                         
82839060  SemaphoreP_delete                                                         
828390c0  SemaphoreP_pend                                                           
8283a9c0  SemaphoreP_post                                                           
8283a9c0  SemaphoreP_postFromClock                                                  
8283a9c0  SemaphoreP_postFromISR                                                    
8280b6a8  SetDDR3PllConfig                                                          
8280b588  SetPaPllConfig                                                            
8282e0e0  SharedRegion_getCacheLineSize                                             
828272e0  SharedRegion_getEntry                                                     
8282e220  SharedRegion_getHeap                                                      
82833b60  SharedRegion_getId                                                        
82825e20  SharedRegion_getPtr                                                       
82826040  SharedRegion_getSRPtr                                                     
8283c500  SharedRegion_invalidSRPtr                                                 
8282e360  SharedRegion_isCacheEnabled                                               
828025d8  SrioDevice_init                                                           
828274e0  Srio_dioCompletionIsr                                                     
828370a0  Srio_freeRxDrvBuffer                                                      
8283c520  Srio_init                                                                 
8281fb00  Srio_initCfg                                                              
8283aa00  Srio_listAdd                                                              
82839120  Srio_listCat                                                              
8283aa40  Srio_listRemove                                                           
8282e4a0  Srio_rmService                                                            
82837120  Srio_sockBind                                                             
8281b4c0  Srio_sockBind_DIO                                                         
82822300  Srio_sockBind_TYPE11                                                      
82823ee0  Srio_sockBind_TYPE9                                                       
8281cdc0  Srio_sockOpen                                                             
828371a0  Srio_sockSend                                                             
82813540  Srio_sockSend_DIO                                                         
82822e80  Srio_sockSend_TYPE11                                                      
828225e0  Srio_sockSend_TYPE9                                                       
82818680  Srio_start                                                                
8285bfa8  TEST_TIME                                                                 
82856640  UART_FxnTable_v0                                                          
8283c540  UART_Params_init                                                          
8283aa80  UART_breakCtl_v0                                                          
8283aac0  UART_charGetNonBlocking2_v0                                               
82837220  UART_charPut_v0                                                           
82857178  UART_config                                                               
8285654c  UART_defaultParams                                                        
8283c580  UART_divisorLatchDisable_v0                                               
82839180  UART_divisorLatchWrite_v0                                                 
828391e0  UART_divisorValCompute_v0                                                 
8283c5a0  UART_fIFOCharPut_v0                                                       
828372a0  UART_fIFOConfig_v0                                                        
8283c5c0  UART_fifoEmpty_v0                                                         
82839240  UART_fifoWait_v0                                                          
82835a40  UART_init                                                                 
8283ab00  UART_intDisable_v0                                                        
8283ab40  UART_intEnable_v0                                                         
8283ab80  UART_intIdentityGet_v0                                                    
828392a0  UART_lineCharacConfig_v0                                                  
8283abc0  UART_loopbackModeControl_v0                                               
8282cf08  UART_mutex_printf                                                         
8283ac00  UART_open                                                                 
8283c600  UART_operatingModeSelect_v0                                               
82812240  UART_printf                                                               
8283a4a0  UART_putc                                                                 
8283c620  UART_pwremuConfig_v0                                                      
8283ac40  UART_readLineStatus_v0                                                    
82839360  UART_socGetInitCfg                                                        
828393c0  UART_socSetInitCfg                                                        
82835ae0  UART_stdioInit                                                            
82835b80  UART_v0_callback                                                          
8283c640  UART_write                                                                
8283c660  UART_writePolling                                                         
82828b0c  UartInit                                                                  
82828aec  UartIsDataReady                                                           
828510d8  UartObjects                                                               
82828ab8  UartReadBaudRate                                                          
82828aa8  UartReadData                                                              
82828a80  UartSetBaudRate                                                           
82828a40  UartWriteData                                                             
8283ac80  _DebugP_assert                                                            
8283c680  _GateMP_virtToPhys                                                        
82800800  __ASM__                                                                   
8285bdf8  __CIOBUF_                                                                 
82800868  __ISA__                                                                   
82800880  __PLAT__                                                                  
828008a0  __TARG__                                                                  
8285dbe8  __TI_CINIT_Base                                                           
8285dc38  __TI_CINIT_Limit                                                          
8285dbe0  __TI_Handler_Table_Base                                                   
8285dbe8  __TI_Handler_Table_Limit                                                  
UNDEFED   __TI_INITARRAY_Base                                                       
UNDEFED   __TI_INITARRAY_Limit                                                      
0080a048  __TI_STACK_END                                                            
00004000  __TI_STACK_SIZE                                                           
8285bf18  __TI_STATIC_BASE                                                          
UNDEFED   __TI_TLS_INIT_Base                                                        
UNDEFED   __TI_TLS_INIT_Limit                                                       
82835c20  __TI_cleanup                                                              
8285bac8  __TI_cleanup_ptr                                                          
82830c00  __TI_closefile                                                            
8283c8e0  __TI_decompress_none                                                      
8283c900  __TI_decompress_rle24                                                     
82833fe0  __TI_doflush                                                              
8285bacc  __TI_dtors_ptr                                                            
8285bad0  __TI_enable_exit_profile_output                                           
82839480  __TI_frcmpyd_div                                                          
8285b6ec  __TI_ft_end                                                               
ffffffff  __TI_pprof_out_hndl                                                       
82802ee0  __TI_printfi                                                              
ffffffff  __TI_prof_data_size                                                       
ffffffff  __TI_prof_data_start                                                      
82837320  __TI_readmsg                                                              
828352a0  __TI_tls_init                                                             
82850ea8  __TI_tmpnams                                                              
828394e0  __TI_writemsg                                                             
828326e0  __TI_wrt_ok                                                               
828008c8  __TRDR__                                                                  
ffffffff  __binit__                                                                 
8283ad40  __c6xabi_call_stub                                                        
82814dc0  __c6xabi_divd                                                             
828340a0  __c6xabi_divu                                                             
82829380  __c6xabi_divul                                                            
82825300  __c6xabi_divull                                                           
8283c6a0  __c6xabi_errno_addr                                                       
828373a0  __c6xabi_fixdu                                                            
8283acc0  __c6xabi_isinf                                                            
82837420  __c6xabi_llshl                                                            
82839540  __c6xabi_llshru                                                           
8283c6c0  __c6xabi_pop_rts                                                          
8283c6e0  __c6xabi_push_rts                                                         
82835cc0  __c6xabi_remu                                                             
8283ad80  __c6xabi_strasgi_64plus                                                   
ffffffff  __c_args__                                                                
8283ad40  __call_stub                                                               
828340a0  __divu                                                                    
8285b79c  __errno                                                                   
8283c6c0  __pop_rts                                                                 
8283c6e0  __push_rts                                                                
82835cc0  __remu                                                                    
8283ad80  __strasgi_64plus                                                          
8283adc0  _args_main                                                                
00000000  _argsize                                                                  
8282fbc0  _auto_init_elf                                                            
82835d60  _c_int00                                                                  
82856000  _ctypes_                                                                  
8285b5a0  _device                                                                   
8285aa50  _ftable                                                                   
82859f7c  _lock                                                                     
8283c700  _nop                                                                      
8283c7a0  _register_lock                                                            
8283c7c0  _register_synch_api                                                       
8283c7e0  _register_unlock                                                          
8283c800  _signbit                                                                  
00806048  _stack                                                                    
8285b0d8  _stream                                                                   
828395a0  _subcull                                                                  
8285adbc  _unlock                                                                   
8283c840  abort                                                                     
82830f00  atoi                                                                      
ffffffff  binit                                                                     
8280ca38  biosFree                                                                  
8280c9f8  biosMalloc                                                                
828327c0  close                                                                     
8282e720  configSerdes                                                              
82813fcc  configSrioParameterToFPGA                                                 
8283c860  copysign                                                                  
8283c860  copysignl                                                                 
8285bfa4  core_ID                                                                   
8285bfc8  core_id                                                                   
8285bfc4  core_name                                                                 
8285bf78  cppiFreeCounter                                                           
82858380  cppiGblCPDMACfgParams                                                     
8285ba20  cppiGblCfgParams                                                          
8285bf20  cppiHnd                                                                   
82808950  cppiInit                                                                  
8285ba34  cppiLObj                                                                  
8285bf74  cppiMallocCounter                                                         
0c206900  cppiObject                                                                
82827ae0  cppi_internal_heap_add                                                    
828375a0  cppi_internal_heap_cache_begin                                            
82837620  cppi_internal_heap_malloc                                                 
828376a0  cppi_list_add                                                             
828396c0  cppi_list_cache_invalidate                                                
82834160  cppi_list_cat                                                             
8283c880  cppi_list_get_head                                                        
8283c8a0  cppi_list_get_next                                                        
82837720  cppi_list_remove                                                          
8285ba78  cpsgmiiPortBaseAddr                                                       
82802cf0  createControlSocket                                                       
82859f80  data                                                                      
8285bfa0  dataLen                                                                   
8281dfe0  delay_ms                                                                  
82807cc0  displaySrioLanesStatus                                                    
8283afc0  dspControlUserLEDs                                                        
0080b1e0  emac_port_mode                                                            
8285b79c  errno                                                                     
828378a0  evmI2CInit                                                                
828328a0  exit                                                                      
82835f40  finddevice                                                                
828572b0  flowIdNum                                                                 
8285bf64  fpga0ControlSocket                                                        
00806018  fpga0EerorPktCount                                                        
0080601c  fpga0ReadIndex                                                            
8285bf68  fpga1ControlSocket                                                        
00806020  fpga1EerorPktCount                                                        
00806024  fpga1ReadIndex                                                            
82829700  fputc                                                                     
82820800  fputs                                                                     
8283af40  free                                                                      
8285bf24  freeQueHnd                                                                
8285bfb8  free_counter                                                              
8282ab80  frexp                                                                     
8282ab80  frexpl                                                                    
82831000  fseek                                                                     
82850fe8  gDataBufferMemMgr                                                         
8285bfb0  gDataBufferMemMgrMaxSize                                                  
0080b16c  gDeviceEeprom0                                                            
0080b1a4  gDeviceEeprom1                                                            
0080b0fc  gDeviceNand                                                               
0080a0a0  gDeviceNandBBlist                                                         
0080b134  gDeviceNor                                                                
82851188  gI2cBlock                                                                 
8285bf94  gOsalHwiAllocCnt                                                          
8285bf98  gOsalHwiPeak                                                              
8285bf84  gOsalSemAllocCnt                                                          
8285bf88  gOsalSemPeak                                                              
8285bf8c  gOsalTimerAllocCnt                                                        
8285bf90  gOsalTimerPeak                                                            
8285b878  gOsal_HwAttrs                                                             
0c207880  gSRIODriverMCB                                                            
82813d4c  getBbData                                                                 
82808088  getPllValue                                                               
82832980  getSemaphore                                                              
8282ff20  getdevice                                                                 
82820134  gpioClearFallingEdgeInterrupt                                             
82820100  gpioClearOutput                                                           
828200cc  gpioClearRisingEdgeInterrupt                                              
828200b0  gpioDisableGlobalInterrupt                                                
82820098  gpioEnableGlobalInterrupt                                                 
82820038  gpioInit                                                                  
8281fff8  gpioReadInput                                                             
8281ff80  gpioSetDataBusDirection                                                   
8281ff00  gpioSetDirection                                                          
8281feb8  gpioSetFallingEdgeInterrupt                                               
8281fe84  gpioSetOutput                                                             
8281fe40  gpioSetRisingEdgeInterrupt                                                
8285bf28  hAppManagedSrioDrv                                                        
00800000  hostDesc                                                                  
8280e7d4  i2cEepromMacRead                                                          
8280e684  i2cEepromMacWrite                                                         
8280e578  i2cEepromRead                                                             
8280e4b4  i2cEepromWrite                                                            
8280e200  i2cEepromWriteBlock                                                       
8280e3ac  i2cEepromWriteByteAddr                                                    
82819080  init_pll                                                                  
828088f0  ipcInit                                                                   
82856bd0  keystonePllcRegs                                                          
8283af00  l2_global_address                                                         
8282ad20  ldexp                                                                     
8282ad20  ldexpl                                                                    
82839720  lseek                                                                     
82832a60  ltoa                                                                      
8281e034  main                                                                      
82838620  malloc                                                                    
8285bfb4  malloc_counter                                                            
82839780  memccpy                                                                   
82835fe0  memcpy                                                                    
82832b40  memset                                                                    
82802cb0  myDIOIsr                                                                  
8280b30c  nandFlashBlockErase                                                       
8280b298  nandInit                                                                  
8281e474  nor_erase                                                                 
8281e408  nor_get_details                                                           
8281e3a0  nor_init                                                                  
8281e324  nor_read                                                                  
8281e200  nor_write                                                                 
828511f0  parmbuf                                                                   
828061c4  platform_blocknpage_to_offset                                             
82805070  platform_delay                                                            
82806890  platform_delaycycles                                                      
82805c38  platform_device_close                                                     
82806800  platform_device_erase_block                                               
82806708  platform_device_mark_block_bad                                            
82805a14  platform_device_open                                                      
82805b10  platform_device_read                                                      
82806694  platform_device_read_spare_data                                           
82806258  platform_device_write                                                     
82806150  platform_device_write_spare_data                                          
8285bfbc  platform_errno                                                            
82805fc4  platform_external_memory_test                                             
82805298  platform_get_coreid                                                       
82805f6c  platform_get_emac_info                                                    
82805d28  platform_get_info                                                         
828059c4  platform_get_macaddr                                                      
82805140  platform_get_phy_addr                                                     
828059c0  platform_get_switch_state                                                 
828056e8  platform_init                                                             
8285bfc0  platform_init_return_code                                                 
828052a4  platform_internal_memory_test                                             
8280526c  platform_led                                                              
82805194  platform_offset_to_blocknpage                                             
82805144  platform_phy_link_status                                                  
82805124  platform_uart_init                                                        
828050b0  platform_uart_read                                                        
82805048  platform_uart_set_baudrate                                                
82804f34  platform_uart_write                                                       
82804f48  platform_write                                                            
82804f20  platform_write_configure                                                  
82856670  pllcConfigs                                                               
82832c20  printf                                                                    
8280b498  prog_pll1_values                                                          
00806000  ps_info                                                                   
82856590  pscConfigs                                                                
82829700  putc                                                                      
8285bf70  qmssFreeCounter                                                           
0c204180  qmssGObj                                                                  
0c206880  qmssGObjIsValid                                                           
8285a780  qmssGblCfgParams                                                          
0c204080  qmssGroupControl                                                          
82850500  qmssLObj                                                                  
828511f8  qmssLObjIsValid                                                           
8285bf6c  qmssMallocCounter                                                         
828572d0  qmssQueueFree                                                             
828572d8  qmssQueueFreeSize                                                         
8280b010  readNandPage                                                              
8283af80  releaseSemaphore                                                          
828387a0  remove                                                                    
8285bf80  rmFreeCounter                                                             
8285bf7c  rmMallocCounter                                                           
8285bf2c  rxChHnd                                                                   
00802000  rxDataBuff                                                                
828511d0  rxQueHnd                                                                  
82856bf0  rxQueNum                                                                  
8285bf30  rx_flowhnd                                                                
00806040  rxbuf                                                                     
8282ad20  scalbn                                                                    
8282ad20  scalbnl                                                                   
82813f0c  sendDataToBb                                                              
82804ec0  serial_num_isvalid                                                        
82808144  setEnableSrioPllRxTx                                                      
82807e8c  setSrioLanes                                                              
828298c0  setvbuf                                                                   
82837820  snprintf                                                                  
8281af00  spi_claim                                                                 
8281aeb4  spi_cmd                                                                   
8281ae78  spi_cmd_read                                                              
8281ae40  spi_cmd_write                                                             
8281add0  spi_read_word                                                             
8281adb4  spi_release                                                               
8281ad54  spi_write_word                                                            
8281ac00  spi_xfer                                                                  
828397e0  sprintf                                                                   
8280252c  srioInit                                                                  
82802df0  srioSendData                                                              
8285bf40  srio_device_ID1                                                           
8285bf44  srio_device_ID2                                                           
8285bf48  srio_device_ID3                                                           
8285bf5c  srio_isBoardToBoard                                                       
8285bf54  srio_laneSpeedGbps                                                        
8285bf58  srio_lanesMode                                                            
8285bf50  srio_refClockMhz                                                          
8285bf60  srio_usePolledMode                                                        
8285bf4c  srio_work_mode                                                            
828377a0  sysInit                                                                   
8281ddb4  taskFxn                                                                   
8281df8c  taskLed                                                                   
8285698c  ti_sdo_ipc_GateMP_A_invalidClose__C                                       
82856b64  ti_sdo_ipc_GateMP_A_invalidDelete__C                                      
82857024  ti_sdo_ipc_GateMP_E_gateUnavailable__C                                    
82857044  ti_sdo_ipc_GateMP_E_localGate__C                                          
82817680  ti_sdo_ipc_GateMP_Instance_finalize__E                                    
82809140  ti_sdo_ipc_GateMP_Instance_init__E                                        
82857064  ti_sdo_ipc_GateMP_LM_create__C                                            
82857084  ti_sdo_ipc_GateMP_LM_delete__C                                            
828570a4  ti_sdo_ipc_GateMP_LM_enter__C                                             
828570c4  ti_sdo_ipc_GateMP_LM_leave__C                                             
828570e4  ti_sdo_ipc_GateMP_LM_open__C                                              
82858d58  ti_sdo_ipc_GateMP_Module_State_0_remoteCustom1Gates__A                    
8285b2a0  ti_sdo_ipc_GateMP_Module_State_0_remoteSystemGates__A                     
82857104  ti_sdo_ipc_GateMP_Module__diagsEnabled__C                                 
82857124  ti_sdo_ipc_GateMP_Module__diagsIncluded__C                                
82857144  ti_sdo_ipc_GateMP_Module__diagsMask__C                                    
82856102  ti_sdo_ipc_GateMP_Module__id__C                                           
82857042  ti_sdo_ipc_GateMP_Module__loggerDefined__C                                
828572ac  ti_sdo_ipc_GateMP_Module__loggerFxn2__C                                   
82857310  ti_sdo_ipc_GateMP_Module__loggerFxn4__C                                   
82857314  ti_sdo_ipc_GateMP_Module__loggerObj__C                                    
8285bb08  ti_sdo_ipc_GateMP_Module__root__V                                         
8285b74c  ti_sdo_ipc_GateMP_Module__state__V                                        
82856c10  ti_sdo_ipc_GateMP_Object__DESC__C                                         
8285660c  ti_sdo_ipc_GateMP_Object__PARAMS__C                                       
82839840  ti_sdo_ipc_GateMP_Object__delete__S                                       
8283c940  ti_sdo_ipc_GateMP_Params__init__S                                         
8283b180  ti_sdo_ipc_GateMP_RemoteCustom1Proxy_Handle__label__S                     
8283cd20  ti_sdo_ipc_GateMP_RemoteCustom1Proxy_Params__init__S                      
8283c960  ti_sdo_ipc_GateMP_RemoteCustom1Proxy_Proxy__abstract__S                   
8283c980  ti_sdo_ipc_GateMP_RemoteCustom1Proxy_Proxy__delegate__S                   
8283c9a0  ti_sdo_ipc_GateMP_RemoteCustom1Proxy_create                               
8283c9c0  ti_sdo_ipc_GateMP_RemoteCustom1Proxy_delete                               
8283cd40  ti_sdo_ipc_GateMP_RemoteCustom1Proxy_getReservedMask__E                   
8283cd60  ti_sdo_ipc_GateMP_RemoteCustom1Proxy_query__E                             
82839a80  ti_sdo_ipc_GateMP_RemoteCustom1Proxy_sharedMemReq__E                      
8283b100  ti_sdo_ipc_GateMP_RemoteCustom2Proxy_Handle__label__S                     
8283cca0  ti_sdo_ipc_GateMP_RemoteCustom2Proxy_Params__init__S                      
8283c9e0  ti_sdo_ipc_GateMP_RemoteCustom2Proxy_Proxy__abstract__S                   
8283ca00  ti_sdo_ipc_GateMP_RemoteCustom2Proxy_Proxy__delegate__S                   
8283ca20  ti_sdo_ipc_GateMP_RemoteCustom2Proxy_create                               
8283ca40  ti_sdo_ipc_GateMP_RemoteCustom2Proxy_delete                               
8283ccc0  ti_sdo_ipc_GateMP_RemoteCustom2Proxy_getReservedMask__E                   
8283cce0  ti_sdo_ipc_GateMP_RemoteCustom2Proxy_query__E                             
8283cd00  ti_sdo_ipc_GateMP_RemoteCustom2Proxy_sharedMemReq__E                      
8283b040  ti_sdo_ipc_GateMP_RemoteSystemProxy_Handle__label__S                      
8283cc00  ti_sdo_ipc_GateMP_RemoteSystemProxy_Params__init__S                       
8283ca60  ti_sdo_ipc_GateMP_RemoteSystemProxy_Proxy__abstract__S                    
8283ca80  ti_sdo_ipc_GateMP_RemoteSystemProxy_Proxy__delegate__S                    
8283caa0  ti_sdo_ipc_GateMP_RemoteSystemProxy_create                                
8283cac0  ti_sdo_ipc_GateMP_RemoteSystemProxy_delete                                
8283cc20  ti_sdo_ipc_GateMP_RemoteSystemProxy_getReservedMask__E                    
8283cc40  ti_sdo_ipc_GateMP_RemoteSystemProxy_query__E                              
8283cc60  ti_sdo_ipc_GateMP_RemoteSystemProxy_sharedMemReq__E                       
8282c500  ti_sdo_ipc_GateMP_attach__E                                               
8282c500  ti_sdo_ipc_GateMP_attach__F                                               
828342e0  ti_sdo_ipc_GateMP_create                                                  
8282e860  ti_sdo_ipc_GateMP_createLocal__E                                          
8282e860  ti_sdo_ipc_GateMP_createLocal__F                                          
8283cae0  ti_sdo_ipc_GateMP_delete                                                  
8282e9a0  ti_sdo_ipc_GateMP_getFreeResource__I                                      
828343a0  ti_sdo_ipc_GateMP_getRegion0ReservedSize__E                               
828343a0  ti_sdo_ipc_GateMP_getRegion0ReservedSize__F                               
8283cb00  ti_sdo_ipc_GateMP_getSharedAddr__E                                        
8283cb00  ti_sdo_ipc_GateMP_getSharedAddr__F                                        
8282d3a0  ti_sdo_ipc_GateMP_openRegion0Reserved__E                                  
8282d3a0  ti_sdo_ipc_GateMP_openRegion0Reserved__F                                  
8283cb20  ti_sdo_ipc_GateMP_setDefaultRemote__E                                     
8283cb20  ti_sdo_ipc_GateMP_setDefaultRemote__F                                     
828153c0  ti_sdo_ipc_GateMP_setRegion0Reserved__E                                   
828153c0  ti_sdo_ipc_GateMP_setRegion0Reserved__F                                   
82831100  ti_sdo_ipc_GateMP_start__E                                                
82831100  ti_sdo_ipc_GateMP_start__F                                                
82857318  ti_sdo_ipc_Ipc_A_addrNotCacheAligned__C                                   
8285731c  ti_sdo_ipc_Ipc_A_addrNotInSharedRegion__C                                 
82857320  ti_sdo_ipc_Ipc_A_internal__C                                              
82857324  ti_sdo_ipc_Ipc_A_invArgument__C                                           
82857328  ti_sdo_ipc_Ipc_A_invParam__C                                              
8285732c  ti_sdo_ipc_Ipc_A_nullArgument__C                                          
82857330  ti_sdo_ipc_Ipc_A_nullPointer__C                                           
82857334  ti_sdo_ipc_Ipc_E_internal__C                                              
82857338  ti_sdo_ipc_Ipc_E_nameFailed__C                                            
8285733c  ti_sdo_ipc_Ipc_E_versionMismatch__C                                       
8285ba48  ti_sdo_ipc_Ipc_Module_State_0_procEntry__A                                
82857340  ti_sdo_ipc_Ipc_Module__diagsEnabled__C                                    
82857344  ti_sdo_ipc_Ipc_Module__diagsIncluded__C                                   
82857348  ti_sdo_ipc_Ipc_Module__diagsMask__C                                       
82857062  ti_sdo_ipc_Ipc_Module__id__C                                              
8285bad4  ti_sdo_ipc_Ipc_Module__state__V                                           
82857082  ti_sdo_ipc_Ipc_generateSlaveDataForHost__C                                
82837920  ti_sdo_ipc_Ipc_getMasterAddr__I                                           
8283b000  ti_sdo_ipc_Ipc_getRegion0ReservedSize__I                                  
828398a0  ti_sdo_ipc_Ipc_getSlaveAddr__I                                            
8285734c  ti_sdo_ipc_Ipc_numUserFxns__C                                             
82831200  ti_sdo_ipc_Ipc_procSyncFinish__I                                          
82829a80  ti_sdo_ipc_Ipc_procSyncStart__I                                           
82857350  ti_sdo_ipc_Ipc_procSync__C                                                
82839900  ti_sdo_ipc_Ipc_reservedSizePerProc__I                                     
82857354  ti_sdo_ipc_Ipc_userFxns__C                                                
82832d00  ti_sdo_ipc_ListMP_Instance_finalize__E                                    
82816b40  ti_sdo_ipc_ListMP_Instance_init__E                                        
82857358  ti_sdo_ipc_ListMP_Module__diagsEnabled__C                                 
8285735c  ti_sdo_ipc_ListMP_Module__diagsIncluded__C                                
82857360  ti_sdo_ipc_ListMP_Module__diagsMask__C                                    
828570a2  ti_sdo_ipc_ListMP_Module__id__C                                           
8285bb10  ti_sdo_ipc_ListMP_Module__root__V                                         
8285b934  ti_sdo_ipc_ListMP_Module__state__V                                        
82856c30  ti_sdo_ipc_ListMP_Object__DESC__C                                         
8285672c  ti_sdo_ipc_ListMP_Object__PARAMS__C                                       
82839960  ti_sdo_ipc_ListMP_Object__delete__S                                       
8283cb40  ti_sdo_ipc_ListMP_Params__init__S                                         
82834460  ti_sdo_ipc_ListMP_create                                                  
8283cb60  ti_sdo_ipc_ListMP_delete                                                  
828399c0  ti_sdo_ipc_ListMP_elemClear__I                                            
82857364  ti_sdo_ipc_MessageQ_A_invalidMsg__C                                       
82857368  ti_sdo_ipc_MessageQ_A_invalidObj__C                                       
8285736c  ti_sdo_ipc_MessageQ_A_invalidQueueId__C                                   
82857370  ti_sdo_ipc_MessageQ_A_procIdInvalid__C                                    
82857374  ti_sdo_ipc_MessageQ_A_unregisteredTransport__C                            
82857378  ti_sdo_ipc_MessageQ_E_indexNotAvailable__C                                
8285737c  ti_sdo_ipc_MessageQ_E_maxReached__C                                       
82857380  ti_sdo_ipc_MessageQ_E_nameFailed__C                                       
82857384  ti_sdo_ipc_MessageQ_Instance_State_highList__O                            
82857388  ti_sdo_ipc_MessageQ_Instance_State_normalList__O                          
8282d500  ti_sdo_ipc_MessageQ_Instance_finalize__E                                  
8281e560  ti_sdo_ipc_MessageQ_Instance_init__E                                      
8285738c  ti_sdo_ipc_MessageQ_LM_get__C                                             
82857390  ti_sdo_ipc_MessageQ_LM_putLocal__C                                        
8285b960  ti_sdo_ipc_MessageQ_Module_State_0_heaps__A                               
8285bb18  ti_sdo_ipc_MessageQ_Module_State_0_transports__A                          
82857394  ti_sdo_ipc_MessageQ_Module__diagsEnabled__C                               
82857398  ti_sdo_ipc_MessageQ_Module__diagsIncluded__C                              
8285739c  ti_sdo_ipc_MessageQ_Module__diagsMask__C                                  
828570c2  ti_sdo_ipc_MessageQ_Module__id__C                                         
828570e2  ti_sdo_ipc_MessageQ_Module__loggerDefined__C                              
828573a0  ti_sdo_ipc_MessageQ_Module__loggerFxn4__C                                 
828573a4  ti_sdo_ipc_MessageQ_Module__loggerObj__C                                  
8285bb20  ti_sdo_ipc_MessageQ_Module__root__V                                       
8285b684  ti_sdo_ipc_MessageQ_Module__state__V                                      
82832de0  ti_sdo_ipc_MessageQ_Module_startup__E                                     
82856c50  ti_sdo_ipc_MessageQ_Object__DESC__C                                       
82856c70  ti_sdo_ipc_MessageQ_Object__PARAMS__C                                     
828573a8  ti_sdo_ipc_MessageQ_Object__count__C                                      
8283cb80  ti_sdo_ipc_MessageQ_Object__get__S                                        
828573ac  ti_sdo_ipc_MessageQ_Object__heap__C                                       
8283cba0  ti_sdo_ipc_MessageQ_Params__init__S                                       
82833400  ti_sdo_ipc_MessageQ_SetupTransportProxy_attach__E                         
8283cec0  ti_sdo_ipc_MessageQ_SetupTransportProxy_isRegistered__E                   
8283b2c0  ti_sdo_ipc_MessageQ_SetupTransportProxy_sharedMemReq__E                   
82834520  ti_sdo_ipc_MessageQ_create                                                
828345e0  ti_sdo_ipc_MessageQ_grow__I                                               
828573b0  ti_sdo_ipc_MessageQ_maxRuntimeEntries__C                                  
828573b4  ti_sdo_ipc_MessageQ_numReservedEntries__C                                 
82824420  ti_sdo_ipc_MessageQ_registerTransport__E                                  
82824420  ti_sdo_ipc_MessageQ_registerTransport__F                                  
828246c0  ti_sdo_ipc_MessageQ_unregisterTransport__E                                
828246c0  ti_sdo_ipc_MessageQ_unregisterTransport__F                                
828573b8  ti_sdo_ipc_Notify_A_alreadyRegistered__C                                  
828573bc  ti_sdo_ipc_Notify_A_internal__C                                           
828573c0  ti_sdo_ipc_Notify_A_invArgument__C                                        
828573c4  ti_sdo_ipc_Notify_A_notRegistered__C                                      
828573c8  ti_sdo_ipc_Notify_A_reservedEvent__C                                      
82832ec0  ti_sdo_ipc_Notify_Instance_finalize__E                                    
82821440  ti_sdo_ipc_Notify_Instance_init__E                                        
8283b880  ti_sdo_ipc_Notify_Module_GateProxy_Handle__label__S                       
8283cbc0  ti_sdo_ipc_Notify_Module_GateProxy_enter__E                               
8283cbe0  ti_sdo_ipc_Notify_Module_GateProxy_leave__E                               
8283d560  ti_sdo_ipc_Notify_Module_GateProxy_query__E                               
8285bc30  ti_sdo_ipc_Notify_Module_State_0_notifyHandles_0__A                       
8285bc38  ti_sdo_ipc_Notify_Module_State_0_notifyHandles__A                         
828573cc  ti_sdo_ipc_Notify_Module__diagsEnabled__C                                 
828573d0  ti_sdo_ipc_Notify_Module__diagsIncluded__C                                
828573d4  ti_sdo_ipc_Notify_Module__diagsMask__C                                    
828573d8  ti_sdo_ipc_Notify_Module__gateObj__C                                      
82857102  ti_sdo_ipc_Notify_Module__id__C                                           
8285bb28  ti_sdo_ipc_Notify_Module__root__V                                         
8285bb30  ti_sdo_ipc_Notify_Module__state__V                                        
82830040  ti_sdo_ipc_Notify_Module_startup__E                                       
82856c90  ti_sdo_ipc_Notify_Object__DESC__C                                         
82857190  ti_sdo_ipc_Notify_Object__PARAMS__C                                       
828573dc  ti_sdo_ipc_Notify_Object__heap__C                                         
8283cdc0  ti_sdo_ipc_Notify_SetupProxy_attach__E                                    
8283cde0  ti_sdo_ipc_Notify_SetupProxy_numIntLines__E                               
8283ce00  ti_sdo_ipc_Notify_SetupProxy_sharedMemReq__E                              
82830160  ti_sdo_ipc_Notify_create                                                  
82831300  ti_sdo_ipc_Notify_exec__E                                                 
82831300  ti_sdo_ipc_Notify_exec__F                                                 
828573e0  ti_sdo_ipc_Notify_numEvents__C                                            
82857122  ti_sdo_ipc_Notify_numLines__C                                             
82857142  ti_sdo_ipc_Notify_reservedEvents__C                                       
828573e4  ti_sdo_ipc_SharedRegion_A_addrOutOfRange__C                               
828573e8  ti_sdo_ipc_SharedRegion_A_idTooLarge__C                                   
828573ec  ti_sdo_ipc_SharedRegion_A_noHeap__C                                       
828573f0  ti_sdo_ipc_SharedRegion_A_region0Invalid__C                               
828573f4  ti_sdo_ipc_SharedRegion_A_regionInvalid__C                                
828573f8  ti_sdo_ipc_SharedRegion_A_reserveTooMuch__C                               
828573fc  ti_sdo_ipc_SharedRegion_INVALIDSRPTR__C                                   
8285b210  ti_sdo_ipc_SharedRegion_Module_State_0_regions__A                         
82857400  ti_sdo_ipc_SharedRegion_Module__diagsEnabled__C                           
82857404  ti_sdo_ipc_SharedRegion_Module__diagsIncluded__C                          
82857408  ti_sdo_ipc_SharedRegion_Module__diagsMask__C                              
828577d0  ti_sdo_ipc_SharedRegion_Module__id__C                                     
8285b95c  ti_sdo_ipc_SharedRegion_Module__state__V                                  
82831400  ti_sdo_ipc_SharedRegion_attach__E                                         
82831400  ti_sdo_ipc_SharedRegion_attach__F                                         
82832fa0  ti_sdo_ipc_SharedRegion_clearReservedMemory__E                            
82832fa0  ti_sdo_ipc_SharedRegion_clearReservedMemory__F                            
828577d2  ti_sdo_ipc_SharedRegion_numEntries__C                                     
8285740c  ti_sdo_ipc_SharedRegion_numOffsetBits__C                                  
82857410  ti_sdo_ipc_SharedRegion_offsetMask__C                                     
828228c0  ti_sdo_ipc_SharedRegion_reserveMemory__E                                  
828228c0  ti_sdo_ipc_SharedRegion_reserveMemory__F                                  
82827ce0  ti_sdo_ipc_SharedRegion_start__E                                          
82827ce0  ti_sdo_ipc_SharedRegion_start__F                                          
828577d4  ti_sdo_ipc_SharedRegion_translate__C                                      
82857414  ti_sdo_ipc_gates_GateHWSem_A_invSemNum__C                                 
8283b040  ti_sdo_ipc_gates_GateHWSem_Handle__label__S                               
82830280  ti_sdo_ipc_gates_GateHWSem_Instance_init__E                               
82856758  ti_sdo_ipc_gates_GateHWSem_Module__FXNS__C                                
82857418  ti_sdo_ipc_gates_GateHWSem_Module__diagsEnabled__C                        
8285741c  ti_sdo_ipc_gates_GateHWSem_Module__diagsIncluded__C                       
82857420  ti_sdo_ipc_gates_GateHWSem_Module__diagsMask__C                           
828577d6  ti_sdo_ipc_gates_GateHWSem_Module__id__C                                  
8285bb38  ti_sdo_ipc_gates_GateHWSem_Module__root__V                                
828379a0  ti_sdo_ipc_gates_GateHWSem_Module_startup__E                              
82856cb0  ti_sdo_ipc_gates_GateHWSem_Object__DESC__C                                
828569b4  ti_sdo_ipc_gates_GateHWSem_Object__PARAMS__C                              
82837a20  ti_sdo_ipc_gates_GateHWSem_Object__create__S                              
8283b080  ti_sdo_ipc_gates_GateHWSem_Object__delete__S                              
8283cc00  ti_sdo_ipc_gates_GateHWSem_Params__init__S                                
82857424  ti_sdo_ipc_gates_GateHWSem_baseAddr__C                                    
82837aa0  ti_sdo_ipc_gates_GateHWSem_create                                         
82831500  ti_sdo_ipc_gates_GateHWSem_enter__E                                       
8283cc20  ti_sdo_ipc_gates_GateHWSem_getReservedMask__E                             
8283b0c0  ti_sdo_ipc_gates_GateHWSem_leave__E                                       
82857428  ti_sdo_ipc_gates_GateHWSem_numSems__C                                     
8283cc40  ti_sdo_ipc_gates_GateHWSem_query__E                                       
82857430  ti_sdo_ipc_gates_GateHWSem_reservedMaskArr__A                             
8285742c  ti_sdo_ipc_gates_GateHWSem_reservedMaskArr__C                             
8283cc60  ti_sdo_ipc_gates_GateHWSem_sharedMemReq__E                                
82857434  ti_sdo_ipc_gates_GateMPSupportNull_A_invalidAction__C                     
8283b100  ti_sdo_ipc_gates_GateMPSupportNull_Handle__label__S                       
8283cc80  ti_sdo_ipc_gates_GateMPSupportNull_Instance_init__E                       
82856784  ti_sdo_ipc_gates_GateMPSupportNull_Module__FXNS__C                        
82857438  ti_sdo_ipc_gates_GateMPSupportNull_Module__diagsEnabled__C                
8285743c  ti_sdo_ipc_gates_GateMPSupportNull_Module__diagsIncluded__C               
82857440  ti_sdo_ipc_gates_GateMPSupportNull_Module__diagsMask__C                   
828577d8  ti_sdo_ipc_gates_GateMPSupportNull_Module__id__C                          
8285bb40  ti_sdo_ipc_gates_GateMPSupportNull_Module__root__V                        
82856cd0  ti_sdo_ipc_gates_GateMPSupportNull_Object__DESC__C                        
828569d8  ti_sdo_ipc_gates_GateMPSupportNull_Object__PARAMS__C                      
82837b20  ti_sdo_ipc_gates_GateMPSupportNull_Object__create__S                      
8283b140  ti_sdo_ipc_gates_GateMPSupportNull_Object__delete__S                      
8283cca0  ti_sdo_ipc_gates_GateMPSupportNull_Params__init__S                        
82857444  ti_sdo_ipc_gates_GateMPSupportNull_action__C                              
82837ba0  ti_sdo_ipc_gates_GateMPSupportNull_create                                 
82833080  ti_sdo_ipc_gates_GateMPSupportNull_enter__E                               
8283ccc0  ti_sdo_ipc_gates_GateMPSupportNull_getReservedMask__E                     
82833160  ti_sdo_ipc_gates_GateMPSupportNull_leave__E                               
8283cce0  ti_sdo_ipc_gates_GateMPSupportNull_query__E                               
8283cd00  ti_sdo_ipc_gates_GateMPSupportNull_sharedMemReq__E                        
82857448  ti_sdo_ipc_gates_GatePeterson_E_gateRemotelyOpened__C                     
8283b180  ti_sdo_ipc_gates_GatePeterson_Handle__label__S                            
8283b1c0  ti_sdo_ipc_gates_GatePeterson_Instance_finalize__E                        
82820180  ti_sdo_ipc_gates_GatePeterson_Instance_init__E                            
828567b0  ti_sdo_ipc_gates_GatePeterson_Module__FXNS__C                             
8285744c  ti_sdo_ipc_gates_GatePeterson_Module__diagsEnabled__C                     
82857450  ti_sdo_ipc_gates_GatePeterson_Module__diagsIncluded__C                    
82857454  ti_sdo_ipc_gates_GatePeterson_Module__diagsMask__C                        
828577da  ti_sdo_ipc_gates_GatePeterson_Module__id__C                               
8285bb48  ti_sdo_ipc_gates_GatePeterson_Module__root__V                             
82856cf0  ti_sdo_ipc_gates_GatePeterson_Object__DESC__C                             
828569fc  ti_sdo_ipc_gates_GatePeterson_Object__PARAMS__C                           
828346a0  ti_sdo_ipc_gates_GatePeterson_Object__create__S                           
82839a20  ti_sdo_ipc_gates_GatePeterson_Object__delete__S                           
8283cd20  ti_sdo_ipc_gates_GatePeterson_Params__init__S                             
82834760  ti_sdo_ipc_gates_GatePeterson_create                                      
8282d660  ti_sdo_ipc_gates_GatePeterson_enter__E                                    
8283cd40  ti_sdo_ipc_gates_GatePeterson_getReservedMask__E                          
82836080  ti_sdo_ipc_gates_GatePeterson_leave__E                                    
82857458  ti_sdo_ipc_gates_GatePeterson_numInstances__C                             
82836120  ti_sdo_ipc_gates_GatePeterson_postInit__I                                 
8283cd60  ti_sdo_ipc_gates_GatePeterson_query__E                                    
82839a80  ti_sdo_ipc_gates_GatePeterson_sharedMemReq__E                             
8285745c  ti_sdo_ipc_heaps_HeapMemMP_A_align__C                                     
82857460  ti_sdo_ipc_heaps_HeapMemMP_A_heapSize__C                                  
82857464  ti_sdo_ipc_heaps_HeapMemMP_A_invalidFree__C                               
82857468  ti_sdo_ipc_heaps_HeapMemMP_A_zeroBlock__C                                 
8285746c  ti_sdo_ipc_heaps_HeapMemMP_E_memory__C                                    
8283b200  ti_sdo_ipc_heaps_HeapMemMP_Handle__label__S                               
82833240  ti_sdo_ipc_heaps_HeapMemMP_Instance_finalize__E                           
82819540  ti_sdo_ipc_heaps_HeapMemMP_Instance_init__E                               
82856808  ti_sdo_ipc_heaps_HeapMemMP_Module__FXNS__C                                
82857470  ti_sdo_ipc_heaps_HeapMemMP_Module__diagsEnabled__C                        
82857474  ti_sdo_ipc_heaps_HeapMemMP_Module__diagsIncluded__C                       
82857478  ti_sdo_ipc_heaps_HeapMemMP_Module__diagsMask__C                           
828577dc  ti_sdo_ipc_heaps_HeapMemMP_Module__id__C                                  
8285bb50  ti_sdo_ipc_heaps_HeapMemMP_Module__root__V                                
8285b9bc  ti_sdo_ipc_heaps_HeapMemMP_Module__state__V                               
82856d10  ti_sdo_ipc_heaps_HeapMemMP_Object__DESC__C                                
828566a0  ti_sdo_ipc_heaps_HeapMemMP_Object__PARAMS__C                              
82834820  ti_sdo_ipc_heaps_HeapMemMP_Object__create__S                              
82839ae0  ti_sdo_ipc_heaps_HeapMemMP_Object__delete__S                              
8283cd80  ti_sdo_ipc_heaps_HeapMemMP_Params__init__S                                
82814180  ti_sdo_ipc_heaps_HeapMemMP_alloc__E                                       
828348e0  ti_sdo_ipc_heaps_HeapMemMP_create                                         
82817be0  ti_sdo_ipc_heaps_HeapMemMP_free__E                                        
82831600  ti_sdo_ipc_heaps_HeapMemMP_getStats__E                                    
8283cda0  ti_sdo_ipc_heaps_HeapMemMP_isBlocking__E                                  
82823400  ti_sdo_ipc_heaps_HeapMemMP_postInit__I                                    
8285747c  ti_sdo_ipc_interfaces_IGateMPSupport_Interface__BASE__C                   
82857480  ti_sdo_ipc_interfaces_IMessageQTransport_Interface__BASE__C               
82857484  ti_sdo_ipc_interfaces_INetworkTransport_Interface__BASE__C                
82857488  ti_sdo_ipc_interfaces_ITransport_Interface__BASE__C                       
8283cdc0  ti_sdo_ipc_notifyDrivers_NotifySetupNull_attach__E                        
8283cde0  ti_sdo_ipc_notifyDrivers_NotifySetupNull_numIntLines__E                   
8283ce00  ti_sdo_ipc_notifyDrivers_NotifySetupNull_sharedMemReq__E                  
8285748c  ti_sdo_ipc_nsremote_NameServerRemoteNotify_A_invalidValueLen__C           
82857490  ti_sdo_ipc_nsremote_NameServerRemoteNotify_A_messageSize__C               
8283b240  ti_sdo_ipc_nsremote_NameServerRemoteNotify_Handle__label__S               
82857494  ti_sdo_ipc_nsremote_NameServerRemoteNotify_Instance_State_semMultiBlock__O
82857498  ti_sdo_ipc_nsremote_NameServerRemoteNotify_Instance_State_semRemoteWait__O
8285749c  ti_sdo_ipc_nsremote_NameServerRemoteNotify_Instance_State_swiRequest__O   
828574a0  ti_sdo_ipc_nsremote_NameServerRemoteNotify_Instance_State_swiResponse__O  
82833320  ti_sdo_ipc_nsremote_NameServerRemoteNotify_Instance_finalize__E           
828170e0  ti_sdo_ipc_nsremote_NameServerRemoteNotify_Instance_init__E               
82856830  ti_sdo_ipc_nsremote_NameServerRemoteNotify_Module__FXNS__C                
828574a4  ti_sdo_ipc_nsremote_NameServerRemoteNotify_Module__diagsEnabled__C        
828574a8  ti_sdo_ipc_nsremote_NameServerRemoteNotify_Module__diagsIncluded__C       
828574ac  ti_sdo_ipc_nsremote_NameServerRemoteNotify_Module__diagsMask__C           
828577de  ti_sdo_ipc_nsremote_NameServerRemoteNotify_Module__id__C                  
8285bb58  ti_sdo_ipc_nsremote_NameServerRemoteNotify_Module__root__V                
82856d30  ti_sdo_ipc_nsremote_NameServerRemoteNotify_Object__DESC__C                
82856d50  ti_sdo_ipc_nsremote_NameServerRemoteNotify_Object__PARAMS__C              
828349a0  ti_sdo_ipc_nsremote_NameServerRemoteNotify_Object__create__S              
82839b40  ti_sdo_ipc_nsremote_NameServerRemoteNotify_Object__delete__S              
8283ce20  ti_sdo_ipc_nsremote_NameServerRemoteNotify_Object__first__S               
8283ce40  ti_sdo_ipc_nsremote_NameServerRemoteNotify_Object__next__S                
8283ce60  ti_sdo_ipc_nsremote_NameServerRemoteNotify_Params__init__S                
8282eae0  ti_sdo_ipc_nsremote_NameServerRemoteNotify_attach__E                      
8282ec20  ti_sdo_ipc_nsremote_NameServerRemoteNotify_cbFxn__I                       
82834a60  ti_sdo_ipc_nsremote_NameServerRemoteNotify_create                         
8283ce80  ti_sdo_ipc_nsremote_NameServerRemoteNotify_delete                         
828361c0  ti_sdo_ipc_nsremote_NameServerRemoteNotify_detach__E                      
8281d5c0  ti_sdo_ipc_nsremote_NameServerRemoteNotify_get__E                         
8281d5c0  ti_sdo_ipc_nsremote_NameServerRemoteNotify_get__F                         
828574b0  ti_sdo_ipc_nsremote_NameServerRemoteNotify_notifyEventId__C               
8283cea0  ti_sdo_ipc_nsremote_NameServerRemoteNotify_sharedMemReq__E                
82827ee0  ti_sdo_ipc_nsremote_NameServerRemoteNotify_swiFxnRequest__I               
8283b280  ti_sdo_ipc_nsremote_NameServerRemoteNotify_swiFxnResponse__I              
828574b4  ti_sdo_ipc_nsremote_NameServerRemoteNotify_timeout__C                     
8285bc40  ti_sdo_ipc_transports_TransportShmSetup_Module_State_0_handles__A         
8285ba5c  ti_sdo_ipc_transports_TransportShmSetup_Module__state__V                  
82833400  ti_sdo_ipc_transports_TransportShmSetup_attach__E                         
8283cec0  ti_sdo_ipc_transports_TransportShmSetup_isRegistered__E                   
828574b8  ti_sdo_ipc_transports_TransportShmSetup_priority__C                       
8283b2c0  ti_sdo_ipc_transports_TransportShmSetup_sharedMemReq__E                   
8283b300  ti_sdo_ipc_transports_TransportShm_Handle__label__S                       
828574bc  ti_sdo_ipc_transports_TransportShm_Instance_State_swiObj__O               
8282aec0  ti_sdo_ipc_transports_TransportShm_Instance_finalize__E                   
828159c0  ti_sdo_ipc_transports_TransportShm_Instance_init__E                       
82856858  ti_sdo_ipc_transports_TransportShm_Module__FXNS__C                        
828574c0  ti_sdo_ipc_transports_TransportShm_Module__diagsEnabled__C                
828574c4  ti_sdo_ipc_transports_TransportShm_Module__diagsIncluded__C               
828574c8  ti_sdo_ipc_transports_TransportShm_Module__diagsMask__C                   
828577e0  ti_sdo_ipc_transports_TransportShm_Module__id__C                          
8285bb60  ti_sdo_ipc_transports_TransportShm_Module__root__V                        
82856d70  ti_sdo_ipc_transports_TransportShm_Object__DESC__C                        
82856880  ti_sdo_ipc_transports_TransportShm_Object__PARAMS__C                      
82834b20  ti_sdo_ipc_transports_TransportShm_Object__create__S                      
82839ba0  ti_sdo_ipc_transports_TransportShm_Object__delete__S                      
8283cee0  ti_sdo_ipc_transports_TransportShm_Params__init__S                        
8283cf00  ti_sdo_ipc_transports_TransportShm_control__E                             
82834be0  ti_sdo_ipc_transports_TransportShm_create                                 
8283cf20  ti_sdo_ipc_transports_TransportShm_getStatus__E                           
828577e2  ti_sdo_ipc_transports_TransportShm_notifyEventId__C                       
8283cf40  ti_sdo_ipc_transports_TransportShm_notifyFxn__I                           
8282b060  ti_sdo_ipc_transports_TransportShm_openByAddr__E                          
8282b200  ti_sdo_ipc_transports_TransportShm_put__E                                 
8283cf60  ti_sdo_ipc_transports_TransportShm_setErrFxn__E                           
82836260  ti_sdo_ipc_transports_TransportShm_sharedMemReq__E                        
82837c20  ti_sdo_ipc_transports_TransportShm_swiFxn__I                              
828574cc  ti_sdo_utils_INameServerRemote_Interface__BASE__C                         
8283cf80  ti_sdo_utils_List_Instance_init__E                                        
8285bb68  ti_sdo_utils_List_Module__root__V                                         
82856d90  ti_sdo_utils_List_Object__DESC__C                                         
828571a8  ti_sdo_utils_List_Object__PARAMS__C                                       
8283cfa0  ti_sdo_utils_List_Object__get__S                                          
82839c00  ti_sdo_utils_List_construct                                               
8283cfc0  ti_sdo_utils_List_destruct                                                
8283b340  ti_sdo_utils_List_get__E                                                  
8283b380  ti_sdo_utils_List_putHead__E                                              
8283b3c0  ti_sdo_utils_List_put__E                                                  
828574d0  ti_sdo_utils_MultiProc_A_invalidMultiProcId__C                            
8285bc68  ti_sdo_utils_MultiProc_Module_State_0_clusterProcList__A                  
8285bb70  ti_sdo_utils_MultiProc_Module__state__V                                   
8283cfe0  ti_sdo_utils_MultiProc_getClusterId__E                                    
8283cfe0  ti_sdo_utils_MultiProc_getClusterId__F                                    
828577e4  ti_sdo_utils_MultiProc_numProcessors__C                                   
828577e6  ti_sdo_utils_MultiProc_numProcsInCluster__C                               
828574d4  ti_sdo_utils_MultiProc_procAddrMode__C                                    
828574d8  ti_sdo_utils_NameServer_A_invArgument__C                                  
828574dc  ti_sdo_utils_NameServer_A_invalidLen__C                                   
828574e0  ti_sdo_utils_NameServer_E_entryExists__C                                  
828574e4  ti_sdo_utils_NameServer_E_maxReached__C                                   
828574e8  ti_sdo_utils_NameServer_Instance_State_freeList__O                        
828574ec  ti_sdo_utils_NameServer_Instance_State_nameList__O                        
8285bc48  ti_sdo_utils_NameServer_Module_State_0_nsRemoteHandle__A                  
828574f0  ti_sdo_utils_NameServer_Module__diagsEnabled__C                           
828574f4  ti_sdo_utils_NameServer_Module__diagsIncluded__C                          
828574f8  ti_sdo_utils_NameServer_Module__diagsMask__C                              
828577e8  ti_sdo_utils_NameServer_Module__id__C                                     
8285bb78  ti_sdo_utils_NameServer_Module__root__V                                   
8283d000  ti_sdo_utils_NameServer_Module__startupDone__F                            
8283d000  ti_sdo_utils_NameServer_Module__startupDone__S                            
8285bae0  ti_sdo_utils_NameServer_Module__state__V                                  
8282ed60  ti_sdo_utils_NameServer_Module_startup__E                                 
828574fc  ti_sdo_utils_NameServer_Object__count__C                                  
8283d020  ti_sdo_utils_NameServer_Object__first__S                                  
8283b400  ti_sdo_utils_NameServer_Object__get__S                                    
8283d040  ti_sdo_utils_NameServer_Object__next__S                                   
8285af40  ti_sdo_utils_NameServer_Object__table__V                                  
8283b240  ti_sdo_utils_NameServer_SetupProxy_Handle__label__S                       
8283ce60  ti_sdo_utils_NameServer_SetupProxy_Params__init__S                        
8282eae0  ti_sdo_utils_NameServer_SetupProxy_attach__E                              
828361c0  ti_sdo_utils_NameServer_SetupProxy_detach__E                              
8283cea0  ti_sdo_utils_NameServer_SetupProxy_sharedMemReq__E                        
8281f440  ti_sdo_utils_NameServer_isRegistered__E                                   
8281ed00  ti_sdo_utils_NameServer_registerRemoteDriver__E                           
8282c680  ti_sdo_utils_NameServer_removeLocal__I                                    
8281f7a0  ti_sdo_utils_NameServer_unregisterRemoteDriver__E                         
82859f58  ti_sysbios_BIOS_Module__state__V                                          
8283b7c0  ti_sysbios_BIOS_RtsGateProxy_Handle__label__S                             
8283d060  ti_sysbios_BIOS_RtsGateProxy_enter__E                                     
8283d080  ti_sysbios_BIOS_RtsGateProxy_leave__E                                     
8283d520  ti_sysbios_BIOS_RtsGateProxy_query__E                                     
82837ca0  ti_sysbios_BIOS_atExitFunc__I                                             
82839c60  ti_sysbios_BIOS_errorRaiseHook__I                                         
8283b440  ti_sysbios_BIOS_exitFunc__I                                               
8283d0a0  ti_sysbios_BIOS_exit__E                                                   
8283d0c0  ti_sysbios_BIOS_getThreadType__E                                          
8283d0e0  ti_sysbios_BIOS_linkedWithIncorrectBootLibrary__E                         
8283d100  ti_sysbios_BIOS_nullFunc__I                                               
82837d20  ti_sysbios_BIOS_registerRTSLock__I                                        
82839cc0  ti_sysbios_BIOS_removeRTSLock__I                                          
8283b480  ti_sysbios_BIOS_rtsLock__I                                                
8283b4c0  ti_sysbios_BIOS_rtsUnlock__I                                              
8283d120  ti_sysbios_BIOS_setThreadType__E                                          
82839d20  ti_sysbios_BIOS_startFunc__I                                              
8283d140  ti_sysbios_BIOS_start__E                                                  
8283d160  ti_sysbios_family_c62_TaskSupport_Module__startupDone__S                  
8283aec0  ti_sysbios_family_c62_TaskSupport_buildTaskStack                          
8283d180  ti_sysbios_family_c62_TaskSupport_checkStack__E                           
8283d1a0  ti_sysbios_family_c62_TaskSupport_getStackAlignment__E                    
8283c820  ti_sysbios_family_c62_TaskSupport_glue                                    
82857500  ti_sysbios_family_c62_TaskSupport_stackAlignment__C                       
82839d80  ti_sysbios_family_c62_TaskSupport_start__E                                
82837520  ti_sysbios_family_c62_TaskSupport_swap__E                                 
82857504  ti_sysbios_family_c64p_EventCombiner_A_invalidEventId__C                  
828572c0  ti_sysbios_family_c64p_EventCombiner_EVTMASK__C                           
82857508  ti_sysbios_family_c64p_EventCombiner_EVTRegs__C                           
8285750c  ti_sysbios_family_c64p_EventCombiner_E_unpluggedEvent__C                  
82857510  ti_sysbios_family_c64p_EventCombiner_Module__diagsEnabled__C              
82857514  ti_sysbios_family_c64p_EventCombiner_Module__diagsIncluded__C             
82857518  ti_sysbios_family_c64p_EventCombiner_Module__diagsMask__C                 
828577ea  ti_sysbios_family_c64p_EventCombiner_Module__id__C                        
8285a380  ti_sysbios_family_c64p_EventCombiner_Module__state__V                     
82839de0  ti_sysbios_family_c64p_EventCombiner_Module_startup__E                    
8282b3a0  ti_sysbios_family_c64p_EventCombiner_disableEvent__E                      
82828c20  ti_sysbios_family_c64p_EventCombiner_dispatchPlug__E                      
82825540  ti_sysbios_family_c64p_EventCombiner_dispatch__E                          
8282b540  ti_sysbios_family_c64p_EventCombiner_enableEvent__E                       
82839e40  ti_sysbios_family_c64p_EventCombiner_unused__E                            
8285751c  ti_sysbios_family_c64p_Exception_E_exceptionMax__C                        
828577ec  ti_sysbios_family_c64p_Exception_Module__id__C                            
8285b8a8  ti_sysbios_family_c64p_Exception_Module__state__V                         
82836300  ti_sysbios_family_c64p_Exception_Module_startup__E                        
8282c380  ti_sysbios_family_c64p_Exception_dispatch__E                              
82857520  ti_sysbios_family_c64p_Exception_exceptionHook__C                         
82857524  ti_sysbios_family_c64p_Exception_externalHook__C                          
8280e9c0  ti_sysbios_family_c64p_Exception_handler__I                               
82825780  ti_sysbios_family_c64p_Exception_internalHandler__I                       
82857528  ti_sysbios_family_c64p_Exception_internalHook__C                          
8285752c  ti_sysbios_family_c64p_Exception_nmiHook__C                               
828577ee  ti_sysbios_family_c64p_Exception_useInternalBuffer__C                     
8285c000  ti_sysbios_family_c64p_Hwi0                                               
82857530  ti_sysbios_family_c64p_Hwi_E_alreadyDefined__C                            
82857534  ti_sysbios_family_c64p_Hwi_E_handleNotFound__C                            
82857538  ti_sysbios_family_c64p_Hwi_E_invalidIntNum__C                             
8285753c  ti_sysbios_family_c64p_Hwi_INTRMUX1Address__C                             
82831700  ti_sysbios_family_c64p_Hwi_Instance_finalize__E                           
828303a0  ti_sysbios_family_c64p_Hwi_Instance_init__E                               
82857540  ti_sysbios_family_c64p_Hwi_LD_end__C                                      
82857544  ti_sysbios_family_c64p_Hwi_LM_begin__C                                    
82857548  ti_sysbios_family_c64p_Hwi_Module__diagsEnabled__C                        
8285754c  ti_sysbios_family_c64p_Hwi_Module__diagsIncluded__C                       
82857550  ti_sysbios_family_c64p_Hwi_Module__diagsMask__C                           
828577f0  ti_sysbios_family_c64p_Hwi_Module__id__C                                  
828577f2  ti_sysbios_family_c64p_Hwi_Module__loggerDefined__C                       
82857554  ti_sysbios_family_c64p_Hwi_Module__loggerFxn1__C                          
82857558  ti_sysbios_family_c64p_Hwi_Module__loggerFxn8__C                          
8285755c  ti_sysbios_family_c64p_Hwi_Module__loggerObj__C                           
8285bb80  ti_sysbios_family_c64p_Hwi_Module__root__V                                
8283d1c0  ti_sysbios_family_c64p_Hwi_Module__startupDone__F                         
8283d1c0  ti_sysbios_family_c64p_Hwi_Module__startupDone__S                         
8285b618  ti_sysbios_family_c64p_Hwi_Module__state__V                               
8282d7c0  ti_sysbios_family_c64p_Hwi_Module_startup__E                              
82856db0  ti_sysbios_family_c64p_Hwi_Object__DESC__C                                
828566d0  ti_sysbios_family_c64p_Hwi_Object__PARAMS__C                              
8285b9c0  ti_sysbios_family_c64p_Hwi_Object__table__V                               
8283d1e0  ti_sysbios_family_c64p_Hwi_Params__init__S                                
8283d200  ti_sysbios_family_c64p_Hwi_clearInterrupt__E                              
828363a0  ti_sysbios_family_c64p_Hwi_construct                                      
8283b500  ti_sysbios_family_c64p_Hwi_destruct                                       
8283b540  ti_sysbios_family_c64p_Hwi_disableInterrupt__E                            
828278e0  ti_sysbios_family_c64p_Hwi_dispatchAlways                                 
82836440  ti_sysbios_family_c64p_Hwi_dispatchC__I                                   
82824be0  ti_sysbios_family_c64p_Hwi_dispatchCore__I                                
8283b580  ti_sysbios_family_c64p_Hwi_enableInterrupt__E                             
828364e0  ti_sysbios_family_c64p_Hwi_eventMap__E                                    
82839ea0  ti_sysbios_family_c64p_Hwi_getEventId__E                                  
8283d220  ti_sysbios_family_c64p_Hwi_getFunc__E                                     
8283d240  ti_sysbios_family_c64p_Hwi_getHandle__E                                   
82836580  ti_sysbios_family_c64p_Hwi_getStackInfo__E                                
8285c000  ti_sysbios_family_c64p_Hwi_int0                                           
8285c020  ti_sysbios_family_c64p_Hwi_int1                                           
8285c140  ti_sysbios_family_c64p_Hwi_int10                                          
8285c160  ti_sysbios_family_c64p_Hwi_int11                                          
8285c180  ti_sysbios_family_c64p_Hwi_int12                                          
8285c1a0  ti_sysbios_family_c64p_Hwi_int13                                          
8285c1c0  ti_sysbios_family_c64p_Hwi_int14                                          
8285c1e0  ti_sysbios_family_c64p_Hwi_int15                                          
8285c040  ti_sysbios_family_c64p_Hwi_int2                                           
8285c060  ti_sysbios_family_c64p_Hwi_int3                                           
8285c080  ti_sysbios_family_c64p_Hwi_int4                                           
8285c0a0  ti_sysbios_family_c64p_Hwi_int5                                           
8285c0c0  ti_sysbios_family_c64p_Hwi_int6                                           
8285c0e0  ti_sysbios_family_c64p_Hwi_int7                                           
8285c100  ti_sysbios_family_c64p_Hwi_int8                                           
8285c120  ti_sysbios_family_c64p_Hwi_int9                                           
82835ea0  ti_sysbios_family_c64p_Hwi_plug__E                                        
82826260  ti_sysbios_family_c64p_Hwi_reconfig__E                                    
8283d260  ti_sysbios_family_c64p_Hwi_startup__E                                     
82839600  ti_sysbios_family_c64p_Hwi_switchAndDispatch__I                           
8283d280  ti_sysbios_family_c64p_Hwi_switchFromBootStack__E                         
8283d2a0  ti_sysbios_family_c64p_Hwi_unPluggedInterrupt__I                          
8283d2c0  ti_sysbios_family_c64p_TimestampProvider_Module_startup__E                
8283d2e0  ti_sysbios_family_c64p_TimestampProvider_get64__E                         
8283d300  ti_sysbios_family_c64p_tci6488_TimerSupport_enable__E                     
82857560  ti_sysbios_family_c66_Cache_E_invalidL1CacheSize__C                       
82857564  ti_sysbios_family_c66_Cache_E_invalidL2CacheSize__C                       
828577f4  ti_sysbios_family_c66_Cache_Module__id__C                                 
82839f00  ti_sysbios_family_c66_Cache_Module_startup__E                             
8283d320  ti_sysbios_family_c66_Cache_RTSSynchInv__I                                
8283d340  ti_sysbios_family_c66_Cache_RTSSynchWbInv__I                              
8283d360  ti_sysbios_family_c66_Cache_RTSSynchWb__I                                 
82857568  ti_sysbios_family_c66_Cache_atomicBlockSize__C                            
8282b6e0  ti_sysbios_family_c66_Cache_block__I                                      
8282b880  ti_sysbios_family_c66_Cache_getL2InitSize__I                              
82837da0  ti_sysbios_family_c66_Cache_invL1pAll__E                                  
8283d380  ti_sysbios_family_c66_Cache_inv__E                                        
00008000  ti_sysbios_family_c66_Cache_l1dSize                                       
00008000  ti_sysbios_family_c66_Cache_l1pSize                                       
00000000  ti_sysbios_family_c66_Cache_l2Size                                        
828555c0  ti_sysbios_family_c66_Cache_marvalues__C                                  
828577f6  ti_sysbios_family_c66_Cache_registerRTSSynch__C                           
8281f0a0  ti_sysbios_family_c66_Cache_startup__I                                    
8283d3a0  ti_sysbios_family_c66_Cache_wait__E                                       
8283d3c0  ti_sysbios_family_c66_Cache_wbInv__E                                      
8285756c  ti_sysbios_family_c66_tci66xx_CpIntc_E_unpluggedSysInt__C                 
8285ba88  ti_sysbios_family_c66_tci66xx_CpIntc_Module_State_0_controller__A         
82859a58  ti_sysbios_family_c66_tci66xx_CpIntc_Module_State_0_dispatchTab__A        
8285b178  ti_sysbios_family_c66_tci66xx_CpIntc_Module_State_0_hostIntToSysInt__A    
8285ba60  ti_sysbios_family_c66_tci66xx_CpIntc_Module_State_0_initSIER__A           
828577f8  ti_sysbios_family_c66_tci66xx_CpIntc_Module__id__C                        
8285ba98  ti_sysbios_family_c66_tci66xx_CpIntc_Module__state__V                     
828204c0  ti_sysbios_family_c66_tci66xx_CpIntc_Module_startup__E                    
8283b5c0  ti_sysbios_family_c66_tci66xx_CpIntc_dispatchPlug__E                      
82829c40  ti_sysbios_family_c66_tci66xx_CpIntc_dispatch__E                          
8283d3e0  ti_sysbios_family_c66_tci66xx_CpIntc_enableHostInt__E                     
82857028  ti_sysbios_family_c66_tci66xx_CpIntc_eventId__A                           
82857570  ti_sysbios_family_c66_tci66xx_CpIntc_eventId__C                           
82837e20  ti_sysbios_family_c66_tci66xx_CpIntc_getEventId__E                        
82857048  ti_sysbios_family_c66_tci66xx_CpIntc_hostIntToEventId_0__A                
82857068  ti_sysbios_family_c66_tci66xx_CpIntc_hostIntToEventId_1__A                
82857088  ti_sysbios_family_c66_tci66xx_CpIntc_hostIntToEventId_2__A                
828570a8  ti_sysbios_family_c66_tci66xx_CpIntc_hostIntToEventId_3__A                
828570c8  ti_sysbios_family_c66_tci66xx_CpIntc_hostIntToEventId_4__A                
828570e8  ti_sysbios_family_c66_tci66xx_CpIntc_hostIntToEventId_5__A                
82857108  ti_sysbios_family_c66_tci66xx_CpIntc_hostIntToEventId_6__A                
82857128  ti_sysbios_family_c66_tci66xx_CpIntc_hostIntToEventId_7__A                
82856dd0  ti_sysbios_family_c66_tci66xx_CpIntc_hostIntToEventId__A                  
82857574  ti_sysbios_family_c66_tci66xx_CpIntc_hostIntToEventId__C                  
82836620  ti_sysbios_family_c66_tci66xx_CpIntc_mapSysIntToHostInt__E                
82857578  ti_sysbios_family_c66_tci66xx_CpIntc_numEvents__C                         
8285757c  ti_sysbios_family_c66_tci66xx_CpIntc_numStatusRegs__C                     
82857580  ti_sysbios_family_c66_tci66xx_CpIntc_numSysInts__C                        
82855da8  ti_sysbios_family_c66_tci66xx_CpIntc_sysIntToHostInt__A                   
82857584  ti_sysbios_family_c66_tci66xx_CpIntc_sysIntToHostInt__C                   
82839f60  ti_sysbios_family_c66_tci66xx_CpIntc_unused__E                            
82839660  ti_sysbios_family_xxx_Hwi_switchAndRunFunc                                
8283b600  ti_sysbios_gates_GateAll_Handle__label__S                                 
8283d400  ti_sysbios_gates_GateAll_Instance_init__E                                 
82856a20  ti_sysbios_gates_GateAll_Module__FXNS__C                                  
8285bb88  ti_sysbios_gates_GateAll_Module__root__V                                  
82856df0  ti_sysbios_gates_GateAll_Object__DESC__C                                  
828571c0  ti_sysbios_gates_GateAll_Object__PARAMS__C                                
82837ea0  ti_sysbios_gates_GateAll_Object__create__S                                
8283b640  ti_sysbios_gates_GateAll_Object__delete__S                                
8285baa8  ti_sysbios_gates_GateAll_Object__table__V                                 
82839fc0  ti_sysbios_gates_GateAll_enter__E                                         
82834ca0  ti_sysbios_gates_GateAll_leave__E                                         
8283d420  ti_sysbios_gates_GateAll_query__E                                         
8283b680  ti_sysbios_gates_GateHwi_Handle__label__S                                 
8283d440  ti_sysbios_gates_GateHwi_Instance_init__E                                 
82856a44  ti_sysbios_gates_GateHwi_Module__FXNS__C                                  
8285bb90  ti_sysbios_gates_GateHwi_Module__root__V                                  
82856e10  ti_sysbios_gates_GateHwi_Object__DESC__C                                  
828571d8  ti_sysbios_gates_GateHwi_Object__PARAMS__C                                
82837f20  ti_sysbios_gates_GateHwi_Object__create__S                                
8283b6c0  ti_sysbios_gates_GateHwi_Object__delete__S                                
8285bc50  ti_sysbios_gates_GateHwi_Object__table__V                                 
8283d460  ti_sysbios_gates_GateHwi_enter__E                                         
8283d480  ti_sysbios_gates_GateHwi_leave__E                                         
8283d4a0  ti_sysbios_gates_GateHwi_query__E                                         
82857588  ti_sysbios_gates_GateMutexPri_A_badContext__C                             
8285758c  ti_sysbios_gates_GateMutexPri_A_enterTaskDisabled__C                      
8283b700  ti_sysbios_gates_GateMutexPri_Handle__label__S                            
82857590  ti_sysbios_gates_GateMutexPri_Instance_State_pendQ__O                     
8283d4c0  ti_sysbios_gates_GateMutexPri_Instance_finalize__E                        
8283b740  ti_sysbios_gates_GateMutexPri_Instance_init__E                            
82856a68  ti_sysbios_gates_GateMutexPri_Module__FXNS__C                             
82857594  ti_sysbios_gates_GateMutexPri_Module__diagsEnabled__C                     
82857598  ti_sysbios_gates_GateMutexPri_Module__diagsIncluded__C                    
8285759c  ti_sysbios_gates_GateMutexPri_Module__diagsMask__C                        
828577fa  ti_sysbios_gates_GateMutexPri_Module__id__C                               
8285bb98  ti_sysbios_gates_GateMutexPri_Module__root__V                             
82856e30  ti_sysbios_gates_GateMutexPri_Object__DESC__C                             
828571f0  ti_sysbios_gates_GateMutexPri_Object__PARAMS__C                           
82837fa0  ti_sysbios_gates_GateMutexPri_Object__create__S                           
8283a020  ti_sysbios_gates_GateMutexPri_Object__delete__S                           
8285b9d8  ti_sysbios_gates_GateMutexPri_Object__table__V                            
8283a080  ti_sysbios_gates_GateMutexPri_construct                                   
8283b780  ti_sysbios_gates_GateMutexPri_destruct                                    
8281a780  ti_sysbios_gates_GateMutexPri_enter__E                                    
82831800  ti_sysbios_gates_GateMutexPri_leave__E                                    
8283d4e0  ti_sysbios_gates_GateMutexPri_query__E                                    
828575a0  ti_sysbios_gates_GateMutex_A_badContext__C                                
8283b7c0  ti_sysbios_gates_GateMutex_Handle__label__S                               
828575a4  ti_sysbios_gates_GateMutex_Instance_State_sem__O                          
8283d500  ti_sysbios_gates_GateMutex_Instance_finalize__E                           
8283b800  ti_sysbios_gates_GateMutex_Instance_init__E                               
82856a8c  ti_sysbios_gates_GateMutex_Module__FXNS__C                                
828575a8  ti_sysbios_gates_GateMutex_Module__diagsEnabled__C                        
828575ac  ti_sysbios_gates_GateMutex_Module__diagsIncluded__C                       
828575b0  ti_sysbios_gates_GateMutex_Module__diagsMask__C                           
828577fc  ti_sysbios_gates_GateMutex_Module__id__C                                  
8285bba0  ti_sysbios_gates_GateMutex_Module__root__V                                
82856e50  ti_sysbios_gates_GateMutex_Object__DESC__C                                
82857208  ti_sysbios_gates_GateMutex_Object__PARAMS__C                              
82838020  ti_sysbios_gates_GateMutex_Object__create__S                              
8283a0e0  ti_sysbios_gates_GateMutex_Object__delete__S                              
8285b838  ti_sysbios_gates_GateMutex_Object__table__V                               
82828e00  ti_sysbios_gates_GateMutex_enter__E                                       
8283b840  ti_sysbios_gates_GateMutex_leave__E                                       
8283d520  ti_sysbios_gates_GateMutex_query__E                                       
828575b4  ti_sysbios_gates_GateSwi_A_badContext__C                                  
8283b880  ti_sysbios_gates_GateSwi_Handle__label__S                                 
8283d540  ti_sysbios_gates_GateSwi_Instance_init__E                                 
82856ab0  ti_sysbios_gates_GateSwi_Module__FXNS__C                                  
828575b8  ti_sysbios_gates_GateSwi_Module__diagsEnabled__C                          
828575bc  ti_sysbios_gates_GateSwi_Module__diagsIncluded__C                         
828575c0  ti_sysbios_gates_GateSwi_Module__diagsMask__C                             
828577fe  ti_sysbios_gates_GateSwi_Module__id__C                                    
8285bba8  ti_sysbios_gates_GateSwi_Module__root__V                                  
82856e70  ti_sysbios_gates_GateSwi_Object__DESC__C                                  
82857220  ti_sysbios_gates_GateSwi_Object__PARAMS__C                                
828380a0  ti_sysbios_gates_GateSwi_Object__create__S                                
8283b8c0  ti_sysbios_gates_GateSwi_Object__delete__S                                
8285baf0  ti_sysbios_gates_GateSwi_Object__table__V                                 
8282eea0  ti_sysbios_gates_GateSwi_enter__E                                         
828366c0  ti_sysbios_gates_GateSwi_leave__E                                         
8283d560  ti_sysbios_gates_GateSwi_query__E                                         
8283d380  ti_sysbios_hal_Cache_CacheProxy_inv__E                                    
8283d3a0  ti_sysbios_hal_Cache_CacheProxy_wait__E                                   
8283d3c0  ti_sysbios_hal_Cache_CacheProxy_wbInv__E                                  
8283d380  ti_sysbios_hal_Cache_inv__E                                               
8283d3a0  ti_sysbios_hal_Cache_wait__E                                              
8283d3c0  ti_sysbios_hal_Cache_wbInv__E                                             
828575c4  ti_sysbios_hal_Hwi_E_stackOverflow__C                                     
8283d1c0  ti_sysbios_hal_Hwi_HwiProxy_Module__startupDone__S                        
8283d1e0  ti_sysbios_hal_Hwi_HwiProxy_Params__init__S                               
8283d200  ti_sysbios_hal_Hwi_HwiProxy_clearInterrupt__E                             
8283b540  ti_sysbios_hal_Hwi_HwiProxy_disableInterrupt__E                           
8283b580  ti_sysbios_hal_Hwi_HwiProxy_enableInterrupt__E                            
82836580  ti_sysbios_hal_Hwi_HwiProxy_getStackInfo__E                               
8283d260  ti_sysbios_hal_Hwi_HwiProxy_startup__E                                    
8283d280  ti_sysbios_hal_Hwi_HwiProxy_switchFromBootStack__E                        
82857800  ti_sysbios_hal_Hwi_Module__id__C                                          
8283d580  ti_sysbios_hal_Hwi_Module_startup__E                                      
8285bbb0  ti_sysbios_hal_Hwi_Object__table__V                                       
82838120  ti_sysbios_hal_Hwi_checkStack                                             
8283d200  ti_sysbios_hal_Hwi_clearInterrupt__E                                      
8283b540  ti_sysbios_hal_Hwi_disableInterrupt__E                                    
8283b580  ti_sysbios_hal_Hwi_enableInterrupt__E                                     
82836580  ti_sysbios_hal_Hwi_getStackInfo__E                                        
828381a0  ti_sysbios_hal_Hwi_initStack                                              
8283d260  ti_sysbios_hal_Hwi_startup__E                                             
8283d280  ti_sysbios_hal_Hwi_switchFromBootStack__E                                 
828575c8  ti_sysbios_heaps_HeapMem_A_align__C                                       
828575cc  ti_sysbios_heaps_HeapMem_A_heapSize__C                                    
828575d0  ti_sysbios_heaps_HeapMem_A_invalidFree__C                                 
828575d4  ti_sysbios_heaps_HeapMem_A_zeroBlock__C                                   
828575d8  ti_sysbios_heaps_HeapMem_E_memory__C                                      
8283b900  ti_sysbios_heaps_HeapMem_Handle__label__S                                 
8283dd00  ti_sysbios_heaps_HeapMem_Instance_State_0_buf__A                          
82822ba0  ti_sysbios_heaps_HeapMem_Instance_init__E                                 
8283b7c0  ti_sysbios_heaps_HeapMem_Module_GateProxy_Handle__label__S                
8283d5a0  ti_sysbios_heaps_HeapMem_Module_GateProxy_enter__E                        
8283d5c0  ti_sysbios_heaps_HeapMem_Module_GateProxy_leave__E                        
8283d520  ti_sysbios_heaps_HeapMem_Module_GateProxy_query__E                        
828568a8  ti_sysbios_heaps_HeapMem_Module__FXNS__C                                  
828575dc  ti_sysbios_heaps_HeapMem_Module__diagsEnabled__C                          
828575e0  ti_sysbios_heaps_HeapMem_Module__diagsIncluded__C                         
828575e4  ti_sysbios_heaps_HeapMem_Module__diagsMask__C                             
828575e8  ti_sysbios_heaps_HeapMem_Module__gateObj__C                               
82857802  ti_sysbios_heaps_HeapMem_Module__id__C                                    
8285bbb8  ti_sysbios_heaps_HeapMem_Module__root__V                                  
82856e90  ti_sysbios_heaps_HeapMem_Object__DESC__C                                  
82856ad4  ti_sysbios_heaps_HeapMem_Object__PARAMS__C                                
828575ec  ti_sysbios_heaps_HeapMem_Object__count__C                                 
82838220  ti_sysbios_heaps_HeapMem_Object__create__S                                
8283b940  ti_sysbios_heaps_HeapMem_Object__delete__S                                
8283b980  ti_sysbios_heaps_HeapMem_Object__get__S                                   
8285b9f0  ti_sysbios_heaps_HeapMem_Object__table__V                                 
828147a0  ti_sysbios_heaps_HeapMem_allocUnprotected__E                              
828334e0  ti_sysbios_heaps_HeapMem_alloc__E                                         
82816580  ti_sysbios_heaps_HeapMem_freeUnprotected__E                               
8283a140  ti_sysbios_heaps_HeapMem_free__E                                          
82834d60  ti_sysbios_heaps_HeapMem_getStats__E                                      
828382a0  ti_sysbios_heaps_HeapMem_init__I                                          
8283d5e0  ti_sysbios_heaps_HeapMem_isBlocking__E                                    
828575f0  ti_sysbios_heaps_HeapMem_reqAlign__C                                      
828575f4  ti_sysbios_knl_Clock_LM_begin__C                                          
828575f8  ti_sysbios_knl_Clock_LM_tick__C                                           
828575fc  ti_sysbios_knl_Clock_LW_delayed__C                                        
82857600  ti_sysbios_knl_Clock_Module_State_clockQ__O                               
82857604  ti_sysbios_knl_Clock_Module__diagsEnabled__C                              
82857608  ti_sysbios_knl_Clock_Module__diagsIncluded__C                             
8285760c  ti_sysbios_knl_Clock_Module__diagsMask__C                                 
82857804  ti_sysbios_knl_Clock_Module__id__C                                        
82857806  ti_sysbios_knl_Clock_Module__loggerDefined__C                             
82857610  ti_sysbios_knl_Clock_Module__loggerFxn1__C                                
82857614  ti_sysbios_knl_Clock_Module__loggerFxn2__C                                
82857618  ti_sysbios_knl_Clock_Module__loggerObj__C                                 
8285b908  ti_sysbios_knl_Clock_Module__state__V                                     
8283a1a0  ti_sysbios_knl_Clock_Module_startup__E                                    
8283d820  ti_sysbios_knl_Clock_TimerProxy_Module__startupDone__S                    
8283d600  ti_sysbios_knl_Clock_TimerProxy_getMaxTicks__E                            
828336a0  ti_sysbios_knl_Clock_TimerProxy_startup__E                                
82838320  ti_sysbios_knl_Clock_doTick__I                                            
82834e20  ti_sysbios_knl_Clock_logTick__E                                           
8285761c  ti_sysbios_knl_Clock_tickPeriod__C                                        
828236c0  ti_sysbios_knl_Clock_workFunc__E                                          
82857620  ti_sysbios_knl_Idle_funcList__A                                           
828572f0  ti_sysbios_knl_Idle_funcList__C                                           
8283d620  ti_sysbios_knl_Idle_loop__E                                               
828383a0  ti_sysbios_knl_Idle_run__E                                                
8283d640  ti_sysbios_knl_Queue_Instance_init__E                                     
8285bbc0  ti_sysbios_knl_Queue_Module__root__V                                      
82856eb0  ti_sysbios_knl_Queue_Object__DESC__C                                      
82857238  ti_sysbios_knl_Queue_Object__PARAMS__C                                    
8283d660  ti_sysbios_knl_Queue_Object__get__S                                       
8283a200  ti_sysbios_knl_Queue_construct                                            
8283d680  ti_sysbios_knl_Queue_destruct                                             
8283d6a0  ti_sysbios_knl_Queue_empty__E                                             
82857624  ti_sysbios_knl_Semaphore_A_badContext__C                                  
82857628  ti_sysbios_knl_Semaphore_A_noEvents__C                                    
8285762c  ti_sysbios_knl_Semaphore_A_overflow__C                                    
82857630  ti_sysbios_knl_Semaphore_A_pendTaskDisabled__C                            
82857634  ti_sysbios_knl_Semaphore_Instance_State_pendQ__O                          
8283d6c0  ti_sysbios_knl_Semaphore_Instance_finalize__E                             
8282efe0  ti_sysbios_knl_Semaphore_Instance_init__E                                 
82857638  ti_sysbios_knl_Semaphore_LM_pend__C                                       
8285763c  ti_sysbios_knl_Semaphore_LM_post__C                                       
82857640  ti_sysbios_knl_Semaphore_Module__diagsEnabled__C                          
82857644  ti_sysbios_knl_Semaphore_Module__diagsIncluded__C                         
82857648  ti_sysbios_knl_Semaphore_Module__diagsMask__C                             
82857808  ti_sysbios_knl_Semaphore_Module__id__C                                    
8285780a  ti_sysbios_knl_Semaphore_Module__loggerDefined__C                         
8285764c  ti_sysbios_knl_Semaphore_Module__loggerFxn2__C                            
82857650  ti_sysbios_knl_Semaphore_Module__loggerFxn4__C                            
82857654  ti_sysbios_knl_Semaphore_Module__loggerObj__C                             
8285bbc8  ti_sysbios_knl_Semaphore_Module__root__V                                  
82856ed0  ti_sysbios_knl_Semaphore_Object__DESC__C                                  
82856af8  ti_sysbios_knl_Semaphore_Object__PARAMS__C                                
8283a260  ti_sysbios_knl_Semaphore_Object__delete__S                                
8283d6e0  ti_sysbios_knl_Semaphore_Params__init__S                                  
8283a2c0  ti_sysbios_knl_Semaphore_construct                                        
82838420  ti_sysbios_knl_Semaphore_create                                           
8283d700  ti_sysbios_knl_Semaphore_delete                                           
8283b9c0  ti_sysbios_knl_Semaphore_destruct                                         
828384a0  ti_sysbios_knl_Semaphore_pendTimeout__I                                   
8280f140  ti_sysbios_knl_Semaphore_pend__E                                          
82824e40  ti_sysbios_knl_Semaphore_post__E                                          
82857658  ti_sysbios_knl_Swi_A_badPriority__C                                       
828335c0  ti_sysbios_knl_Swi_Instance_finalize__E                                   
8282c800  ti_sysbios_knl_Swi_Instance_init__E                                       
8285765c  ti_sysbios_knl_Swi_LD_end__C                                              
82857660  ti_sysbios_knl_Swi_LM_begin__C                                            
82857664  ti_sysbios_knl_Swi_LM_post__C                                             
8285b320  ti_sysbios_knl_Swi_Module_State_0_readyQ__A                               
82857668  ti_sysbios_knl_Swi_Module__diagsEnabled__C                                
8285766c  ti_sysbios_knl_Swi_Module__diagsIncluded__C                               
82857670  ti_sysbios_knl_Swi_Module__diagsMask__C                                   
8285780c  ti_sysbios_knl_Swi_Module__id__C                                          
8285780e  ti_sysbios_knl_Swi_Module__loggerDefined__C                               
82857674  ti_sysbios_knl_Swi_Module__loggerFxn1__C                                  
82857678  ti_sysbios_knl_Swi_Module__loggerFxn4__C                                  
8285767c  ti_sysbios_knl_Swi_Module__loggerObj__C                                   
8285bbd0  ti_sysbios_knl_Swi_Module__root__V                                        
8285b9a0  ti_sysbios_knl_Swi_Module__state__V                                       
8283a320  ti_sysbios_knl_Swi_Module_startup__E                                      
82856ef0  ti_sysbios_knl_Swi_Object__DESC__C                                        
828568d0  ti_sysbios_knl_Swi_Object__PARAMS__C                                      
82857680  ti_sysbios_knl_Swi_Object__count__C                                       
8283ba00  ti_sysbios_knl_Swi_Object__get__S                                         
8285b8d8  ti_sysbios_knl_Swi_Object__table__V                                       
8283d720  ti_sysbios_knl_Swi_Params__init__S                                        
82836760  ti_sysbios_knl_Swi_construct                                              
8283ba40  ti_sysbios_knl_Swi_destruct                                               
8283d740  ti_sysbios_knl_Swi_disable__E                                             
8282d920  ti_sysbios_knl_Swi_post__E                                                
828304c0  ti_sysbios_knl_Swi_restoreHwi__E                                          
82821740  ti_sysbios_knl_Swi_runLoop__I                                             
82826480  ti_sysbios_knl_Swi_run__I                                                 
82834ee0  ti_sysbios_knl_Swi_schedule__I                                            
82838520  ti_sysbios_knl_Swi_startup__E                                             
82857684  ti_sysbios_knl_Task_A_badPriority__C                                      
82857688  ti_sysbios_knl_Task_A_badTaskState__C                                     
8285768c  ti_sysbios_knl_Task_A_badThreadType__C                                    
82857690  ti_sysbios_knl_Task_A_badTimeout__C                                       
82857694  ti_sysbios_knl_Task_A_noPendElem__C                                       
82857698  ti_sysbios_knl_Task_A_sleepTaskDisabled__C                                
8285769c  ti_sysbios_knl_Task_E_spOutOfBounds__C                                    
828576a0  ti_sysbios_knl_Task_E_stackOverflow__C                                    
8284c500  ti_sysbios_knl_Task_Instance_State_0_stack__A                             
82818b80  ti_sysbios_knl_Task_Instance_finalize__E                                  
8281e940  ti_sysbios_knl_Task_Instance_init__E                                      
828576a4  ti_sysbios_knl_Task_LD_block__C                                           
828576a8  ti_sysbios_knl_Task_LD_exit__C                                            
828576ac  ti_sysbios_knl_Task_LD_ready__C                                           
828576b0  ti_sysbios_knl_Task_LM_setPri__C                                          
828576b4  ti_sysbios_knl_Task_LM_sleep__C                                           
828576b8  ti_sysbios_knl_Task_LM_switch__C                                          
8285bc58  ti_sysbios_knl_Task_Module_State_0_idleTask__A                            
8285b3a0  ti_sysbios_knl_Task_Module_State_0_readyQ__A                              
828576bc  ti_sysbios_knl_Task_Module_State_inactiveQ__O                             
828576c0  ti_sysbios_knl_Task_Module__diagsEnabled__C                               
828576c4  ti_sysbios_knl_Task_Module__diagsIncluded__C                              
828576c8  ti_sysbios_knl_Task_Module__diagsMask__C                                  
82857810  ti_sysbios_knl_Task_Module__id__C                                         
82857812  ti_sysbios_knl_Task_Module__loggerDefined__C                              
828576cc  ti_sysbios_knl_Task_Module__loggerFxn2__C                                 
828576d0  ti_sysbios_knl_Task_Module__loggerFxn4__C                                 
828576d4  ti_sysbios_knl_Task_Module__loggerObj__C                                  
8285bbd8  ti_sysbios_knl_Task_Module__root__V                                       
8285b7f0  ti_sysbios_knl_Task_Module__state__V                                      
82821a40  ti_sysbios_knl_Task_Module_startup__E                                     
82856f10  ti_sysbios_knl_Task_Object__DESC__C                                       
828564c8  ti_sysbios_knl_Task_Object__PARAMS__C                                     
828576d8  ti_sysbios_knl_Task_Object__count__C                                      
8283ba80  ti_sysbios_knl_Task_Object__get__S                                        
8285b6f0  ti_sysbios_knl_Task_Object__table__V                                      
8283d160  ti_sysbios_knl_Task_SupportProxy_Module__startupDone__S                   
8283d180  ti_sysbios_knl_Task_SupportProxy_checkStack__E                            
8283d1a0  ti_sysbios_knl_Task_SupportProxy_getStackAlignment__E                     
82839d80  ti_sysbios_knl_Task_SupportProxy_start__E                                 
82837520  ti_sysbios_knl_Task_SupportProxy_swap__E                                  
828576dc  ti_sysbios_knl_Task_allBlockedFunc__C                                     
82834fa0  ti_sysbios_knl_Task_allBlockedFunction__I                                 
8282f120  ti_sysbios_knl_Task_blockI__E                                             
82829e00  ti_sysbios_knl_Task_checkStacks__E                                        
82835060  ti_sysbios_knl_Task_create                                                
828576e0  ti_sysbios_knl_Task_defaultStackHeap__C                                   
828576e4  ti_sysbios_knl_Task_defaultStackSize__C                                   
8283d760  ti_sysbios_knl_Task_disable__E                                            
8283a380  ti_sysbios_knl_Task_enter__I                                              
8282c980  ti_sysbios_knl_Task_exit__E                                               
828576e8  ti_sysbios_knl_Task_numConstructedTasks__C                                
8282f260  ti_sysbios_knl_Task_postInit__I                                           
828385a0  ti_sysbios_knl_Task_restore__E                                            
8282ba20  ti_sysbios_knl_Task_schedule__I                                           
8281c5a0  ti_sysbios_knl_Task_setPri__E                                             
8283bac0  ti_sysbios_knl_Task_sleepTimeout__I                                       
8281b060  ti_sysbios_knl_Task_sleep__E                                              
8282cb00  ti_sysbios_knl_Task_startCore__E                                          
8283d780  ti_sysbios_knl_Task_startup__E                                            
82831900  ti_sysbios_knl_Task_unblockI__E                                           
8283bb00  ti_sysbios_syncs_SyncSem_Handle__label__S                                 
8283d7a0  ti_sysbios_syncs_SyncSem_Instance_finalize__E                             
8282cc80  ti_sysbios_syncs_SyncSem_Instance_init__E                                 
82856b1c  ti_sysbios_syncs_SyncSem_Module__FXNS__C                                  
828576ec  ti_sysbios_syncs_SyncSem_Module__diagsEnabled__C                          
828576f0  ti_sysbios_syncs_SyncSem_Module__diagsIncluded__C                         
828576f4  ti_sysbios_syncs_SyncSem_Module__diagsMask__C                             
82857814  ti_sysbios_syncs_SyncSem_Module__id__C                                    
8285bbe0  ti_sysbios_syncs_SyncSem_Module__root__V                                  
82856f30  ti_sysbios_syncs_SyncSem_Object__DESC__C                                  
82857008  ti_sysbios_syncs_SyncSem_Object__PARAMS__C                                
82835120  ti_sysbios_syncs_SyncSem_Object__create__S                                
8283a3e0  ti_sysbios_syncs_SyncSem_Object__delete__S                                
828351e0  ti_sysbios_syncs_SyncSem_create                                           
8283d7c0  ti_sysbios_syncs_SyncSem_delete                                           
8283d7e0  ti_sysbios_syncs_SyncSem_query__E                                         
8283d800  ti_sysbios_syncs_SyncSem_signal__E                                        
828386a0  ti_sysbios_syncs_SyncSem_wait__E                                          
828576f8  ti_sysbios_timers_timer64_Timer_A_notAvailable__C                         
828576fc  ti_sysbios_timers_timer64_Timer_E_cannotSupport__C                        
8285adc0  ti_sysbios_timers_timer64_Timer_Module_State_0_device__A                  
8285b420  ti_sysbios_timers_timer64_Timer_Module_State_0_gctrl__A                   
8285b4a0  ti_sysbios_timers_timer64_Timer_Module_State_0_handles__A                 
8285b520  ti_sysbios_timers_timer64_Timer_Module_State_0_intFreqs__A                
82857700  ti_sysbios_timers_timer64_Timer_Module__diagsEnabled__C                   
82857704  ti_sysbios_timers_timer64_Timer_Module__diagsIncluded__C                  
82857708  ti_sysbios_timers_timer64_Timer_Module__diagsMask__C                      
82857816  ti_sysbios_timers_timer64_Timer_Module__id__C                             
8283d820  ti_sysbios_timers_timer64_Timer_Module__startupDone__F                    
8283d820  ti_sysbios_timers_timer64_Timer_Module__startupDone__S                    
8285ba08  ti_sysbios_timers_timer64_Timer_Module__state__V                          
828106c0  ti_sysbios_timers_timer64_Timer_Module_startup__E                         
8285b7a0  ti_sysbios_timers_timer64_Timer_Object__table__V                          
8283d300  ti_sysbios_timers_timer64_Timer_TimerSupportProxy_enable__E               
8285770c  ti_sysbios_timers_timer64_Timer_anyMaskHigh__C                            
82857710  ti_sysbios_timers_timer64_Timer_anyMask__C                                
82820b20  ti_sysbios_timers_timer64_Timer_deviceConfig__I                           
82857714  ti_sysbios_timers_timer64_Timer_freqDivisor__C                            
82829fc0  ti_sysbios_timers_timer64_Timer_getFreq__E                                
8283d840  ti_sysbios_timers_timer64_Timer_getMaxTicks__E                            
82831a00  ti_sysbios_timers_timer64_Timer_initDevice__I                             
82856101  ti_sysbios_timers_timer64_Timer_localTimerBaseId__C                       
82857718  ti_sysbios_timers_timer64_Timer_numLocalTimers__C                         
8285771c  ti_sysbios_timers_timer64_Timer_numTimerDevices__C                        
828266a0  ti_sysbios_timers_timer64_Timer_setPeriodMicroSecs__E                     
8282a180  ti_sysbios_timers_timer64_Timer_start__E                                  
82857818  ti_sysbios_timers_timer64_Timer_startupNeeded__C                          
828336a0  ti_sysbios_timers_timer64_Timer_startup__E                                
82836800  ti_sysbios_timers_timer64_Timer_stop__E                                   
8285781a  ti_sysbios_timers_timer64_Timer_useTimer64pRegMap__C                      
82857720  ti_sysbios_xdcruntime_GateThreadSupport_Instance_State_gate__O            
8283d860  ti_sysbios_xdcruntime_GateThreadSupport_Instance_finalize__E              
8283d880  ti_sysbios_xdcruntime_GateThreadSupport_Instance_init__E                  
8285bbe8  ti_sysbios_xdcruntime_GateThreadSupport_Module__root__V                   
82856f50  ti_sysbios_xdcruntime_GateThreadSupport_Object__DESC__C                   
82857250  ti_sysbios_xdcruntime_GateThreadSupport_Object__PARAMS__C                 
8283a440  ti_sysbios_xdcruntime_GateThreadSupport_Object__delete__S                 
82838720  ti_sysbios_xdcruntime_GateThreadSupport_create                            
8283d8a0  ti_sysbios_xdcruntime_GateThreadSupport_enter__E                          
82831b00  ti_sysbios_xdcruntime_GateThreadSupport_leave__E                          
8283d4e0  ti_sysbios_xdcruntime_GateThreadSupport_query__E                          
8285bf34  txChHnd                                                                   
8285bf38  txQueHnd                                                                  
8285b030  uartInitCfg                                                               
8285bbf0  uart_stdio                                                                
828387a0  unlink                                                                    
8283bb40  vsprintf                                                                  
828082d4  waitAllSrioPortsOperational                                               
8283bb80  wcslen                                                                    
8283a500  write                                                                     
82813f70  writeBbReg                                                                
8280aca8  writeNandPage                                                             
828140cc  writeReadIndex                                                            
82857724  xdc_runtime_Assert_E_assertFailed__C                                      
82835360  xdc_runtime_Assert_raise__I                                               
82857728  xdc_runtime_Core_A_initializedParams__C                                   
8285772c  xdc_runtime_Core_Module__diagsEnabled__C                                  
82857730  xdc_runtime_Core_Module__diagsIncluded__C                                 
82857734  xdc_runtime_Core_Module__diagsMask__C                                     
8285781c  xdc_runtime_Core_Module__id__C                                            
82838820  xdc_runtime_Core_assignLabel__I                                           
828368a0  xdc_runtime_Core_assignParams__I                                          
8282bbc0  xdc_runtime_Core_constructObject__I                                       
828259c0  xdc_runtime_Core_createObject__I                                          
8282f3a0  xdc_runtime_Core_deleteObject__I                                          
82857738  xdc_runtime_Error_E_memory__C                                             
8285b980  xdc_runtime_Error_IgnoreBlock                                             
8285773c  xdc_runtime_Error_Module__diagsEnabled__C                                 
82857740  xdc_runtime_Error_Module__diagsIncluded__C                                
82857744  xdc_runtime_Error_Module__diagsMask__C                                    
8285781e  xdc_runtime_Error_Module__loggerDefined__C                                
82857748  xdc_runtime_Error_Module__loggerFxn8__C                                   
8285774c  xdc_runtime_Error_Module__loggerObj__C                                    
8285baec  xdc_runtime_Error_Module__state__V                                        
8283bbc0  xdc_runtime_Error_check__E                                                
8283d8c0  xdc_runtime_Error_getSite__E                                              
8283bc00  xdc_runtime_Error_init__E                                                 
82857820  xdc_runtime_Error_maxDepth__C                                             
828268c0  xdc_runtime_Error_policyDefault__E                                        
82857750  xdc_runtime_Error_policyFxn__C                                            
82857754  xdc_runtime_Error_policy__C                                               
82831c00  xdc_runtime_Error_print__E                                                
82857758  xdc_runtime_Error_raiseHook__C                                            
8283d8e0  xdc_runtime_Error_raiseX__E                                               
82835420  xdc_runtime_Error_setX__E                                                 
8283bc40  xdc_runtime_GateNull_Handle__label__S                                     
82856b40  xdc_runtime_GateNull_Module__FXNS__C                                      
8285bbf8  xdc_runtime_GateNull_Module__root__V                                      
82856f70  xdc_runtime_GateNull_Object__DESC__C                                      
82857268  xdc_runtime_GateNull_Object__PARAMS__C                                    
8283bc80  xdc_runtime_GateNull_Object__create__S                                    
8283bcc0  xdc_runtime_GateNull_Object__delete__S                                    
8285bc60  xdc_runtime_GateNull_Object__table__V                                     
8283d900  xdc_runtime_GateNull_enter__E                                             
8283d920  xdc_runtime_GateNull_leave__E                                             
8283d940  xdc_runtime_GateNull_query__E                                             
8283d960  xdc_runtime_Gate_enterSystem__E                                           
8283d980  xdc_runtime_Gate_leaveSystem__E                                           
8285775c  xdc_runtime_IFilterLogger_Interface__BASE__C                              
82857760  xdc_runtime_IGateProvider_Interface__BASE__C                              
82857764  xdc_runtime_IHeap_Interface__BASE__C                                      
82857768  xdc_runtime_ILogger_Interface__BASE__C                                    
8285776c  xdc_runtime_IModule_Interface__BASE__C                                    
82857770  xdc_runtime_Log_L_error__C                                                
82857774  xdc_runtime_LoggerBuf_E_badLevel__C                                       
8283bd00  xdc_runtime_LoggerBuf_Handle__label__S                                    
82850aa8  xdc_runtime_LoggerBuf_Instance_State_0_entryArr__A                        
8283bd40  xdc_runtime_LoggerBuf_Instance_finalize__E                                
828388a0  xdc_runtime_LoggerBuf_Instance_init__E                                    
8283b680  xdc_runtime_LoggerBuf_Module_GateProxy_Handle__label__S                   
8283d9e0  xdc_runtime_LoggerBuf_Module_GateProxy_enter__E                           
8283da00  xdc_runtime_LoggerBuf_Module_GateProxy_leave__E                           
8283d4a0  xdc_runtime_LoggerBuf_Module_GateProxy_query__E                           
828565d0  xdc_runtime_LoggerBuf_Module__FXNS__C                                     
82857778  xdc_runtime_LoggerBuf_Module__gateObj__C                                  
82857822  xdc_runtime_LoggerBuf_Module__id__C                                       
8285bc00  xdc_runtime_LoggerBuf_Module__root__V                                     
8285bc28  xdc_runtime_LoggerBuf_Module__state__V                                    
82838920  xdc_runtime_LoggerBuf_Module_startup__E                                   
82856f90  xdc_runtime_LoggerBuf_Object__DESC__C                                     
828568f8  xdc_runtime_LoggerBuf_Object__PARAMS__C                                   
8285777c  xdc_runtime_LoggerBuf_Object__count__C                                    
828354e0  xdc_runtime_LoggerBuf_Object__create__S                                   
8283a560  xdc_runtime_LoggerBuf_Object__delete__S                                   
8283bd80  xdc_runtime_LoggerBuf_Object__get__S                                      
8285b938  xdc_runtime_LoggerBuf_Object__table__V                                    
8283d2e0  xdc_runtime_LoggerBuf_TimestampProxy_get64__E                             
8283da20  xdc_runtime_LoggerBuf_disable__E                                          
8283da40  xdc_runtime_LoggerBuf_enable__E                                           
82857824  xdc_runtime_LoggerBuf_filterByLevel__C                                    
828389a0  xdc_runtime_LoggerBuf_filterOutEvent__I                                   
828305e0  xdc_runtime_LoggerBuf_getFilterLevel__E                                   
8283a5c0  xdc_runtime_LoggerBuf_reset__E                                            
8282f4e0  xdc_runtime_LoggerBuf_setFilterLevel__E                                   
82857780  xdc_runtime_LoggerBuf_statusLogger__C                                     
8283bdc0  xdc_runtime_LoggerBuf_write0__E                                           
8283be00  xdc_runtime_LoggerBuf_write1__E                                           
8283be40  xdc_runtime_LoggerBuf_write2__E                                           
8282a340  xdc_runtime_LoggerBuf_write4__E                                           
82823980  xdc_runtime_LoggerBuf_write8__E                                           
8283b680  xdc_runtime_Main_Module_GateProxy_Handle__label__S                        
8283d4a0  xdc_runtime_Main_Module_GateProxy_query__E                                
82857826  xdc_runtime_Main_Module__id__C                                            
8283b900  xdc_runtime_Memory_HeapProxy_Handle__label__S                             
8283d9a0  xdc_runtime_Memory_HeapProxy_alloc__E                                     
8283d9c0  xdc_runtime_Memory_HeapProxy_free__E                                      
82857828  xdc_runtime_Memory_Module__id__C                                          
8285ba74  xdc_runtime_Memory_Module__state__V                                       
82831d00  xdc_runtime_Memory_alloc__E                                               
8283da60  xdc_runtime_Memory_calloc__E                                              
82857784  xdc_runtime_Memory_defaultHeapInstance__C                                 
8283da80  xdc_runtime_Memory_free__E                                                
8283daa0  xdc_runtime_Memory_getMaxDefaultTypeAlign__E                              
8283a620  xdc_runtime_Memory_valloc__E                                              
8285bc08  xdc_runtime_Registry_Module__state__V                                     
8283be80  xdc_runtime_Registry_findById__E                                          
8283dac0  xdc_runtime_Startup_Module__startupDone__S                                
8285bc10  xdc_runtime_Startup_Module__state__V                                      
00000001  xdc_runtime_Startup__EXECFXN__C                                           
00000001  xdc_runtime_Startup__RESETFXN__C                                          
82857788  xdc_runtime_Startup_execImpl__C                                           
82831e00  xdc_runtime_Startup_exec__E                                               
8283dae0  xdc_runtime_Startup_exec__I                                               
828572f8  xdc_runtime_Startup_firstFxns__A                                          
82857300  xdc_runtime_Startup_firstFxns__C                                          
82857308  xdc_runtime_Startup_lastFxns__C                                           
8285778c  xdc_runtime_Startup_maxPasses__C                                          
8281f0a0  xdc_runtime_Startup_reset__I                                              
8283db00  xdc_runtime_Startup_rtsDone__E                                            
82856b68  xdc_runtime_Startup_sfxnRts__A                                            
82857790  xdc_runtime_Startup_sfxnRts__C                                            
82856480  xdc_runtime_Startup_sfxnTab__A                                            
82857794  xdc_runtime_Startup_sfxnTab__C                                            
828250a0  xdc_runtime_Startup_startMods__I                                          
82850ca8  xdc_runtime_SysMin_Module_State_0_outbuf__A                               
8285bafc  xdc_runtime_SysMin_Module__state__V                                       
8283bec0  xdc_runtime_SysMin_Module_startup__E                                      
828355a0  xdc_runtime_SysMin_abort__E                                               
82857798  xdc_runtime_SysMin_bufSize__C                                             
8283bf00  xdc_runtime_SysMin_exit__E                                                
8285782a  xdc_runtime_SysMin_flushAtExit__C                                         
82835660  xdc_runtime_SysMin_flush__E                                               
8285779c  xdc_runtime_SysMin_outputFunc__C                                          
82838a20  xdc_runtime_SysMin_output__I                                              
82836940  xdc_runtime_SysMin_putch__E                                               
8283db20  xdc_runtime_SysMin_ready__E                                               
8283b680  xdc_runtime_System_Module_GateProxy_Handle__label__S                      
8283db40  xdc_runtime_System_Module_GateProxy_enter__E                              
8283db60  xdc_runtime_System_Module_GateProxy_leave__E                              
8283d4a0  xdc_runtime_System_Module_GateProxy_query__E                              
8285bab8  xdc_runtime_System_Module_State_0_atexitHandlers__A                       
828577a0  xdc_runtime_System_Module__gateObj__C                                     
8285bc18  xdc_runtime_System_Module__state__V                                       
8283db80  xdc_runtime_System_Module_startup__E                                      
828355a0  xdc_runtime_System_SupportProxy_abort__E                                  
8283bf00  xdc_runtime_System_SupportProxy_exit__E                                   
82835660  xdc_runtime_System_SupportProxy_flush__E                                  
82836940  xdc_runtime_System_SupportProxy_putch__E                                  
8283db20  xdc_runtime_System_SupportProxy_ready__E                                  
828577a4  xdc_runtime_System_abortFxn__C                                            
8283c840  xdc_runtime_System_abortStd__E                                            
8283bf40  xdc_runtime_System_abort__E                                               
8283bf80  xdc_runtime_System_aprintf__E                                             
82838b20  xdc_runtime_System_aprintf_va__E                                          
82838b20  xdc_runtime_System_aprintf_va__F                                          
82838aa0  xdc_runtime_System_atexit__E                                              
82838b20  xdc_runtime_System_avprintf__E                                            
8280d960  xdc_runtime_System_doPrint__I                                             
828577a8  xdc_runtime_System_exitFxn__C                                             
828328a0  xdc_runtime_System_exitStd__E                                             
8283bfc0  xdc_runtime_System_exit__E                                                
828577ac  xdc_runtime_System_extendFxn__C                                           
82835660  xdc_runtime_System_flush__E                                               
828369e0  xdc_runtime_System_formatNum__I                                           
828577b0  xdc_runtime_System_maxAtexitHandlers__C                                   
8282bd60  xdc_runtime_System_printfExtend__I                                        
8283c000  xdc_runtime_System_printf__E                                              
82838c20  xdc_runtime_System_printf_va__E                                           
82838c20  xdc_runtime_System_printf_va__F                                           
82838ba0  xdc_runtime_System_processAtExit__E                                       
82836a80  xdc_runtime_System_putchar__I                                             
8283dba0  xdc_runtime_System_snprintf_va__E                                         
8283dba0  xdc_runtime_System_snprintf_va__F                                         
82838c20  xdc_runtime_System_vprintf__E                                             
8283dba0  xdc_runtime_System_vsnprintf__E                                           
8285782c  xdc_runtime_Text_charCnt__C                                               
82851200  xdc_runtime_Text_charTab__A                                               
828577b4  xdc_runtime_Text_charTab__C                                               
8283a680  xdc_runtime_Text_cordText__E                                              
8285782e  xdc_runtime_Text_isLoaded__C                                              
828577b8  xdc_runtime_Text_nameEmpty__C                                             
828577bc  xdc_runtime_Text_nameStatic__C                                            
828577c0  xdc_runtime_Text_nameUnknown__C                                           
82855c28  xdc_runtime_Text_nodeTab__A                                               
828577c4  xdc_runtime_Text_nodeTab__C                                               
82836b20  xdc_runtime_Text_printVisFxn__I                                           
8282da80  xdc_runtime_Text_putMod__E                                                
82828fe0  xdc_runtime_Text_putSite__E                                               
82857830  xdc_runtime_Text_registryModsLastId__C                                    
8283dbc0  xdc_runtime_Text_ropeText__E                                              
82857832  xdc_runtime_Text_unnamedModsLastId__C                                     
82833780  xdc_runtime_Text_visitRope2__I                                            
828577c8  xdc_runtime_Text_visitRopeFxn__C                                          
8283dbe0  xdc_runtime_Text_visitRope__I                                             
82836bc0  xdc_runtime_Text_xprintf__I                                               
8283c040  xdc_runtime_knl_GateThread_Handle__label__S                               
8283dc00  xdc_runtime_knl_GateThread_Instance_finalize__E                           
8283c080  xdc_runtime_knl_GateThread_Instance_init__E                               
82856b8c  xdc_runtime_knl_GateThread_Module__FXNS__C                                
8285bc20  xdc_runtime_knl_GateThread_Module__root__V                                
8283dc20  xdc_runtime_knl_GateThread_Module__startupDone__S                         
82856fb0  xdc_runtime_knl_GateThread_Object__DESC__C                                
82857280  xdc_runtime_knl_GateThread_Object__PARAMS__C                              
82836c60  xdc_runtime_knl_GateThread_Object__create__S                              
8283a6e0  xdc_runtime_knl_GateThread_Object__delete__S                              
8283dc40  xdc_runtime_knl_GateThread_Proxy_create                                   
8283dc60  xdc_runtime_knl_GateThread_Proxy_delete                                   
8283dc80  xdc_runtime_knl_GateThread_Proxy_enter__E                                 
8283dca0  xdc_runtime_knl_GateThread_Proxy_leave__E                                 
8283d4e0  xdc_runtime_knl_GateThread_Proxy_query__E                                 
82836d00  xdc_runtime_knl_GateThread_create                                         
8283dcc0  xdc_runtime_knl_GateThread_enter__E                                       
8283dce0  xdc_runtime_knl_GateThread_leave__E                                       
8283d4e0  xdc_runtime_knl_GateThread_query__E                                       
828577cc  xdc_runtime_knl_ISync_Interface__BASE__C                                  
8280b480  xmc_setup                                                                 


GLOBAL SYMBOLS: SORTED BY Symbol Address 

address   name                                                                      
-------   ----                                                                      
00000000  _argsize                                                                  
00000000  ti_sysbios_family_c66_Cache_l2Size                                        
00000001  xdc_runtime_Startup__EXECFXN__C                                           
00000001  xdc_runtime_Startup__RESETFXN__C                                          
00004000  __TI_STACK_SIZE                                                           
00008000  ti_sysbios_family_c66_Cache_l1dSize                                       
00008000  ti_sysbios_family_c66_Cache_l1pSize                                       
00800000  hostDesc                                                                  
00802000  rxDataBuff                                                                
00806000  ps_info                                                                   
00806018  fpga0EerorPktCount                                                        
0080601c  fpga0ReadIndex                                                            
00806020  fpga1EerorPktCount                                                        
00806024  fpga1ReadIndex                                                            
00806040  rxbuf                                                                     
00806048  _stack                                                                    
0080a048  __TI_STACK_END                                                            
0080a0a0  gDeviceNandBBlist                                                         
0080b0fc  gDeviceNand                                                               
0080b134  gDeviceNor                                                                
0080b16c  gDeviceEeprom0                                                            
0080b1a4  gDeviceEeprom1                                                            
0080b1e0  emac_port_mode                                                            
0c204080  qmssGroupControl                                                          
0c204180  qmssGObj                                                                  
0c206880  qmssGObjIsValid                                                           
0c206900  cppiObject                                                                
0c207880  gSRIODriverMCB                                                            
82800800  __ASM__                                                                   
82800868  __ISA__                                                                   
82800880  __PLAT__                                                                  
828008a0  __TARG__                                                                  
828008c8  __TRDR__                                                                  
8280252c  srioInit                                                                  
828025d8  SrioDevice_init                                                           
82802cb0  myDIOIsr                                                                  
82802cf0  createControlSocket                                                       
82802df0  srioSendData                                                              
82802ee0  __TI_printfi                                                              
82804ec0  serial_num_isvalid                                                        
82804f20  platform_write_configure                                                  
82804f34  platform_uart_write                                                       
82804f48  platform_write                                                            
82805048  platform_uart_set_baudrate                                                
82805070  platform_delay                                                            
828050b0  platform_uart_read                                                        
82805124  platform_uart_init                                                        
82805140  platform_get_phy_addr                                                     
82805144  platform_phy_link_status                                                  
82805194  platform_offset_to_blocknpage                                             
8280526c  platform_led                                                              
82805298  platform_get_coreid                                                       
828052a4  platform_internal_memory_test                                             
828056e8  platform_init                                                             
828059c0  platform_get_switch_state                                                 
828059c4  platform_get_macaddr                                                      
82805a14  platform_device_open                                                      
82805b10  platform_device_read                                                      
82805c38  platform_device_close                                                     
82805d28  platform_get_info                                                         
82805f6c  platform_get_emac_info                                                    
82805fc4  platform_external_memory_test                                             
82806150  platform_device_write_spare_data                                          
828061c4  platform_blocknpage_to_offset                                             
82806258  platform_device_write                                                     
82806694  platform_device_read_spare_data                                           
82806708  platform_device_mark_block_bad                                            
82806800  platform_device_erase_block                                               
82806890  platform_delaycycles                                                      
828068b8  Convert_CoreLocal2GlobalAddr                                              
82806920  Qmss_insertMemoryRegionSubSys                                             
82807cc0  displaySrioLanesStatus                                                    
82807e8c  setSrioLanes                                                              
82808088  getPllValue                                                               
82808144  setEnableSrioPllRxTx                                                      
828082d4  waitAllSrioPortsOperational                                               
828088f0  ipcInit                                                                   
82808950  cppiInit                                                                  
82809140  ti_sdo_ipc_GateMP_Instance_init__E                                        
8280aa10  NandReadSpareArea                                                         
8280aab0  NandWriteDataBytes                                                        
8280ac08  NandWriteSpareArea                                                        
8280aca8  writeNandPage                                                             
8280b010  readNandPage                                                              
8280b298  nandInit                                                                  
8280b30c  nandFlashBlockErase                                                       
8280b3b0  NandGetDetails                                                            
8280b480  xmc_setup                                                                 
8280b498  prog_pll1_values                                                          
8280b588  SetPaPllConfig                                                            
8280b6a8  SetDDR3PllConfig                                                          
8280b7c4  PowerUpDomains                                                            
8280b8b8  DDR3Init                                                                  
8280bb14  CorePllcHwSetup                                                           
8280bd40  CorePllcGetHwSetup                                                        
8280be20  Qmss_initSubSys                                                           
8280c9f8  biosMalloc                                                                
8280ca38  biosFree                                                                  
8280ca68  Osal_dataBufferInitMemory                                                 
8280cb10  Osal_DataBufferMalloc                                                     
8280cbd4  Osal_DataBufferFree                                                       
8280cc6c  Osal_MultiCoreEnter                                                       
8280cc88  Osal_MultiCoreExit                                                        
8280cca0  Osal_SingleCoreEnter                                                      
8280ccc4  Osal_SingleCoreExit                                                       
8280ccd8  Osal_CacheInvalidate                                                      
8280cd14  Osal_CacheWriteback                                                       
8280cd4c  Osal_srioBeginDescriptorAccess                                            
8280cd64  Osal_srioEndDescriptorAccess                                              
8280cd84  Osal_srioBeginMemAccess                                                   
8280cdb8  Osal_srioCreateSem                                                        
8280cdcc  Osal_srioDataBufferFree                                                   
8280ce64  Osal_srioDataBufferMalloc                                                 
8280cf28  Osal_srioDeleteSem                                                        
8280cf34  Osal_srioEndMemAccess                                                     
8280cf6c  Osal_srioEnterMultipleCoreCriticalSection                                 
8280cf88  Osal_srioEnterSingleCoreCriticalSection                                   
8280cfac  Osal_srioExitMultipleCoreCriticalSection                                  
8280cfc4  Osal_srioExitSingleCoreCriticalSection                                    
8280cfe8  Osal_srioFree                                                             
8280d014  Osal_srioLog                                                              
8280d02c  Osal_srioMalloc                                                           
8280d064  Osal_srioPendSem                                                          
8280d074  Osal_srioPostSem                                                          
8280d960  xdc_runtime_System_doPrint__I                                             
8280e200  i2cEepromWriteBlock                                                       
8280e3ac  i2cEepromWriteByteAddr                                                    
8280e4b4  i2cEepromWrite                                                            
8280e578  i2cEepromRead                                                             
8280e684  i2cEepromMacWrite                                                         
8280e7d4  i2cEepromMacRead                                                          
8280e9c0  ti_sysbios_family_c64p_Exception_handler__I                               
8280f140  ti_sysbios_knl_Semaphore_pend__E                                          
8280f880  Cppi_configureRxFlow                                                      
8280ffa0  MessageQ_put                                                              
828106c0  ti_sysbios_timers_timer64_Timer_Module_startup__E                         
82810dc0  NameServer_add                                                            
82811dec  Osal_cppiMalloc                                                           
82811e28  Osal_cppiFree                                                             
82811e58  Osal_cppiCsEnter                                                          
82811e74  Osal_cppiCsExit                                                           
82811e8c  Osal_cppiLog                                                              
82811ea8  Osal_cppiBeginMemAccess                                                   
82811ee4  Osal_cppiEndMemAccess                                                     
82811f14  Osal_qmssMalloc                                                           
82811f48  Osal_qmssFree                                                             
82811f74  Osal_qmssCsEnter                                                          
82811f90  Osal_qmssCsExit                                                           
82811fa8  Osal_qmssAccCsEnter                                                       
82811fb0  Osal_qmssAccCsExit                                                        
82811fc8  Osal_qmssMtCsEnter                                                        
82811fd0  Osal_qmssMtCsExit                                                         
82811fe4  Osal_qmssLog                                                              
82811ff8  Osal_qmssBeginMemAccess                                                   
82812034  Osal_qmssEndMemAccess                                                     
8281206c  Osal_rmMalloc                                                             
828120a0  Osal_rmFree                                                               
828120cc  Osal_rmCsEnter                                                            
828120d4  Osal_rmCsExit                                                             
828120e8  Osal_rmMtCsEnter                                                          
82812100  Osal_rmMtCsExit                                                           
82812114  Osal_rmBeginMemAccess                                                     
82812150  Osal_rmEndMemAccess                                                       
82812188  Osal_rmTaskBlockCreate                                                    
828121b4  Osal_rmTaskBlock                                                          
828121c8  Osal_rmTaskUnblock                                                        
828121d4  Osal_rmTaskBlockDelete                                                    
828121e8  Osal_rmLog                                                                
82812240  UART_printf                                                               
828128c0  Ipc_attach                                                                
82813540  Srio_sockSend_DIO                                                         
82813d4c  getBbData                                                                 
82813f0c  sendDataToBb                                                              
82813f70  writeBbReg                                                                
82813fcc  configSrioParameterToFPGA                                                 
828140cc  writeReadIndex                                                            
82814180  ti_sdo_ipc_heaps_HeapMemMP_alloc__E                                       
828147a0  ti_sysbios_heaps_HeapMem_allocUnprotected__E                              
82814dc0  __c6xabi_divd                                                             
828153c0  ti_sdo_ipc_GateMP_setRegion0Reserved__E                                   
828153c0  ti_sdo_ipc_GateMP_setRegion0Reserved__F                                   
828159c0  ti_sdo_ipc_transports_TransportShm_Instance_init__E                       
82815fc0  Cppi_txChannelOpenWithHwCfg                                               
82816580  ti_sysbios_heaps_HeapMem_freeUnprotected__E                               
82816b40  ti_sdo_ipc_ListMP_Instance_init__E                                        
828170e0  ti_sdo_ipc_nsremote_NameServerRemoteNotify_Instance_init__E               
82817680  ti_sdo_ipc_GateMP_Instance_finalize__E                                    
82817be0  ti_sdo_ipc_heaps_HeapMemMP_free__E                                        
82818140  Cppi_rxChannelOpen                                                        
82818680  Srio_start                                                                
82818b80  ti_sysbios_knl_Task_Instance_finalize__E                                  
82819080  init_pll                                                                  
82819540  ti_sdo_ipc_heaps_HeapMemMP_Instance_init__E                               
82819a00  Cppi_init                                                                 
82819e80  Cppi_initDescriptorSubSys                                                 
8281a780  ti_sysbios_gates_GateMutexPri_enter__E                                    
8281ac00  spi_xfer                                                                  
8281ad54  spi_write_word                                                            
8281adb4  spi_release                                                               
8281add0  spi_read_word                                                             
8281ae40  spi_cmd_write                                                             
8281ae78  spi_cmd_read                                                              
8281aeb4  spi_cmd                                                                   
8281af00  spi_claim                                                                 
8281b060  ti_sysbios_knl_Task_sleep__E                                              
8281b4c0  Srio_sockBind_DIO                                                         
8281c180  Notify_sendEvent                                                          
8281c5a0  ti_sysbios_knl_Task_setPri__E                                             
8281c9c0  Notify_registerEventSingle                                                
8281cdc0  Srio_sockOpen                                                             
8281d5c0  ti_sdo_ipc_nsremote_NameServerRemoteNotify_get__E                         
8281d5c0  ti_sdo_ipc_nsremote_NameServerRemoteNotify_get__F                         
8281d9c0  Notify_unregisterEventSingle                                              
8281ddb4  taskFxn                                                                   
8281df8c  taskLed                                                                   
8281dfe0  delay_ms                                                                  
8281e034  main                                                                      
8281e200  nor_write                                                                 
8281e324  nor_read                                                                  
8281e3a0  nor_init                                                                  
8281e408  nor_get_details                                                           
8281e474  nor_erase                                                                 
8281e560  ti_sdo_ipc_MessageQ_Instance_init__E                                      
8281e940  ti_sysbios_knl_Task_Instance_init__E                                      
8281ed00  ti_sdo_utils_NameServer_registerRemoteDriver__E                           
8281f0a0  ti_sysbios_family_c66_Cache_startup__I                                    
8281f0a0  xdc_runtime_Startup_reset__I                                              
8281f440  ti_sdo_utils_NameServer_isRegistered__E                                   
8281f7a0  ti_sdo_utils_NameServer_unregisterRemoteDriver__E                         
8281fb00  Srio_initCfg                                                              
8281fe40  gpioSetRisingEdgeInterrupt                                                
8281fe84  gpioSetOutput                                                             
8281feb8  gpioSetFallingEdgeInterrupt                                               
8281ff00  gpioSetDirection                                                          
8281ff80  gpioSetDataBusDirection                                                   
8281fff8  gpioReadInput                                                             
82820038  gpioInit                                                                  
82820098  gpioEnableGlobalInterrupt                                                 
828200b0  gpioDisableGlobalInterrupt                                                
828200cc  gpioClearRisingEdgeInterrupt                                              
82820100  gpioClearOutput                                                           
82820134  gpioClearFallingEdgeInterrupt                                             
82820180  ti_sdo_ipc_gates_GatePeterson_Instance_init__E                            
828204c0  ti_sysbios_family_c66_tci66xx_CpIntc_Module_startup__E                    
82820800  fputs                                                                     
82820b20  ti_sysbios_timers_timer64_Timer_deviceConfig__I                           
82820e40  Cppi_open                                                                 
82821140  NameServer_getLocal                                                       
82821440  ti_sdo_ipc_Notify_Instance_init__E                                        
82821740  ti_sysbios_knl_Swi_runLoop__I                                             
82821a40  ti_sysbios_knl_Task_Module_startup__E                                     
82821d40  ListMP_getHead                                                            
82822020  Qmss_internalRmStartIndex                                                 
82822300  Srio_sockBind_TYPE11                                                      
828225e0  Srio_sockSend_TYPE9                                                       
828228c0  ti_sdo_ipc_SharedRegion_reserveMemory__E                                  
828228c0  ti_sdo_ipc_SharedRegion_reserveMemory__F                                  
82822ba0  ti_sysbios_heaps_HeapMem_Instance_init__E                                 
82822e80  Srio_sockSend_TYPE11                                                      
82823400  ti_sdo_ipc_heaps_HeapMemMP_postInit__I                                    
828236c0  ti_sysbios_knl_Clock_workFunc__E                                          
82823980  xdc_runtime_LoggerBuf_write8__E                                           
82823c40  Board_DDR3Init                                                            
82823ee0  Srio_sockBind_TYPE9                                                       
82824420  ti_sdo_ipc_MessageQ_registerTransport__E                                  
82824420  ti_sdo_ipc_MessageQ_registerTransport__F                                  
828246c0  ti_sdo_ipc_MessageQ_unregisterTransport__E                                
828246c0  ti_sdo_ipc_MessageQ_unregisterTransport__F                                
82824960  Qmss_internalQueueClose                                                   
82824be0  ti_sysbios_family_c64p_Hwi_dispatchCore__I                                
82824e40  ti_sysbios_knl_Semaphore_post__E                                          
828250a0  xdc_runtime_Startup_startMods__I                                          
82825300  __c6xabi_divull                                                           
82825540  ti_sysbios_family_c64p_EventCombiner_dispatch__E                          
82825780  ti_sysbios_family_c64p_Exception_internalHandler__I                       
828259c0  xdc_runtime_Core_createObject__I                                          
82825c00  ListMP_putTail                                                            
82825e20  SharedRegion_getPtr                                                       
82826040  SharedRegion_getSRPtr                                                     
82826260  ti_sysbios_family_c64p_Hwi_reconfig__E                                    
82826480  ti_sysbios_knl_Swi_run__I                                                 
828266a0  ti_sysbios_timers_timer64_Timer_setPeriodMicroSecs__E                     
828268c0  xdc_runtime_Error_policyDefault__E                                        
82826ae0  GateMP_openByAddr                                                         
82826ce0  HeapMemMP_sharedMemReq                                                    
82826ee0  Ipc_start                                                                 
828270e0  SemaphoreP_create                                                         
828272e0  SharedRegion_getEntry                                                     
828274e0  Srio_dioCompletionIsr                                                     
828278e0  ti_sysbios_family_c64p_Hwi_dispatchAlways                                 
82827ae0  cppi_internal_heap_add                                                    
82827ce0  ti_sdo_ipc_SharedRegion_start__E                                          
82827ce0  ti_sdo_ipc_SharedRegion_start__F                                          
82827ee0  ti_sdo_ipc_nsremote_NameServerRemoteNotify_swiFxnRequest__I               
828280e0  GateMP_sharedMemReq                                                       
828282c0  HwiP_create                                                               
828284a0  Init_SGMII                                                                
82828a40  UartWriteData                                                             
82828a80  UartSetBaudRate                                                           
82828aa8  UartReadData                                                              
82828ab8  UartReadBaudRate                                                          
82828aec  UartIsDataReady                                                           
82828b0c  UartInit                                                                  
82828c20  ti_sysbios_family_c64p_EventCombiner_dispatchPlug__E                      
82828e00  ti_sysbios_gates_GateMutex_enter__E                                       
82828fe0  xdc_runtime_Text_putSite__E                                               
828291c0  NameServer_getHandle                                                      
82829380  __c6xabi_divul                                                            
82829700  fputc                                                                     
82829700  putc                                                                      
828298c0  setvbuf                                                                   
82829a80  ti_sdo_ipc_Ipc_procSyncStart__I                                           
82829c40  ti_sysbios_family_c66_tci66xx_CpIntc_dispatch__E                          
82829e00  ti_sysbios_knl_Task_checkStacks__E                                        
82829fc0  ti_sysbios_timers_timer64_Timer_getFreq__E                                
8282a180  ti_sysbios_timers_timer64_Timer_start__E                                  
8282a340  xdc_runtime_LoggerBuf_write4__E                                           
8282a500  GateMP_enter                                                              
8282a6a0  GateMP_leave                                                              
8282a840  HOSTrename                                                                
8282a9e0  Qmss_cfgAccumulatorCh                                                     
8282ab80  frexp                                                                     
8282ab80  frexpl                                                                    
8282ad20  ldexp                                                                     
8282ad20  ldexpl                                                                    
8282ad20  scalbn                                                                    
8282ad20  scalbnl                                                                   
8282aec0  ti_sdo_ipc_transports_TransportShm_Instance_finalize__E                   
8282b060  ti_sdo_ipc_transports_TransportShm_openByAddr__E                          
8282b200  ti_sdo_ipc_transports_TransportShm_put__E                                 
8282b3a0  ti_sysbios_family_c64p_EventCombiner_disableEvent__E                      
8282b540  ti_sysbios_family_c64p_EventCombiner_enableEvent__E                       
8282b6e0  ti_sysbios_family_c66_Cache_block__I                                      
8282b880  ti_sysbios_family_c66_Cache_getL2InitSize__I                              
8282ba20  ti_sysbios_knl_Task_schedule__I                                           
8282bbc0  xdc_runtime_Core_constructObject__I                                       
8282bd60  xdc_runtime_System_printfExtend__I                                        
8282bf00  Board_init                                                                
8282c080  Board_moduleClockInit                                                     
8282c200  MessageQ_get                                                              
8282c380  ti_sysbios_family_c64p_Exception_dispatch__E                              
8282c500  ti_sdo_ipc_GateMP_attach__E                                               
8282c500  ti_sdo_ipc_GateMP_attach__F                                               
8282c680  ti_sdo_utils_NameServer_removeLocal__I                                    
8282c800  ti_sysbios_knl_Swi_Instance_init__E                                       
8282c980  ti_sysbios_knl_Task_exit__E                                               
8282cb00  ti_sysbios_knl_Task_startCore__E                                          
8282cc80  ti_sysbios_syncs_SyncSem_Instance_init__E                                 
8282cf08  UART_mutex_printf                                                         
8282cf80  MessageQ_create                                                           
8282d0e0  Osal_RegisterInterrupt                                                    
8282d240  Qmss_startSubSysCfg                                                       
8282d3a0  ti_sdo_ipc_GateMP_openRegion0Reserved__E                                  
8282d3a0  ti_sdo_ipc_GateMP_openRegion0Reserved__F                                  
8282d500  ti_sdo_ipc_MessageQ_Instance_finalize__E                                  
8282d660  ti_sdo_ipc_gates_GatePeterson_enter__E                                    
8282d7c0  ti_sysbios_family_c64p_Hwi_Module_startup__E                              
8282d920  ti_sysbios_knl_Swi_post__E                                                
8282da80  xdc_runtime_Text_putMod__E                                                
8282dbe0  ListMP_remove                                                             
8282dd20  ListMP_sharedMemReq                                                       
8282de60  Notify_intLineRegistered                                                  
8282dfa0  Qmss_rmServiceGroups                                                      
8282e0e0  SharedRegion_getCacheLineSize                                             
8282e220  SharedRegion_getHeap                                                      
8282e360  SharedRegion_isCacheEnabled                                               
8282e4a0  Srio_rmService                                                            
8282e720  configSerdes                                                              
8282e860  ti_sdo_ipc_GateMP_createLocal__E                                          
8282e860  ti_sdo_ipc_GateMP_createLocal__F                                          
8282e9a0  ti_sdo_ipc_GateMP_getFreeResource__I                                      
8282eae0  ti_sdo_ipc_nsremote_NameServerRemoteNotify_attach__E                      
8282eae0  ti_sdo_utils_NameServer_SetupProxy_attach__E                              
8282ec20  ti_sdo_ipc_nsremote_NameServerRemoteNotify_cbFxn__I                       
8282ed60  ti_sdo_utils_NameServer_Module_startup__E                                 
8282eea0  ti_sysbios_gates_GateSwi_enter__E                                         
8282efe0  ti_sysbios_knl_Semaphore_Instance_init__E                                 
8282f120  ti_sysbios_knl_Task_blockI__E                                             
8282f260  ti_sysbios_knl_Task_postInit__I                                           
8282f3a0  xdc_runtime_Core_deleteObject__I                                          
8282f4e0  xdc_runtime_LoggerBuf_setFilterLevel__E                                   
8282f620  CSL_chipReadReg                                                           
8282f740  GateMP_close                                                              
8282f860  Qmss_getMemoryRegionCfg                                                   
8282f980  Qmss_openAccumulatorChSubSys                                              
8282faa0  Qmss_rmService                                                            
8282fbc0  _auto_init_elf                                                            
8282ff20  getdevice                                                                 
82830040  ti_sdo_ipc_Notify_Module_startup__E                                       
82830160  ti_sdo_ipc_Notify_create                                                  
82830280  ti_sdo_ipc_gates_GateHWSem_Instance_init__E                               
828303a0  ti_sysbios_family_c64p_Hwi_Instance_init__E                               
828304c0  ti_sysbios_knl_Swi_restoreHwi__E                                          
828305e0  xdc_runtime_LoggerBuf_getFilterLevel__E                                   
82830700  BOARD_delay                                                               
82830800  EventCombinerP_GroupRegisterInt                                           
82830c00  __TI_closefile                                                            
82830f00  atoi                                                                      
82831000  fseek                                                                     
82831100  ti_sdo_ipc_GateMP_start__E                                                
82831100  ti_sdo_ipc_GateMP_start__F                                                
82831200  ti_sdo_ipc_Ipc_procSyncFinish__I                                          
82831300  ti_sdo_ipc_Notify_exec__E                                                 
82831300  ti_sdo_ipc_Notify_exec__F                                                 
82831400  ti_sdo_ipc_SharedRegion_attach__E                                         
82831400  ti_sdo_ipc_SharedRegion_attach__F                                         
82831500  ti_sdo_ipc_gates_GateHWSem_enter__E                                       
82831600  ti_sdo_ipc_heaps_HeapMemMP_getStats__E                                    
82831700  ti_sysbios_family_c64p_Hwi_Instance_finalize__E                           
82831800  ti_sysbios_gates_GateMutexPri_leave__E                                    
82831900  ti_sysbios_knl_Task_unblockI__E                                           
82831a00  ti_sysbios_timers_timer64_Timer_initDevice__I                             
82831b00  ti_sysbios_xdcruntime_GateThreadSupport_leave__E                          
82831c00  xdc_runtime_Error_print__E                                                
82831d00  xdc_runtime_Memory_alloc__E                                               
82831e00  xdc_runtime_Startup_exec__E                                               
82831f00  HOSTlseek                                                                 
82831fe0  HOSTopen                                                                  
828320c0  HOSTwrite                                                                 
828321a0  HeapMemMP_openByAddr                                                      
82832280  ListMP_openByAddr                                                         
82832360  MessageQ_Params_init__S                                                   
828326e0  __TI_wrt_ok                                                               
828327c0  close                                                                     
828328a0  exit                                                                      
828328a0  xdc_runtime_System_exitStd__E                                             
82832980  getSemaphore                                                              
82832a60  ltoa                                                                      
82832b40  memset                                                                    
82832c20  printf                                                                    
82832d00  ti_sdo_ipc_ListMP_Instance_finalize__E                                    
82832de0  ti_sdo_ipc_MessageQ_Module_startup__E                                     
82832ec0  ti_sdo_ipc_Notify_Instance_finalize__E                                    
82832fa0  ti_sdo_ipc_SharedRegion_clearReservedMemory__E                            
82832fa0  ti_sdo_ipc_SharedRegion_clearReservedMemory__F                            
82833080  ti_sdo_ipc_gates_GateMPSupportNull_enter__E                               
82833160  ti_sdo_ipc_gates_GateMPSupportNull_leave__E                               
82833240  ti_sdo_ipc_heaps_HeapMemMP_Instance_finalize__E                           
82833320  ti_sdo_ipc_nsremote_NameServerRemoteNotify_Instance_finalize__E           
82833400  ti_sdo_ipc_MessageQ_SetupTransportProxy_attach__E                         
82833400  ti_sdo_ipc_transports_TransportShmSetup_attach__E                         
828334e0  ti_sysbios_heaps_HeapMem_alloc__E                                         
828335c0  ti_sysbios_knl_Swi_Instance_finalize__E                                   
828336a0  ti_sysbios_knl_Clock_TimerProxy_startup__E                                
828336a0  ti_sysbios_timers_timer64_Timer_startup__E                                
82833780  xdc_runtime_Text_visitRope2__I                                            
82833860  HOSTread                                                                  
82833920  HOSTunlink                                                                
828339e0  Osal_delay                                                                
82833aa0  Qmss_getMemRegQueueHandleSubSys                                           
82833b60  SharedRegion_getId                                                        
82833fe0  __TI_doflush                                                              
828340a0  __c6xabi_divu                                                             
828340a0  __divu                                                                    
82834160  cppi_list_cat                                                             
82834280  Osal_platformMalloc                                                       
82834294  Osal_platformFree                                                         
828342b4  Osal_platformSpiCsEnter                                                   
828342d0  Osal_platformSpiCsExit                                                    
828342e0  ti_sdo_ipc_GateMP_create                                                  
828343a0  ti_sdo_ipc_GateMP_getRegion0ReservedSize__E                               
828343a0  ti_sdo_ipc_GateMP_getRegion0ReservedSize__F                               
82834460  ti_sdo_ipc_ListMP_create                                                  
82834520  ti_sdo_ipc_MessageQ_create                                                
828345e0  ti_sdo_ipc_MessageQ_grow__I                                               
828346a0  ti_sdo_ipc_gates_GatePeterson_Object__create__S                           
82834760  ti_sdo_ipc_gates_GatePeterson_create                                      
82834820  ti_sdo_ipc_heaps_HeapMemMP_Object__create__S                              
828348e0  ti_sdo_ipc_heaps_HeapMemMP_create                                         
828349a0  ti_sdo_ipc_nsremote_NameServerRemoteNotify_Object__create__S              
82834a60  ti_sdo_ipc_nsremote_NameServerRemoteNotify_create                         
82834b20  ti_sdo_ipc_transports_TransportShm_Object__create__S                      
82834be0  ti_sdo_ipc_transports_TransportShm_create                                 
82834ca0  ti_sysbios_gates_GateAll_leave__E                                         
82834d60  ti_sysbios_heaps_HeapMem_getStats__E                                      
82834e20  ti_sysbios_knl_Clock_logTick__E                                           
82834ee0  ti_sysbios_knl_Swi_schedule__I                                            
82834fa0  ti_sysbios_knl_Task_allBlockedFunction__I                                 
82835060  ti_sysbios_knl_Task_create                                                
82835120  ti_sysbios_syncs_SyncSem_Object__create__S                                
828351e0  ti_sysbios_syncs_SyncSem_create                                           
828352a0  __TI_tls_init                                                             
82835360  xdc_runtime_Assert_raise__I                                               
82835420  xdc_runtime_Error_setX__E                                                 
828354e0  xdc_runtime_LoggerBuf_Object__create__S                                   
828355a0  xdc_runtime_SysMin_abort__E                                               
828355a0  xdc_runtime_System_SupportProxy_abort__E                                  
82835660  xdc_runtime_SysMin_flush__E                                               
82835660  xdc_runtime_System_SupportProxy_flush__E                                  
82835660  xdc_runtime_System_flush__E                                               
82835720  Cppi_channelEnable                                                        
828357c0  Cppi_setCpdmaLoopback                                                     
82835860  HOSTclose                                                                 
82835900  Osal_DeleteInterrupt                                                      
828359a0  Qmss_queueOpenSubSys                                                      
82835a40  UART_init                                                                 
82835ae0  UART_stdioInit                                                            
82835b80  UART_v0_callback                                                          
82835c20  __TI_cleanup                                                              
82835cc0  __c6xabi_remu                                                             
82835cc0  __remu                                                                    
82835d60  _c_int00                                                                  
82835ea0  ti_sysbios_family_c64p_Hwi_plug__E                                        
82835f40  finddevice                                                                
82835fe0  memcpy                                                                    
82836080  ti_sdo_ipc_gates_GatePeterson_leave__E                                    
82836120  ti_sdo_ipc_gates_GatePeterson_postInit__I                                 
828361c0  ti_sdo_ipc_nsremote_NameServerRemoteNotify_detach__E                      
828361c0  ti_sdo_utils_NameServer_SetupProxy_detach__E                              
82836260  ti_sdo_ipc_transports_TransportShm_sharedMemReq__E                        
82836300  ti_sysbios_family_c64p_Exception_Module_startup__E                        
828363a0  ti_sysbios_family_c64p_Hwi_construct                                      
82836440  ti_sysbios_family_c64p_Hwi_dispatchC__I                                   
828364e0  ti_sysbios_family_c64p_Hwi_eventMap__E                                    
82836580  ti_sysbios_family_c64p_Hwi_getStackInfo__E                                
82836580  ti_sysbios_hal_Hwi_HwiProxy_getStackInfo__E                               
82836580  ti_sysbios_hal_Hwi_getStackInfo__E                                        
82836620  ti_sysbios_family_c66_tci66xx_CpIntc_mapSysIntToHostInt__E                
828366c0  ti_sysbios_gates_GateSwi_leave__E                                         
82836760  ti_sysbios_knl_Swi_construct                                              
82836800  ti_sysbios_timers_timer64_Timer_stop__E                                   
828368a0  xdc_runtime_Core_assignParams__I                                          
82836940  xdc_runtime_SysMin_putch__E                                               
82836940  xdc_runtime_System_SupportProxy_putch__E                                  
828369e0  xdc_runtime_System_formatNum__I                                           
82836a80  xdc_runtime_System_putchar__I                                             
82836b20  xdc_runtime_Text_printVisFxn__I                                           
82836bc0  xdc_runtime_Text_xprintf__I                                               
82836c60  xdc_runtime_knl_GateThread_Object__create__S                              
82836d00  xdc_runtime_knl_GateThread_create                                         
82836e20  EventCombinerP_getHwi                                                     
82836ea0  HeapMemMP_restore                                                         
82836f20  ListMP_create                                                             
82836fa0  MuxIntcP_create                                                           
82837020  Qmss_queueOpen                                                            
828370a0  Srio_freeRxDrvBuffer                                                      
82837120  Srio_sockBind                                                             
828371a0  Srio_sockSend                                                             
82837220  UART_charPut_v0                                                           
828372a0  UART_fIFOConfig_v0                                                        
82837320  __TI_readmsg                                                              
828373a0  __c6xabi_fixdu                                                            
82837420  __c6xabi_llshl                                                            
82837520  ti_sysbios_family_c62_TaskSupport_swap__E                                 
82837520  ti_sysbios_knl_Task_SupportProxy_swap__E                                  
828375a0  cppi_internal_heap_cache_begin                                            
82837620  cppi_internal_heap_malloc                                                 
828376a0  cppi_list_add                                                             
82837720  cppi_list_remove                                                          
828377a0  sysInit                                                                   
82837820  snprintf                                                                  
828378a0  evmI2CInit                                                                
82837920  ti_sdo_ipc_Ipc_getMasterAddr__I                                           
828379a0  ti_sdo_ipc_gates_GateHWSem_Module_startup__E                              
82837a20  ti_sdo_ipc_gates_GateHWSem_Object__create__S                              
82837aa0  ti_sdo_ipc_gates_GateHWSem_create                                         
82837b20  ti_sdo_ipc_gates_GateMPSupportNull_Object__create__S                      
82837ba0  ti_sdo_ipc_gates_GateMPSupportNull_create                                 
82837c20  ti_sdo_ipc_transports_TransportShm_swiFxn__I                              
82837ca0  ti_sysbios_BIOS_atExitFunc__I                                             
82837d20  ti_sysbios_BIOS_registerRTSLock__I                                        
82837da0  ti_sysbios_family_c66_Cache_invL1pAll__E                                  
82837e20  ti_sysbios_family_c66_tci66xx_CpIntc_getEventId__E                        
82837ea0  ti_sysbios_gates_GateAll_Object__create__S                                
82837f20  ti_sysbios_gates_GateHwi_Object__create__S                                
82837fa0  ti_sysbios_gates_GateMutexPri_Object__create__S                           
82838020  ti_sysbios_gates_GateMutex_Object__create__S                              
828380a0  ti_sysbios_gates_GateSwi_Object__create__S                                
82838120  ti_sysbios_hal_Hwi_checkStack                                             
828381a0  ti_sysbios_hal_Hwi_initStack                                              
82838220  ti_sysbios_heaps_HeapMem_Object__create__S                                
828382a0  ti_sysbios_heaps_HeapMem_init__I                                          
82838320  ti_sysbios_knl_Clock_doTick__I                                            
828383a0  ti_sysbios_knl_Idle_run__E                                                
82838420  ti_sysbios_knl_Semaphore_create                                           
828384a0  ti_sysbios_knl_Semaphore_pendTimeout__I                                   
82838520  ti_sysbios_knl_Swi_startup__E                                             
828385a0  ti_sysbios_knl_Task_restore__E                                            
82838620  malloc                                                                    
828386a0  ti_sysbios_syncs_SyncSem_wait__E                                          
82838720  ti_sysbios_xdcruntime_GateThreadSupport_create                            
828387a0  remove                                                                    
828387a0  unlink                                                                    
82838820  xdc_runtime_Core_assignLabel__I                                           
828388a0  xdc_runtime_LoggerBuf_Instance_init__E                                    
82838920  xdc_runtime_LoggerBuf_Module_startup__E                                   
828389a0  xdc_runtime_LoggerBuf_filterOutEvent__I                                   
82838a20  xdc_runtime_SysMin_output__I                                              
82838aa0  xdc_runtime_System_atexit__E                                              
82838b20  xdc_runtime_System_aprintf_va__E                                          
82838b20  xdc_runtime_System_aprintf_va__F                                          
82838b20  xdc_runtime_System_avprintf__E                                            
82838ba0  xdc_runtime_System_processAtExit__E                                       
82838c20  xdc_runtime_System_printf_va__E                                           
82838c20  xdc_runtime_System_printf_va__F                                           
82838c20  xdc_runtime_System_vprintf__E                                             
82838ca0  Board_PLLInit                                                             
82838d00  Board_eccInit                                                             
82838d60  HeapMemMP_create                                                          
82838e20  HwiP_delete                                                               
82838e80  Notify_attach                                                             
82838ee0  Osal_getHwAttrs                                                           
82838f40  Osal_getThreadType                                                        
82838fa0  Qmss_programAccumulator                                                   
82839000  Qmss_setQueueThreshold                                                    
82839060  SemaphoreP_delete                                                         
828390c0  SemaphoreP_pend                                                           
82839120  Srio_listCat                                                              
82839180  UART_divisorLatchWrite_v0                                                 
828391e0  UART_divisorValCompute_v0                                                 
82839240  UART_fifoWait_v0                                                          
828392a0  UART_lineCharacConfig_v0                                                  
82839360  UART_socGetInitCfg                                                        
828393c0  UART_socSetInitCfg                                                        
82839480  __TI_frcmpyd_div                                                          
828394e0  __TI_writemsg                                                             
82839538  C$$IO$$                                                                   
82839540  __c6xabi_llshru                                                           
828395a0  _subcull                                                                  
82839600  ti_sysbios_family_c64p_Hwi_switchAndDispatch__I                           
82839660  ti_sysbios_family_xxx_Hwi_switchAndRunFunc                                
828396c0  cppi_list_cache_invalidate                                                
82839720  lseek                                                                     
82839780  memccpy                                                                   
828397e0  sprintf                                                                   
82839840  ti_sdo_ipc_GateMP_Object__delete__S                                       
828398a0  ti_sdo_ipc_Ipc_getSlaveAddr__I                                            
82839900  ti_sdo_ipc_Ipc_reservedSizePerProc__I                                     
82839960  ti_sdo_ipc_ListMP_Object__delete__S                                       
828399c0  ti_sdo_ipc_ListMP_elemClear__I                                            
82839a20  ti_sdo_ipc_gates_GatePeterson_Object__delete__S                           
82839a80  ti_sdo_ipc_GateMP_RemoteCustom1Proxy_sharedMemReq__E                      
82839a80  ti_sdo_ipc_gates_GatePeterson_sharedMemReq__E                             
82839ae0  ti_sdo_ipc_heaps_HeapMemMP_Object__delete__S                              
82839b40  ti_sdo_ipc_nsremote_NameServerRemoteNotify_Object__delete__S              
82839ba0  ti_sdo_ipc_transports_TransportShm_Object__delete__S                      
82839c00  ti_sdo_utils_List_construct                                               
82839c60  ti_sysbios_BIOS_errorRaiseHook__I                                         
82839cc0  ti_sysbios_BIOS_removeRTSLock__I                                          
82839d20  ti_sysbios_BIOS_startFunc__I                                              
82839d80  ti_sysbios_family_c62_TaskSupport_start__E                                
82839d80  ti_sysbios_knl_Task_SupportProxy_start__E                                 
82839de0  ti_sysbios_family_c64p_EventCombiner_Module_startup__E                    
82839e40  ti_sysbios_family_c64p_EventCombiner_unused__E                            
82839ea0  ti_sysbios_family_c64p_Hwi_getEventId__E                                  
82839f00  ti_sysbios_family_c66_Cache_Module_startup__E                             
82839f60  ti_sysbios_family_c66_tci66xx_CpIntc_unused__E                            
82839fc0  ti_sysbios_gates_GateAll_enter__E                                         
8283a020  ti_sysbios_gates_GateMutexPri_Object__delete__S                           
8283a080  ti_sysbios_gates_GateMutexPri_construct                                   
8283a0e0  ti_sysbios_gates_GateMutex_Object__delete__S                              
8283a140  ti_sysbios_heaps_HeapMem_free__E                                          
8283a1a0  ti_sysbios_knl_Clock_Module_startup__E                                    
8283a200  ti_sysbios_knl_Queue_construct                                            
8283a260  ti_sysbios_knl_Semaphore_Object__delete__S                                
8283a2c0  ti_sysbios_knl_Semaphore_construct                                        
8283a320  ti_sysbios_knl_Swi_Module_startup__E                                      
8283a380  ti_sysbios_knl_Task_enter__I                                              
8283a3e0  ti_sysbios_syncs_SyncSem_Object__delete__S                                
8283a440  ti_sysbios_xdcruntime_GateThreadSupport_Object__delete__S                 
8283a4a0  UART_putc                                                                 
8283a500  write                                                                     
8283a560  xdc_runtime_LoggerBuf_Object__delete__S                                   
8283a5c0  xdc_runtime_LoggerBuf_reset__E                                            
8283a620  xdc_runtime_Memory_valloc__E                                              
8283a680  xdc_runtime_Text_cordText__E                                              
8283a6e0  xdc_runtime_knl_GateThread_Object__delete__S                              
8283a740  GateMP_Params_init                                                        
8283a780  HeapMemMP_Params_init                                                     
8283a7c0  Notify_numIntLines                                                        
8283a800  Notify_sharedMemReq                                                       
8283a840  Osal_RegisterInterrupt_initParams                                         
8283a880  Qmss_getMemRegDescSizeSubSys                                              
8283a8c0  Qmss_internalVirtToPhy                                                    
8283a900  Qmss_queueClose                                                           
8283a940  Qmss_start                                                                
8283a980  SemaphoreP_Params_init                                                    
8283a9c0  SemaphoreP_post                                                           
8283a9c0  SemaphoreP_postFromClock                                                  
8283a9c0  SemaphoreP_postFromISR                                                    
8283aa00  Srio_listAdd                                                              
8283aa40  Srio_listRemove                                                           
8283aa80  UART_breakCtl_v0                                                          
8283aac0  UART_charGetNonBlocking2_v0                                               
8283ab00  UART_intDisable_v0                                                        
8283ab40  UART_intEnable_v0                                                         
8283ab80  UART_intIdentityGet_v0                                                    
8283abc0  UART_loopbackModeControl_v0                                               
8283ac00  UART_open                                                                 
8283ac40  UART_readLineStatus_v0                                                    
8283ac80  _DebugP_assert                                                            
8283acc0  __c6xabi_isinf                                                            
8283ad40  __c6xabi_call_stub                                                        
8283ad40  __call_stub                                                               
8283ad80  __c6xabi_strasgi_64plus                                                   
8283ad80  __strasgi_64plus                                                          
8283adc0  _args_main                                                                
8283aec0  ti_sysbios_family_c62_TaskSupport_buildTaskStack                          
8283af00  l2_global_address                                                         
8283af40  free                                                                      
8283af80  releaseSemaphore                                                          
8283afc0  dspControlUserLEDs                                                        
8283b000  ti_sdo_ipc_Ipc_getRegion0ReservedSize__I                                  
8283b040  ti_sdo_ipc_GateMP_RemoteSystemProxy_Handle__label__S                      
8283b040  ti_sdo_ipc_gates_GateHWSem_Handle__label__S                               
8283b080  ti_sdo_ipc_gates_GateHWSem_Object__delete__S                              
8283b0c0  ti_sdo_ipc_gates_GateHWSem_leave__E                                       
8283b100  ti_sdo_ipc_GateMP_RemoteCustom2Proxy_Handle__label__S                     
8283b100  ti_sdo_ipc_gates_GateMPSupportNull_Handle__label__S                       
8283b140  ti_sdo_ipc_gates_GateMPSupportNull_Object__delete__S                      
8283b180  ti_sdo_ipc_GateMP_RemoteCustom1Proxy_Handle__label__S                     
8283b180  ti_sdo_ipc_gates_GatePeterson_Handle__label__S                            
8283b1c0  ti_sdo_ipc_gates_GatePeterson_Instance_finalize__E                        
8283b200  ti_sdo_ipc_heaps_HeapMemMP_Handle__label__S                               
8283b240  ti_sdo_ipc_nsremote_NameServerRemoteNotify_Handle__label__S               
8283b240  ti_sdo_utils_NameServer_SetupProxy_Handle__label__S                       
8283b280  ti_sdo_ipc_nsremote_NameServerRemoteNotify_swiFxnResponse__I              
8283b2c0  ti_sdo_ipc_MessageQ_SetupTransportProxy_sharedMemReq__E                   
8283b2c0  ti_sdo_ipc_transports_TransportShmSetup_sharedMemReq__E                   
8283b300  ti_sdo_ipc_transports_TransportShm_Handle__label__S                       
8283b340  ti_sdo_utils_List_get__E                                                  
8283b380  ti_sdo_utils_List_putHead__E                                              
8283b3c0  ti_sdo_utils_List_put__E                                                  
8283b400  ti_sdo_utils_NameServer_Object__get__S                                    
8283b440  ti_sysbios_BIOS_exitFunc__I                                               
8283b480  ti_sysbios_BIOS_rtsLock__I                                                
8283b4c0  ti_sysbios_BIOS_rtsUnlock__I                                              
8283b500  ti_sysbios_family_c64p_Hwi_destruct                                       
8283b540  ti_sysbios_family_c64p_Hwi_disableInterrupt__E                            
8283b540  ti_sysbios_hal_Hwi_HwiProxy_disableInterrupt__E                           
8283b540  ti_sysbios_hal_Hwi_disableInterrupt__E                                    
8283b580  ti_sysbios_family_c64p_Hwi_enableInterrupt__E                             
8283b580  ti_sysbios_hal_Hwi_HwiProxy_enableInterrupt__E                            
8283b580  ti_sysbios_hal_Hwi_enableInterrupt__E                                     
8283b5c0  ti_sysbios_family_c66_tci66xx_CpIntc_dispatchPlug__E                      
8283b600  ti_sysbios_gates_GateAll_Handle__label__S                                 
8283b640  ti_sysbios_gates_GateAll_Object__delete__S                                
8283b680  ti_sysbios_gates_GateHwi_Handle__label__S                                 
8283b680  xdc_runtime_LoggerBuf_Module_GateProxy_Handle__label__S                   
8283b680  xdc_runtime_Main_Module_GateProxy_Handle__label__S                        
8283b680  xdc_runtime_System_Module_GateProxy_Handle__label__S                      
8283b6c0  ti_sysbios_gates_GateHwi_Object__delete__S                                
8283b700  ti_sysbios_gates_GateMutexPri_Handle__label__S                            
8283b740  ti_sysbios_gates_GateMutexPri_Instance_init__E                            
8283b780  ti_sysbios_gates_GateMutexPri_destruct                                    
8283b7c0  ti_sysbios_BIOS_RtsGateProxy_Handle__label__S                             
8283b7c0  ti_sysbios_gates_GateMutex_Handle__label__S                               
8283b7c0  ti_sysbios_heaps_HeapMem_Module_GateProxy_Handle__label__S                
8283b800  ti_sysbios_gates_GateMutex_Instance_init__E                               
8283b840  ti_sysbios_gates_GateMutex_leave__E                                       
8283b880  ti_sdo_ipc_Notify_Module_GateProxy_Handle__label__S                       
8283b880  ti_sysbios_gates_GateSwi_Handle__label__S                                 
8283b8c0  ti_sysbios_gates_GateSwi_Object__delete__S                                
8283b900  ti_sysbios_heaps_HeapMem_Handle__label__S                                 
8283b900  xdc_runtime_Memory_HeapProxy_Handle__label__S                             
8283b940  ti_sysbios_heaps_HeapMem_Object__delete__S                                
8283b980  ti_sysbios_heaps_HeapMem_Object__get__S                                   
8283b9c0  ti_sysbios_knl_Semaphore_destruct                                         
8283ba00  ti_sysbios_knl_Swi_Object__get__S                                         
8283ba40  ti_sysbios_knl_Swi_destruct                                               
8283ba80  ti_sysbios_knl_Task_Object__get__S                                        
8283bac0  ti_sysbios_knl_Task_sleepTimeout__I                                       
8283bb00  ti_sysbios_syncs_SyncSem_Handle__label__S                                 
8283bb40  vsprintf                                                                  
8283bb80  wcslen                                                                    
8283bbc0  xdc_runtime_Error_check__E                                                
8283bc00  xdc_runtime_Error_init__E                                                 
8283bc40  xdc_runtime_GateNull_Handle__label__S                                     
8283bc80  xdc_runtime_GateNull_Object__create__S                                    
8283bcc0  xdc_runtime_GateNull_Object__delete__S                                    
8283bd00  xdc_runtime_LoggerBuf_Handle__label__S                                    
8283bd40  xdc_runtime_LoggerBuf_Instance_finalize__E                                
8283bd80  xdc_runtime_LoggerBuf_Object__get__S                                      
8283bdc0  xdc_runtime_LoggerBuf_write0__E                                           
8283be00  xdc_runtime_LoggerBuf_write1__E                                           
8283be40  xdc_runtime_LoggerBuf_write2__E                                           
8283be80  xdc_runtime_Registry_findById__E                                          
8283bec0  xdc_runtime_SysMin_Module_startup__E                                      
8283bf00  xdc_runtime_SysMin_exit__E                                                
8283bf00  xdc_runtime_System_SupportProxy_exit__E                                   
8283bf40  xdc_runtime_System_abort__E                                               
8283bf80  xdc_runtime_System_aprintf__E                                             
8283bfc0  xdc_runtime_System_exit__E                                                
8283c000  xdc_runtime_System_printf__E                                              
8283c040  xdc_runtime_knl_GateThread_Handle__label__S                               
8283c080  xdc_runtime_knl_GateThread_Instance_init__E                               
8283c100  Board_ethPhyInit                                                          
8283c120  Board_getNumPSCconfigs                                                    
8283c140  Board_getNumPllcConfigs                                                   
8283c160  Board_uartStdioInit                                                       
8283c180  CSL_GPIO_open                                                             
8283c1a0  CSL_SRIO_Open                                                             
8283c1e0  Cppi_getChannelNumber                                                     
8283c200  Cppi_getFlowId                                                            
8283c220  Cppi_initDescriptor                                                       
8283c240  Cppi_txChannelOpen                                                        
8283c260  EventCombinerP_disableEvent                                               
8283c280  EventCombinerP_dispatchPlug                                               
8283c2a0  EventCombinerP_enableEvent                                                
8283c2c0  GateMP_delete                                                             
8283c2e0  GateMP_getDefaultRemote                                                   
8283c340  HwiP_disable                                                              
8283c360  HwiP_restore                                                              
8283c380  ListMP_Params_init                                                        
8283c3a0  ListMP_close                                                              
8283c3c0  ListMP_delete                                                             
8283c3e0  MultiProc_getBaseIdOfCluster                                              
8283c400  MultiProc_self                                                            
8283c420  NameServer_addUInt32                                                      
8283c440  NameServer_getLocalUInt32                                                 
8283c460  NameServer_removeEntry                                                    
8283c480  Qmss_getQueueHandle                                                       
8283c4a0  Qmss_getQueueNumber                                                       
8283c4c0  Qmss_init                                                                 
8283c4e0  Qmss_insertMemoryRegion                                                   
8283c500  SharedRegion_invalidSRPtr                                                 
8283c520  Srio_init                                                                 
8283c540  UART_Params_init                                                          
8283c580  UART_divisorLatchDisable_v0                                               
8283c5a0  UART_fIFOCharPut_v0                                                       
8283c5c0  UART_fifoEmpty_v0                                                         
8283c600  UART_operatingModeSelect_v0                                               
8283c620  UART_pwremuConfig_v0                                                      
8283c640  UART_write                                                                
8283c660  UART_writePolling                                                         
8283c680  _GateMP_virtToPhys                                                        
8283c6a0  __c6xabi_errno_addr                                                       
8283c6c0  __c6xabi_pop_rts                                                          
8283c6c0  __pop_rts                                                                 
8283c6e0  __c6xabi_push_rts                                                         
8283c6e0  __push_rts                                                                
8283c700  _nop                                                                      
8283c7a0  _register_lock                                                            
8283c7c0  _register_synch_api                                                       
8283c7e0  _register_unlock                                                          
8283c800  _signbit                                                                  
8283c820  ti_sysbios_family_c62_TaskSupport_glue                                    
8283c840  C$$EXIT                                                                   
8283c840  abort                                                                     
8283c840  xdc_runtime_System_abortStd__E                                            
8283c860  copysign                                                                  
8283c860  copysignl                                                                 
8283c880  cppi_list_get_head                                                        
8283c8a0  cppi_list_get_next                                                        
8283c8c0  CSL_tscEnable                                                             
8283c8c8  CSL_tscRead                                                               
8283c8e0  __TI_decompress_none                                                      
8283c900  __TI_decompress_rle24                                                     
8283c940  ti_sdo_ipc_GateMP_Params__init__S                                         
8283c960  ti_sdo_ipc_GateMP_RemoteCustom1Proxy_Proxy__abstract__S                   
8283c980  ti_sdo_ipc_GateMP_RemoteCustom1Proxy_Proxy__delegate__S                   
8283c9a0  ti_sdo_ipc_GateMP_RemoteCustom1Proxy_create                               
8283c9c0  ti_sdo_ipc_GateMP_RemoteCustom1Proxy_delete                               
8283c9e0  ti_sdo_ipc_GateMP_RemoteCustom2Proxy_Proxy__abstract__S                   
8283ca00  ti_sdo_ipc_GateMP_RemoteCustom2Proxy_Proxy__delegate__S                   
8283ca20  ti_sdo_ipc_GateMP_RemoteCustom2Proxy_create                               
8283ca40  ti_sdo_ipc_GateMP_RemoteCustom2Proxy_delete                               
8283ca60  ti_sdo_ipc_GateMP_RemoteSystemProxy_Proxy__abstract__S                    
8283ca80  ti_sdo_ipc_GateMP_RemoteSystemProxy_Proxy__delegate__S                    
8283caa0  ti_sdo_ipc_GateMP_RemoteSystemProxy_create                                
8283cac0  ti_sdo_ipc_GateMP_RemoteSystemProxy_delete                                
8283cae0  ti_sdo_ipc_GateMP_delete                                                  
8283cb00  ti_sdo_ipc_GateMP_getSharedAddr__E                                        
8283cb00  ti_sdo_ipc_GateMP_getSharedAddr__F                                        
8283cb20  ti_sdo_ipc_GateMP_setDefaultRemote__E                                     
8283cb20  ti_sdo_ipc_GateMP_setDefaultRemote__F                                     
8283cb40  ti_sdo_ipc_ListMP_Params__init__S                                         
8283cb60  ti_sdo_ipc_ListMP_delete                                                  
8283cb80  ti_sdo_ipc_MessageQ_Object__get__S                                        
8283cba0  ti_sdo_ipc_MessageQ_Params__init__S                                       
8283cbc0  ti_sdo_ipc_Notify_Module_GateProxy_enter__E                               
8283cbe0  ti_sdo_ipc_Notify_Module_GateProxy_leave__E                               
8283cc00  ti_sdo_ipc_GateMP_RemoteSystemProxy_Params__init__S                       
8283cc00  ti_sdo_ipc_gates_GateHWSem_Params__init__S                                
8283cc20  ti_sdo_ipc_GateMP_RemoteSystemProxy_getReservedMask__E                    
8283cc20  ti_sdo_ipc_gates_GateHWSem_getReservedMask__E                             
8283cc40  ti_sdo_ipc_GateMP_RemoteSystemProxy_query__E                              
8283cc40  ti_sdo_ipc_gates_GateHWSem_query__E                                       
8283cc60  ti_sdo_ipc_GateMP_RemoteSystemProxy_sharedMemReq__E                       
8283cc60  ti_sdo_ipc_gates_GateHWSem_sharedMemReq__E                                
8283cc80  ti_sdo_ipc_gates_GateMPSupportNull_Instance_init__E                       
8283cca0  ti_sdo_ipc_GateMP_RemoteCustom2Proxy_Params__init__S                      
8283cca0  ti_sdo_ipc_gates_GateMPSupportNull_Params__init__S                        
8283ccc0  ti_sdo_ipc_GateMP_RemoteCustom2Proxy_getReservedMask__E                   
8283ccc0  ti_sdo_ipc_gates_GateMPSupportNull_getReservedMask__E                     
8283cce0  ti_sdo_ipc_GateMP_RemoteCustom2Proxy_query__E                             
8283cce0  ti_sdo_ipc_gates_GateMPSupportNull_query__E                               
8283cd00  ti_sdo_ipc_GateMP_RemoteCustom2Proxy_sharedMemReq__E                      
8283cd00  ti_sdo_ipc_gates_GateMPSupportNull_sharedMemReq__E                        
8283cd20  ti_sdo_ipc_GateMP_RemoteCustom1Proxy_Params__init__S                      
8283cd20  ti_sdo_ipc_gates_GatePeterson_Params__init__S                             
8283cd40  ti_sdo_ipc_GateMP_RemoteCustom1Proxy_getReservedMask__E                   
8283cd40  ti_sdo_ipc_gates_GatePeterson_getReservedMask__E                          
8283cd60  ti_sdo_ipc_GateMP_RemoteCustom1Proxy_query__E                             
8283cd60  ti_sdo_ipc_gates_GatePeterson_query__E                                    
8283cd80  ti_sdo_ipc_heaps_HeapMemMP_Params__init__S                                
8283cda0  ti_sdo_ipc_heaps_HeapMemMP_isBlocking__E                                  
8283cdc0  ti_sdo_ipc_Notify_SetupProxy_attach__E                                    
8283cdc0  ti_sdo_ipc_notifyDrivers_NotifySetupNull_attach__E                        
8283cde0  ti_sdo_ipc_Notify_SetupProxy_numIntLines__E                               
8283cde0  ti_sdo_ipc_notifyDrivers_NotifySetupNull_numIntLines__E                   
8283ce00  ti_sdo_ipc_Notify_SetupProxy_sharedMemReq__E                              
8283ce00  ti_sdo_ipc_notifyDrivers_NotifySetupNull_sharedMemReq__E                  
8283ce20  ti_sdo_ipc_nsremote_NameServerRemoteNotify_Object__first__S               
8283ce40  ti_sdo_ipc_nsremote_NameServerRemoteNotify_Object__next__S                
8283ce60  ti_sdo_ipc_nsremote_NameServerRemoteNotify_Params__init__S                
8283ce60  ti_sdo_utils_NameServer_SetupProxy_Params__init__S                        
8283ce80  ti_sdo_ipc_nsremote_NameServerRemoteNotify_delete                         
8283cea0  ti_sdo_ipc_nsremote_NameServerRemoteNotify_sharedMemReq__E                
8283cea0  ti_sdo_utils_NameServer_SetupProxy_sharedMemReq__E                        
8283cec0  ti_sdo_ipc_MessageQ_SetupTransportProxy_isRegistered__E                   
8283cec0  ti_sdo_ipc_transports_TransportShmSetup_isRegistered__E                   
8283cee0  ti_sdo_ipc_transports_TransportShm_Params__init__S                        
8283cf00  ti_sdo_ipc_transports_TransportShm_control__E                             
8283cf20  ti_sdo_ipc_transports_TransportShm_getStatus__E                           
8283cf40  ti_sdo_ipc_transports_TransportShm_notifyFxn__I                           
8283cf60  ti_sdo_ipc_transports_TransportShm_setErrFxn__E                           
8283cf80  ti_sdo_utils_List_Instance_init__E                                        
8283cfa0  ti_sdo_utils_List_Object__get__S                                          
8283cfc0  ti_sdo_utils_List_destruct                                                
8283cfe0  ti_sdo_utils_MultiProc_getClusterId__E                                    
8283cfe0  ti_sdo_utils_MultiProc_getClusterId__F                                    
8283d000  ti_sdo_utils_NameServer_Module__startupDone__F                            
8283d000  ti_sdo_utils_NameServer_Module__startupDone__S                            
8283d020  ti_sdo_utils_NameServer_Object__first__S                                  
8283d040  ti_sdo_utils_NameServer_Object__next__S                                   
8283d060  ti_sysbios_BIOS_RtsGateProxy_enter__E                                     
8283d080  ti_sysbios_BIOS_RtsGateProxy_leave__E                                     
8283d0a0  ti_sysbios_BIOS_exit__E                                                   
8283d0c0  ti_sysbios_BIOS_getThreadType__E                                          
8283d0e0  ti_sysbios_BIOS_linkedWithIncorrectBootLibrary__E                         
8283d100  ti_sysbios_BIOS_nullFunc__I                                               
8283d120  ti_sysbios_BIOS_setThreadType__E                                          
8283d140  ti_sysbios_BIOS_start__E                                                  
8283d160  ti_sysbios_family_c62_TaskSupport_Module__startupDone__S                  
8283d160  ti_sysbios_knl_Task_SupportProxy_Module__startupDone__S                   
8283d180  ti_sysbios_family_c62_TaskSupport_checkStack__E                           
8283d180  ti_sysbios_knl_Task_SupportProxy_checkStack__E                            
8283d1a0  ti_sysbios_family_c62_TaskSupport_getStackAlignment__E                    
8283d1a0  ti_sysbios_knl_Task_SupportProxy_getStackAlignment__E                     
8283d1c0  ti_sysbios_family_c64p_Hwi_Module__startupDone__F                         
8283d1c0  ti_sysbios_family_c64p_Hwi_Module__startupDone__S                         
8283d1c0  ti_sysbios_hal_Hwi_HwiProxy_Module__startupDone__S                        
8283d1e0  ti_sysbios_family_c64p_Hwi_Params__init__S                                
8283d1e0  ti_sysbios_hal_Hwi_HwiProxy_Params__init__S                               
8283d200  ti_sysbios_family_c64p_Hwi_clearInterrupt__E                              
8283d200  ti_sysbios_hal_Hwi_HwiProxy_clearInterrupt__E                             
8283d200  ti_sysbios_hal_Hwi_clearInterrupt__E                                      
8283d220  ti_sysbios_family_c64p_Hwi_getFunc__E                                     
8283d240  ti_sysbios_family_c64p_Hwi_getHandle__E                                   
8283d260  ti_sysbios_family_c64p_Hwi_startup__E                                     
8283d260  ti_sysbios_hal_Hwi_HwiProxy_startup__E                                    
8283d260  ti_sysbios_hal_Hwi_startup__E                                             
8283d280  ti_sysbios_family_c64p_Hwi_switchFromBootStack__E                         
8283d280  ti_sysbios_hal_Hwi_HwiProxy_switchFromBootStack__E                        
8283d280  ti_sysbios_hal_Hwi_switchFromBootStack__E                                 
8283d2a0  ti_sysbios_family_c64p_Hwi_unPluggedInterrupt__I                          
8283d2c0  ti_sysbios_family_c64p_TimestampProvider_Module_startup__E                
8283d2e0  ti_sysbios_family_c64p_TimestampProvider_get64__E                         
8283d2e0  xdc_runtime_LoggerBuf_TimestampProxy_get64__E                             
8283d300  ti_sysbios_family_c64p_tci6488_TimerSupport_enable__E                     
8283d300  ti_sysbios_timers_timer64_Timer_TimerSupportProxy_enable__E               
8283d320  ti_sysbios_family_c66_Cache_RTSSynchInv__I                                
8283d340  ti_sysbios_family_c66_Cache_RTSSynchWbInv__I                              
8283d360  ti_sysbios_family_c66_Cache_RTSSynchWb__I                                 
8283d380  ti_sysbios_family_c66_Cache_inv__E                                        
8283d380  ti_sysbios_hal_Cache_CacheProxy_inv__E                                    
8283d380  ti_sysbios_hal_Cache_inv__E                                               
8283d3a0  ti_sysbios_family_c66_Cache_wait__E                                       
8283d3a0  ti_sysbios_hal_Cache_CacheProxy_wait__E                                   
8283d3a0  ti_sysbios_hal_Cache_wait__E                                              
8283d3c0  ti_sysbios_family_c66_Cache_wbInv__E                                      
8283d3c0  ti_sysbios_hal_Cache_CacheProxy_wbInv__E                                  
8283d3c0  ti_sysbios_hal_Cache_wbInv__E                                             
8283d3e0  ti_sysbios_family_c66_tci66xx_CpIntc_enableHostInt__E                     
8283d400  ti_sysbios_gates_GateAll_Instance_init__E                                 
8283d420  ti_sysbios_gates_GateAll_query__E                                         
8283d440  ti_sysbios_gates_GateHwi_Instance_init__E                                 
8283d460  ti_sysbios_gates_GateHwi_enter__E                                         
8283d480  ti_sysbios_gates_GateHwi_leave__E                                         
8283d4a0  ti_sysbios_gates_GateHwi_query__E                                         
8283d4a0  xdc_runtime_LoggerBuf_Module_GateProxy_query__E                           
8283d4a0  xdc_runtime_Main_Module_GateProxy_query__E                                
8283d4a0  xdc_runtime_System_Module_GateProxy_query__E                              
8283d4c0  ti_sysbios_gates_GateMutexPri_Instance_finalize__E                        
8283d4e0  ti_sysbios_gates_GateMutexPri_query__E                                    
8283d4e0  ti_sysbios_xdcruntime_GateThreadSupport_query__E                          
8283d4e0  xdc_runtime_knl_GateThread_Proxy_query__E                                 
8283d4e0  xdc_runtime_knl_GateThread_query__E                                       
8283d500  ti_sysbios_gates_GateMutex_Instance_finalize__E                           
8283d520  ti_sysbios_BIOS_RtsGateProxy_query__E                                     
8283d520  ti_sysbios_gates_GateMutex_query__E                                       
8283d520  ti_sysbios_heaps_HeapMem_Module_GateProxy_query__E                        
8283d540  ti_sysbios_gates_GateSwi_Instance_init__E                                 
8283d560  ti_sdo_ipc_Notify_Module_GateProxy_query__E                               
8283d560  ti_sysbios_gates_GateSwi_query__E                                         
8283d580  ti_sysbios_hal_Hwi_Module_startup__E                                      
8283d5a0  ti_sysbios_heaps_HeapMem_Module_GateProxy_enter__E                        
8283d5c0  ti_sysbios_heaps_HeapMem_Module_GateProxy_leave__E                        
8283d5e0  ti_sysbios_heaps_HeapMem_isBlocking__E                                    
8283d600  ti_sysbios_knl_Clock_TimerProxy_getMaxTicks__E                            
8283d620  ti_sysbios_knl_Idle_loop__E                                               
8283d640  ti_sysbios_knl_Queue_Instance_init__E                                     
8283d660  ti_sysbios_knl_Queue_Object__get__S                                       
8283d680  ti_sysbios_knl_Queue_destruct                                             
8283d6a0  ti_sysbios_knl_Queue_empty__E                                             
8283d6c0  ti_sysbios_knl_Semaphore_Instance_finalize__E                             
8283d6e0  ti_sysbios_knl_Semaphore_Params__init__S                                  
8283d700  ti_sysbios_knl_Semaphore_delete                                           
8283d720  ti_sysbios_knl_Swi_Params__init__S                                        
8283d740  ti_sysbios_knl_Swi_disable__E                                             
8283d760  ti_sysbios_knl_Task_disable__E                                            
8283d780  ti_sysbios_knl_Task_startup__E                                            
8283d7a0  ti_sysbios_syncs_SyncSem_Instance_finalize__E                             
8283d7c0  ti_sysbios_syncs_SyncSem_delete                                           
8283d7e0  ti_sysbios_syncs_SyncSem_query__E                                         
8283d800  ti_sysbios_syncs_SyncSem_signal__E                                        
8283d820  ti_sysbios_knl_Clock_TimerProxy_Module__startupDone__S                    
8283d820  ti_sysbios_timers_timer64_Timer_Module__startupDone__F                    
8283d820  ti_sysbios_timers_timer64_Timer_Module__startupDone__S                    
8283d840  ti_sysbios_timers_timer64_Timer_getMaxTicks__E                            
8283d860  ti_sysbios_xdcruntime_GateThreadSupport_Instance_finalize__E              
8283d880  ti_sysbios_xdcruntime_GateThreadSupport_Instance_init__E                  
8283d8a0  ti_sysbios_xdcruntime_GateThreadSupport_enter__E                          
8283d8c0  xdc_runtime_Error_getSite__E                                              
8283d8e0  xdc_runtime_Error_raiseX__E                                               
8283d900  xdc_runtime_GateNull_enter__E                                             
8283d920  xdc_runtime_GateNull_leave__E                                             
8283d940  xdc_runtime_GateNull_query__E                                             
8283d960  xdc_runtime_Gate_enterSystem__E                                           
8283d980  xdc_runtime_Gate_leaveSystem__E                                           
8283d9a0  xdc_runtime_Memory_HeapProxy_alloc__E                                     
8283d9c0  xdc_runtime_Memory_HeapProxy_free__E                                      
8283d9e0  xdc_runtime_LoggerBuf_Module_GateProxy_enter__E                           
8283da00  xdc_runtime_LoggerBuf_Module_GateProxy_leave__E                           
8283da20  xdc_runtime_LoggerBuf_disable__E                                          
8283da40  xdc_runtime_LoggerBuf_enable__E                                           
8283da60  xdc_runtime_Memory_calloc__E                                              
8283da80  xdc_runtime_Memory_free__E                                                
8283daa0  xdc_runtime_Memory_getMaxDefaultTypeAlign__E                              
8283dac0  xdc_runtime_Startup_Module__startupDone__S                                
8283dae0  xdc_runtime_Startup_exec__I                                               
8283db00  xdc_runtime_Startup_rtsDone__E                                            
8283db20  xdc_runtime_SysMin_ready__E                                               
8283db20  xdc_runtime_System_SupportProxy_ready__E                                  
8283db40  xdc_runtime_System_Module_GateProxy_enter__E                              
8283db60  xdc_runtime_System_Module_GateProxy_leave__E                              
8283db80  xdc_runtime_System_Module_startup__E                                      
8283dba0  xdc_runtime_System_snprintf_va__E                                         
8283dba0  xdc_runtime_System_snprintf_va__F                                         
8283dba0  xdc_runtime_System_vsnprintf__E                                           
8283dbc0  xdc_runtime_Text_ropeText__E                                              
8283dbe0  xdc_runtime_Text_visitRope__I                                             
8283dc00  xdc_runtime_knl_GateThread_Instance_finalize__E                           
8283dc20  xdc_runtime_knl_GateThread_Module__startupDone__S                         
8283dc40  xdc_runtime_knl_GateThread_Proxy_create                                   
8283dc60  xdc_runtime_knl_GateThread_Proxy_delete                                   
8283dc80  xdc_runtime_knl_GateThread_Proxy_enter__E                                 
8283dca0  xdc_runtime_knl_GateThread_Proxy_leave__E                                 
8283dcc0  xdc_runtime_knl_GateThread_enter__E                                       
8283dce0  xdc_runtime_knl_GateThread_leave__E                                       
8283dd00  ti_sysbios_heaps_HeapMem_Instance_State_0_buf__A                          
8284c500  ti_sysbios_knl_Task_Instance_State_0_stack__A                             
82850500  qmssLObj                                                                  
82850aa8  xdc_runtime_LoggerBuf_Instance_State_0_entryArr__A                        
82850ca8  xdc_runtime_SysMin_Module_State_0_outbuf__A                               
82850ea8  __TI_tmpnams                                                              
82850fe8  gDataBufferMemMgr                                                         
828510d8  UartObjects                                                               
82851188  gI2cBlock                                                                 
828511d0  rxQueHnd                                                                  
828511f0  parmbuf                                                                   
828511f8  qmssLObjIsValid                                                           
82851200  xdc_runtime_Text_charTab__A                                               
828555c0  ti_sysbios_family_c66_Cache_marvalues__C                                  
82855c28  xdc_runtime_Text_nodeTab__A                                               
82855da8  ti_sysbios_family_c66_tci66xx_CpIntc_sysIntToHostInt__A                   
82856000  _ctypes_                                                                  
82856101  ti_sysbios_timers_timer64_Timer_localTimerBaseId__C                       
82856102  ti_sdo_ipc_GateMP_Module__id__C                                           
82856480  xdc_runtime_Startup_sfxnTab__A                                            
828564c8  ti_sysbios_knl_Task_Object__PARAMS__C                                     
8285654c  UART_defaultParams                                                        
82856590  pscConfigs                                                                
828565d0  xdc_runtime_LoggerBuf_Module__FXNS__C                                     
8285660c  ti_sdo_ipc_GateMP_Object__PARAMS__C                                       
82856640  UART_FxnTable_v0                                                          
82856670  pllcConfigs                                                               
828566a0  ti_sdo_ipc_heaps_HeapMemMP_Object__PARAMS__C                              
828566d0  ti_sysbios_family_c64p_Hwi_Object__PARAMS__C                              
8285672c  ti_sdo_ipc_ListMP_Object__PARAMS__C                                       
82856758  ti_sdo_ipc_gates_GateHWSem_Module__FXNS__C                                
82856784  ti_sdo_ipc_gates_GateMPSupportNull_Module__FXNS__C                        
828567b0  ti_sdo_ipc_gates_GatePeterson_Module__FXNS__C                             
82856808  ti_sdo_ipc_heaps_HeapMemMP_Module__FXNS__C                                
82856830  ti_sdo_ipc_nsremote_NameServerRemoteNotify_Module__FXNS__C                
82856858  ti_sdo_ipc_transports_TransportShm_Module__FXNS__C                        
82856880  ti_sdo_ipc_transports_TransportShm_Object__PARAMS__C                      
828568a8  ti_sysbios_heaps_HeapMem_Module__FXNS__C                                  
828568d0  ti_sysbios_knl_Swi_Object__PARAMS__C                                      
828568f8  xdc_runtime_LoggerBuf_Object__PARAMS__C                                   
8285698c  ti_sdo_ipc_GateMP_A_invalidClose__C                                       
82856990  Board_ext_clk                                                             
828569b4  ti_sdo_ipc_gates_GateHWSem_Object__PARAMS__C                              
828569d8  ti_sdo_ipc_gates_GateMPSupportNull_Object__PARAMS__C                      
828569fc  ti_sdo_ipc_gates_GatePeterson_Object__PARAMS__C                           
82856a20  ti_sysbios_gates_GateAll_Module__FXNS__C                                  
82856a44  ti_sysbios_gates_GateHwi_Module__FXNS__C                                  
82856a68  ti_sysbios_gates_GateMutexPri_Module__FXNS__C                             
82856a8c  ti_sysbios_gates_GateMutex_Module__FXNS__C                                
82856ab0  ti_sysbios_gates_GateSwi_Module__FXNS__C                                  
82856ad4  ti_sysbios_heaps_HeapMem_Object__PARAMS__C                                
82856af8  ti_sysbios_knl_Semaphore_Object__PARAMS__C                                
82856b1c  ti_sysbios_syncs_SyncSem_Module__FXNS__C                                  
82856b40  xdc_runtime_GateNull_Module__FXNS__C                                      
82856b64  ti_sdo_ipc_GateMP_A_invalidDelete__C                                      
82856b68  xdc_runtime_Startup_sfxnRts__A                                            
82856b8c  xdc_runtime_knl_GateThread_Module__FXNS__C                                
82856bd0  keystonePllcRegs                                                          
82856bf0  rxQueNum                                                                  
82856c10  ti_sdo_ipc_GateMP_Object__DESC__C                                         
82856c30  ti_sdo_ipc_ListMP_Object__DESC__C                                         
82856c50  ti_sdo_ipc_MessageQ_Object__DESC__C                                       
82856c70  ti_sdo_ipc_MessageQ_Object__PARAMS__C                                     
82856c90  ti_sdo_ipc_Notify_Object__DESC__C                                         
82856cb0  ti_sdo_ipc_gates_GateHWSem_Object__DESC__C                                
82856cd0  ti_sdo_ipc_gates_GateMPSupportNull_Object__DESC__C                        
82856cf0  ti_sdo_ipc_gates_GatePeterson_Object__DESC__C                             
82856d10  ti_sdo_ipc_heaps_HeapMemMP_Object__DESC__C                                
82856d30  ti_sdo_ipc_nsremote_NameServerRemoteNotify_Object__DESC__C                
82856d50  ti_sdo_ipc_nsremote_NameServerRemoteNotify_Object__PARAMS__C              
82856d70  ti_sdo_ipc_transports_TransportShm_Object__DESC__C                        
82856d90  ti_sdo_utils_List_Object__DESC__C                                         
82856db0  ti_sysbios_family_c64p_Hwi_Object__DESC__C                                
82856dd0  ti_sysbios_family_c66_tci66xx_CpIntc_hostIntToEventId__A                  
82856df0  ti_sysbios_gates_GateAll_Object__DESC__C                                  
82856e10  ti_sysbios_gates_GateHwi_Object__DESC__C                                  
82856e30  ti_sysbios_gates_GateMutexPri_Object__DESC__C                             
82856e50  ti_sysbios_gates_GateMutex_Object__DESC__C                                
82856e70  ti_sysbios_gates_GateSwi_Object__DESC__C                                  
82856e90  ti_sysbios_heaps_HeapMem_Object__DESC__C                                  
82856eb0  ti_sysbios_knl_Queue_Object__DESC__C                                      
82856ed0  ti_sysbios_knl_Semaphore_Object__DESC__C                                  
82856ef0  ti_sysbios_knl_Swi_Object__DESC__C                                        
82856f10  ti_sysbios_knl_Task_Object__DESC__C                                       
82856f30  ti_sysbios_syncs_SyncSem_Object__DESC__C                                  
82856f50  ti_sysbios_xdcruntime_GateThreadSupport_Object__DESC__C                   
82856f70  xdc_runtime_GateNull_Object__DESC__C                                      
82856f90  xdc_runtime_LoggerBuf_Object__DESC__C                                     
82856fb0  xdc_runtime_knl_GateThread_Object__DESC__C                                
82857008  ti_sysbios_syncs_SyncSem_Object__PARAMS__C                                
82857024  ti_sdo_ipc_GateMP_E_gateUnavailable__C                                    
82857028  ti_sysbios_family_c66_tci66xx_CpIntc_eventId__A                           
82857042  ti_sdo_ipc_GateMP_Module__loggerDefined__C                                
82857044  ti_sdo_ipc_GateMP_E_localGate__C                                          
82857048  ti_sysbios_family_c66_tci66xx_CpIntc_hostIntToEventId_0__A                
82857062  ti_sdo_ipc_Ipc_Module__id__C                                              
82857064  ti_sdo_ipc_GateMP_LM_create__C                                            
82857068  ti_sysbios_family_c66_tci66xx_CpIntc_hostIntToEventId_1__A                
82857082  ti_sdo_ipc_Ipc_generateSlaveDataForHost__C                                
82857084  ti_sdo_ipc_GateMP_LM_delete__C                                            
82857088  ti_sysbios_family_c66_tci66xx_CpIntc_hostIntToEventId_2__A                
828570a2  ti_sdo_ipc_ListMP_Module__id__C                                           
828570a4  ti_sdo_ipc_GateMP_LM_enter__C                                             
828570a8  ti_sysbios_family_c66_tci66xx_CpIntc_hostIntToEventId_3__A                
828570c2  ti_sdo_ipc_MessageQ_Module__id__C                                         
828570c4  ti_sdo_ipc_GateMP_LM_leave__C                                             
828570c8  ti_sysbios_family_c66_tci66xx_CpIntc_hostIntToEventId_4__A                
828570e2  ti_sdo_ipc_MessageQ_Module__loggerDefined__C                              
828570e4  ti_sdo_ipc_GateMP_LM_open__C                                              
828570e8  ti_sysbios_family_c66_tci66xx_CpIntc_hostIntToEventId_5__A                
82857102  ti_sdo_ipc_Notify_Module__id__C                                           
82857104  ti_sdo_ipc_GateMP_Module__diagsEnabled__C                                 
82857108  ti_sysbios_family_c66_tci66xx_CpIntc_hostIntToEventId_6__A                
82857122  ti_sdo_ipc_Notify_numLines__C                                             
82857124  ti_sdo_ipc_GateMP_Module__diagsIncluded__C                                
82857128  ti_sysbios_family_c66_tci66xx_CpIntc_hostIntToEventId_7__A                
82857142  ti_sdo_ipc_Notify_reservedEvents__C                                       
82857144  ti_sdo_ipc_GateMP_Module__diagsMask__C                                    
82857178  UART_config                                                               
82857190  ti_sdo_ipc_Notify_Object__PARAMS__C                                       
828571a8  ti_sdo_utils_List_Object__PARAMS__C                                       
828571c0  ti_sysbios_gates_GateAll_Object__PARAMS__C                                
828571d8  ti_sysbios_gates_GateHwi_Object__PARAMS__C                                
828571f0  ti_sysbios_gates_GateMutexPri_Object__PARAMS__C                           
82857208  ti_sysbios_gates_GateMutex_Object__PARAMS__C                              
82857220  ti_sysbios_gates_GateSwi_Object__PARAMS__C                                
82857238  ti_sysbios_knl_Queue_Object__PARAMS__C                                    
82857250  ti_sysbios_xdcruntime_GateThreadSupport_Object__PARAMS__C                 
82857268  xdc_runtime_GateNull_Object__PARAMS__C                                    
82857280  xdc_runtime_knl_GateThread_Object__PARAMS__C                              
828572ac  ti_sdo_ipc_GateMP_Module__loggerFxn2__C                                   
828572b0  flowIdNum                                                                 
828572c0  ti_sysbios_family_c64p_EventCombiner_EVTMASK__C                           
828572d0  qmssQueueFree                                                             
828572d8  qmssQueueFreeSize                                                         
828572f0  ti_sysbios_knl_Idle_funcList__C                                           
828572f8  xdc_runtime_Startup_firstFxns__A                                          
82857300  xdc_runtime_Startup_firstFxns__C                                          
82857308  xdc_runtime_Startup_lastFxns__C                                           
82857310  ti_sdo_ipc_GateMP_Module__loggerFxn4__C                                   
82857314  ti_sdo_ipc_GateMP_Module__loggerObj__C                                    
82857318  ti_sdo_ipc_Ipc_A_addrNotCacheAligned__C                                   
8285731c  ti_sdo_ipc_Ipc_A_addrNotInSharedRegion__C                                 
82857320  ti_sdo_ipc_Ipc_A_internal__C                                              
82857324  ti_sdo_ipc_Ipc_A_invArgument__C                                           
82857328  ti_sdo_ipc_Ipc_A_invParam__C                                              
8285732c  ti_sdo_ipc_Ipc_A_nullArgument__C                                          
82857330  ti_sdo_ipc_Ipc_A_nullPointer__C                                           
82857334  ti_sdo_ipc_Ipc_E_internal__C                                              
82857338  ti_sdo_ipc_Ipc_E_nameFailed__C                                            
8285733c  ti_sdo_ipc_Ipc_E_versionMismatch__C                                       
82857340  ti_sdo_ipc_Ipc_Module__diagsEnabled__C                                    
82857344  ti_sdo_ipc_Ipc_Module__diagsIncluded__C                                   
82857348  ti_sdo_ipc_Ipc_Module__diagsMask__C                                       
8285734c  ti_sdo_ipc_Ipc_numUserFxns__C                                             
82857350  ti_sdo_ipc_Ipc_procSync__C                                                
82857354  ti_sdo_ipc_Ipc_userFxns__C                                                
82857358  ti_sdo_ipc_ListMP_Module__diagsEnabled__C                                 
8285735c  ti_sdo_ipc_ListMP_Module__diagsIncluded__C                                
82857360  ti_sdo_ipc_ListMP_Module__diagsMask__C                                    
82857364  ti_sdo_ipc_MessageQ_A_invalidMsg__C                                       
82857368  ti_sdo_ipc_MessageQ_A_invalidObj__C                                       
8285736c  ti_sdo_ipc_MessageQ_A_invalidQueueId__C                                   
82857370  ti_sdo_ipc_MessageQ_A_procIdInvalid__C                                    
82857374  ti_sdo_ipc_MessageQ_A_unregisteredTransport__C                            
82857378  ti_sdo_ipc_MessageQ_E_indexNotAvailable__C                                
8285737c  ti_sdo_ipc_MessageQ_E_maxReached__C                                       
82857380  ti_sdo_ipc_MessageQ_E_nameFailed__C                                       
82857384  ti_sdo_ipc_MessageQ_Instance_State_highList__O                            
82857388  ti_sdo_ipc_MessageQ_Instance_State_normalList__O                          
8285738c  ti_sdo_ipc_MessageQ_LM_get__C                                             
82857390  ti_sdo_ipc_MessageQ_LM_putLocal__C                                        
82857394  ti_sdo_ipc_MessageQ_Module__diagsEnabled__C                               
82857398  ti_sdo_ipc_MessageQ_Module__diagsIncluded__C                              
8285739c  ti_sdo_ipc_MessageQ_Module__diagsMask__C                                  
828573a0  ti_sdo_ipc_MessageQ_Module__loggerFxn4__C                                 
828573a4  ti_sdo_ipc_MessageQ_Module__loggerObj__C                                  
828573a8  ti_sdo_ipc_MessageQ_Object__count__C                                      
828573ac  ti_sdo_ipc_MessageQ_Object__heap__C                                       
828573b0  ti_sdo_ipc_MessageQ_maxRuntimeEntries__C                                  
828573b4  ti_sdo_ipc_MessageQ_numReservedEntries__C                                 
828573b8  ti_sdo_ipc_Notify_A_alreadyRegistered__C                                  
828573bc  ti_sdo_ipc_Notify_A_internal__C                                           
828573c0  ti_sdo_ipc_Notify_A_invArgument__C                                        
828573c4  ti_sdo_ipc_Notify_A_notRegistered__C                                      
828573c8  ti_sdo_ipc_Notify_A_reservedEvent__C                                      
828573cc  ti_sdo_ipc_Notify_Module__diagsEnabled__C                                 
828573d0  ti_sdo_ipc_Notify_Module__diagsIncluded__C                                
828573d4  ti_sdo_ipc_Notify_Module__diagsMask__C                                    
828573d8  ti_sdo_ipc_Notify_Module__gateObj__C                                      
828573dc  ti_sdo_ipc_Notify_Object__heap__C                                         
828573e0  ti_sdo_ipc_Notify_numEvents__C                                            
828573e4  ti_sdo_ipc_SharedRegion_A_addrOutOfRange__C                               
828573e8  ti_sdo_ipc_SharedRegion_A_idTooLarge__C                                   
828573ec  ti_sdo_ipc_SharedRegion_A_noHeap__C                                       
828573f0  ti_sdo_ipc_SharedRegion_A_region0Invalid__C                               
828573f4  ti_sdo_ipc_SharedRegion_A_regionInvalid__C                                
828573f8  ti_sdo_ipc_SharedRegion_A_reserveTooMuch__C                               
828573fc  ti_sdo_ipc_SharedRegion_INVALIDSRPTR__C                                   
82857400  ti_sdo_ipc_SharedRegion_Module__diagsEnabled__C                           
82857404  ti_sdo_ipc_SharedRegion_Module__diagsIncluded__C                          
82857408  ti_sdo_ipc_SharedRegion_Module__diagsMask__C                              
8285740c  ti_sdo_ipc_SharedRegion_numOffsetBits__C                                  
82857410  ti_sdo_ipc_SharedRegion_offsetMask__C                                     
82857414  ti_sdo_ipc_gates_GateHWSem_A_invSemNum__C                                 
82857418  ti_sdo_ipc_gates_GateHWSem_Module__diagsEnabled__C                        
8285741c  ti_sdo_ipc_gates_GateHWSem_Module__diagsIncluded__C                       
82857420  ti_sdo_ipc_gates_GateHWSem_Module__diagsMask__C                           
82857424  ti_sdo_ipc_gates_GateHWSem_baseAddr__C                                    
82857428  ti_sdo_ipc_gates_GateHWSem_numSems__C                                     
8285742c  ti_sdo_ipc_gates_GateHWSem_reservedMaskArr__C                             
82857430  ti_sdo_ipc_gates_GateHWSem_reservedMaskArr__A                             
82857434  ti_sdo_ipc_gates_GateMPSupportNull_A_invalidAction__C                     
82857438  ti_sdo_ipc_gates_GateMPSupportNull_Module__diagsEnabled__C                
8285743c  ti_sdo_ipc_gates_GateMPSupportNull_Module__diagsIncluded__C               
82857440  ti_sdo_ipc_gates_GateMPSupportNull_Module__diagsMask__C                   
82857444  ti_sdo_ipc_gates_GateMPSupportNull_action__C                              
82857448  ti_sdo_ipc_gates_GatePeterson_E_gateRemotelyOpened__C                     
8285744c  ti_sdo_ipc_gates_GatePeterson_Module__diagsEnabled__C                     
82857450  ti_sdo_ipc_gates_GatePeterson_Module__diagsIncluded__C                    
82857454  ti_sdo_ipc_gates_GatePeterson_Module__diagsMask__C                        
82857458  ti_sdo_ipc_gates_GatePeterson_numInstances__C                             
8285745c  ti_sdo_ipc_heaps_HeapMemMP_A_align__C                                     
82857460  ti_sdo_ipc_heaps_HeapMemMP_A_heapSize__C                                  
82857464  ti_sdo_ipc_heaps_HeapMemMP_A_invalidFree__C                               
82857468  ti_sdo_ipc_heaps_HeapMemMP_A_zeroBlock__C                                 
8285746c  ti_sdo_ipc_heaps_HeapMemMP_E_memory__C                                    
82857470  ti_sdo_ipc_heaps_HeapMemMP_Module__diagsEnabled__C                        
82857474  ti_sdo_ipc_heaps_HeapMemMP_Module__diagsIncluded__C                       
82857478  ti_sdo_ipc_heaps_HeapMemMP_Module__diagsMask__C                           
8285747c  ti_sdo_ipc_interfaces_IGateMPSupport_Interface__BASE__C                   
82857480  ti_sdo_ipc_interfaces_IMessageQTransport_Interface__BASE__C               
82857484  ti_sdo_ipc_interfaces_INetworkTransport_Interface__BASE__C                
82857488  ti_sdo_ipc_interfaces_ITransport_Interface__BASE__C                       
8285748c  ti_sdo_ipc_nsremote_NameServerRemoteNotify_A_invalidValueLen__C           
82857490  ti_sdo_ipc_nsremote_NameServerRemoteNotify_A_messageSize__C               
82857494  ti_sdo_ipc_nsremote_NameServerRemoteNotify_Instance_State_semMultiBlock__O
82857498  ti_sdo_ipc_nsremote_NameServerRemoteNotify_Instance_State_semRemoteWait__O
8285749c  ti_sdo_ipc_nsremote_NameServerRemoteNotify_Instance_State_swiRequest__O   
828574a0  ti_sdo_ipc_nsremote_NameServerRemoteNotify_Instance_State_swiResponse__O  
828574a4  ti_sdo_ipc_nsremote_NameServerRemoteNotify_Module__diagsEnabled__C        
828574a8  ti_sdo_ipc_nsremote_NameServerRemoteNotify_Module__diagsIncluded__C       
828574ac  ti_sdo_ipc_nsremote_NameServerRemoteNotify_Module__diagsMask__C           
828574b0  ti_sdo_ipc_nsremote_NameServerRemoteNotify_notifyEventId__C               
828574b4  ti_sdo_ipc_nsremote_NameServerRemoteNotify_timeout__C                     
828574b8  ti_sdo_ipc_transports_TransportShmSetup_priority__C                       
828574bc  ti_sdo_ipc_transports_TransportShm_Instance_State_swiObj__O               
828574c0  ti_sdo_ipc_transports_TransportShm_Module__diagsEnabled__C                
828574c4  ti_sdo_ipc_transports_TransportShm_Module__diagsIncluded__C               
828574c8  ti_sdo_ipc_transports_TransportShm_Module__diagsMask__C                   
828574cc  ti_sdo_utils_INameServerRemote_Interface__BASE__C                         
828574d0  ti_sdo_utils_MultiProc_A_invalidMultiProcId__C                            
828574d4  ti_sdo_utils_MultiProc_procAddrMode__C                                    
828574d8  ti_sdo_utils_NameServer_A_invArgument__C                                  
828574dc  ti_sdo_utils_NameServer_A_invalidLen__C                                   
828574e0  ti_sdo_utils_NameServer_E_entryExists__C                                  
828574e4  ti_sdo_utils_NameServer_E_maxReached__C                                   
828574e8  ti_sdo_utils_NameServer_Instance_State_freeList__O                        
828574ec  ti_sdo_utils_NameServer_Instance_State_nameList__O                        
828574f0  ti_sdo_utils_NameServer_Module__diagsEnabled__C                           
828574f4  ti_sdo_utils_NameServer_Module__diagsIncluded__C                          
828574f8  ti_sdo_utils_NameServer_Module__diagsMask__C                              
828574fc  ti_sdo_utils_NameServer_Object__count__C                                  
82857500  ti_sysbios_family_c62_TaskSupport_stackAlignment__C                       
82857504  ti_sysbios_family_c64p_EventCombiner_A_invalidEventId__C                  
82857508  ti_sysbios_family_c64p_EventCombiner_EVTRegs__C                           
8285750c  ti_sysbios_family_c64p_EventCombiner_E_unpluggedEvent__C                  
82857510  ti_sysbios_family_c64p_EventCombiner_Module__diagsEnabled__C              
82857514  ti_sysbios_family_c64p_EventCombiner_Module__diagsIncluded__C             
82857518  ti_sysbios_family_c64p_EventCombiner_Module__diagsMask__C                 
8285751c  ti_sysbios_family_c64p_Exception_E_exceptionMax__C                        
82857520  ti_sysbios_family_c64p_Exception_exceptionHook__C                         
82857524  ti_sysbios_family_c64p_Exception_externalHook__C                          
82857528  ti_sysbios_family_c64p_Exception_internalHook__C                          
8285752c  ti_sysbios_family_c64p_Exception_nmiHook__C                               
82857530  ti_sysbios_family_c64p_Hwi_E_alreadyDefined__C                            
82857534  ti_sysbios_family_c64p_Hwi_E_handleNotFound__C                            
82857538  ti_sysbios_family_c64p_Hwi_E_invalidIntNum__C                             
8285753c  ti_sysbios_family_c64p_Hwi_INTRMUX1Address__C                             
82857540  ti_sysbios_family_c64p_Hwi_LD_end__C                                      
82857544  ti_sysbios_family_c64p_Hwi_LM_begin__C                                    
82857548  ti_sysbios_family_c64p_Hwi_Module__diagsEnabled__C                        
8285754c  ti_sysbios_family_c64p_Hwi_Module__diagsIncluded__C                       
82857550  ti_sysbios_family_c64p_Hwi_Module__diagsMask__C                           
82857554  ti_sysbios_family_c64p_Hwi_Module__loggerFxn1__C                          
82857558  ti_sysbios_family_c64p_Hwi_Module__loggerFxn8__C                          
8285755c  ti_sysbios_family_c64p_Hwi_Module__loggerObj__C                           
82857560  ti_sysbios_family_c66_Cache_E_invalidL1CacheSize__C                       
82857564  ti_sysbios_family_c66_Cache_E_invalidL2CacheSize__C                       
82857568  ti_sysbios_family_c66_Cache_atomicBlockSize__C                            
8285756c  ti_sysbios_family_c66_tci66xx_CpIntc_E_unpluggedSysInt__C                 
82857570  ti_sysbios_family_c66_tci66xx_CpIntc_eventId__C                           
82857574  ti_sysbios_family_c66_tci66xx_CpIntc_hostIntToEventId__C                  
82857578  ti_sysbios_family_c66_tci66xx_CpIntc_numEvents__C                         
8285757c  ti_sysbios_family_c66_tci66xx_CpIntc_numStatusRegs__C                     
82857580  ti_sysbios_family_c66_tci66xx_CpIntc_numSysInts__C                        
82857584  ti_sysbios_family_c66_tci66xx_CpIntc_sysIntToHostInt__C                   
82857588  ti_sysbios_gates_GateMutexPri_A_badContext__C                             
8285758c  ti_sysbios_gates_GateMutexPri_A_enterTaskDisabled__C                      
82857590  ti_sysbios_gates_GateMutexPri_Instance_State_pendQ__O                     
82857594  ti_sysbios_gates_GateMutexPri_Module__diagsEnabled__C                     
82857598  ti_sysbios_gates_GateMutexPri_Module__diagsIncluded__C                    
8285759c  ti_sysbios_gates_GateMutexPri_Module__diagsMask__C                        
828575a0  ti_sysbios_gates_GateMutex_A_badContext__C                                
828575a4  ti_sysbios_gates_GateMutex_Instance_State_sem__O                          
828575a8  ti_sysbios_gates_GateMutex_Module__diagsEnabled__C                        
828575ac  ti_sysbios_gates_GateMutex_Module__diagsIncluded__C                       
828575b0  ti_sysbios_gates_GateMutex_Module__diagsMask__C                           
828575b4  ti_sysbios_gates_GateSwi_A_badContext__C                                  
828575b8  ti_sysbios_gates_GateSwi_Module__diagsEnabled__C                          
828575bc  ti_sysbios_gates_GateSwi_Module__diagsIncluded__C                         
828575c0  ti_sysbios_gates_GateSwi_Module__diagsMask__C                             
828575c4  ti_sysbios_hal_Hwi_E_stackOverflow__C                                     
828575c8  ti_sysbios_heaps_HeapMem_A_align__C                                       
828575cc  ti_sysbios_heaps_HeapMem_A_heapSize__C                                    
828575d0  ti_sysbios_heaps_HeapMem_A_invalidFree__C                                 
828575d4  ti_sysbios_heaps_HeapMem_A_zeroBlock__C                                   
828575d8  ti_sysbios_heaps_HeapMem_E_memory__C                                      
828575dc  ti_sysbios_heaps_HeapMem_Module__diagsEnabled__C                          
828575e0  ti_sysbios_heaps_HeapMem_Module__diagsIncluded__C                         
828575e4  ti_sysbios_heaps_HeapMem_Module__diagsMask__C                             
828575e8  ti_sysbios_heaps_HeapMem_Module__gateObj__C                               
828575ec  ti_sysbios_heaps_HeapMem_Object__count__C                                 
828575f0  ti_sysbios_heaps_HeapMem_reqAlign__C                                      
828575f4  ti_sysbios_knl_Clock_LM_begin__C                                          
828575f8  ti_sysbios_knl_Clock_LM_tick__C                                           
828575fc  ti_sysbios_knl_Clock_LW_delayed__C                                        
82857600  ti_sysbios_knl_Clock_Module_State_clockQ__O                               
82857604  ti_sysbios_knl_Clock_Module__diagsEnabled__C                              
82857608  ti_sysbios_knl_Clock_Module__diagsIncluded__C                             
8285760c  ti_sysbios_knl_Clock_Module__diagsMask__C                                 
82857610  ti_sysbios_knl_Clock_Module__loggerFxn1__C                                
82857614  ti_sysbios_knl_Clock_Module__loggerFxn2__C                                
82857618  ti_sysbios_knl_Clock_Module__loggerObj__C                                 
8285761c  ti_sysbios_knl_Clock_tickPeriod__C                                        
82857620  ti_sysbios_knl_Idle_funcList__A                                           
82857624  ti_sysbios_knl_Semaphore_A_badContext__C                                  
82857628  ti_sysbios_knl_Semaphore_A_noEvents__C                                    
8285762c  ti_sysbios_knl_Semaphore_A_overflow__C                                    
82857630  ti_sysbios_knl_Semaphore_A_pendTaskDisabled__C                            
82857634  ti_sysbios_knl_Semaphore_Instance_State_pendQ__O                          
82857638  ti_sysbios_knl_Semaphore_LM_pend__C                                       
8285763c  ti_sysbios_knl_Semaphore_LM_post__C                                       
82857640  ti_sysbios_knl_Semaphore_Module__diagsEnabled__C                          
82857644  ti_sysbios_knl_Semaphore_Module__diagsIncluded__C                         
82857648  ti_sysbios_knl_Semaphore_Module__diagsMask__C                             
8285764c  ti_sysbios_knl_Semaphore_Module__loggerFxn2__C                            
82857650  ti_sysbios_knl_Semaphore_Module__loggerFxn4__C                            
82857654  ti_sysbios_knl_Semaphore_Module__loggerObj__C                             
82857658  ti_sysbios_knl_Swi_A_badPriority__C                                       
8285765c  ti_sysbios_knl_Swi_LD_end__C                                              
82857660  ti_sysbios_knl_Swi_LM_begin__C                                            
82857664  ti_sysbios_knl_Swi_LM_post__C                                             
82857668  ti_sysbios_knl_Swi_Module__diagsEnabled__C                                
8285766c  ti_sysbios_knl_Swi_Module__diagsIncluded__C                               
82857670  ti_sysbios_knl_Swi_Module__diagsMask__C                                   
82857674  ti_sysbios_knl_Swi_Module__loggerFxn1__C                                  
82857678  ti_sysbios_knl_Swi_Module__loggerFxn4__C                                  
8285767c  ti_sysbios_knl_Swi_Module__loggerObj__C                                   
82857680  ti_sysbios_knl_Swi_Object__count__C                                       
82857684  ti_sysbios_knl_Task_A_badPriority__C                                      
82857688  ti_sysbios_knl_Task_A_badTaskState__C                                     
8285768c  ti_sysbios_knl_Task_A_badThreadType__C                                    
82857690  ti_sysbios_knl_Task_A_badTimeout__C                                       
82857694  ti_sysbios_knl_Task_A_noPendElem__C                                       
82857698  ti_sysbios_knl_Task_A_sleepTaskDisabled__C                                
8285769c  ti_sysbios_knl_Task_E_spOutOfBounds__C                                    
828576a0  ti_sysbios_knl_Task_E_stackOverflow__C                                    
828576a4  ti_sysbios_knl_Task_LD_block__C                                           
828576a8  ti_sysbios_knl_Task_LD_exit__C                                            
828576ac  ti_sysbios_knl_Task_LD_ready__C                                           
828576b0  ti_sysbios_knl_Task_LM_setPri__C                                          
828576b4  ti_sysbios_knl_Task_LM_sleep__C                                           
828576b8  ti_sysbios_knl_Task_LM_switch__C                                          
828576bc  ti_sysbios_knl_Task_Module_State_inactiveQ__O                             
828576c0  ti_sysbios_knl_Task_Module__diagsEnabled__C                               
828576c4  ti_sysbios_knl_Task_Module__diagsIncluded__C                              
828576c8  ti_sysbios_knl_Task_Module__diagsMask__C                                  
828576cc  ti_sysbios_knl_Task_Module__loggerFxn2__C                                 
828576d0  ti_sysbios_knl_Task_Module__loggerFxn4__C                                 
828576d4  ti_sysbios_knl_Task_Module__loggerObj__C                                  
828576d8  ti_sysbios_knl_Task_Object__count__C                                      
828576dc  ti_sysbios_knl_Task_allBlockedFunc__C                                     
828576e0  ti_sysbios_knl_Task_defaultStackHeap__C                                   
828576e4  ti_sysbios_knl_Task_defaultStackSize__C                                   
828576e8  ti_sysbios_knl_Task_numConstructedTasks__C                                
828576ec  ti_sysbios_syncs_SyncSem_Module__diagsEnabled__C                          
828576f0  ti_sysbios_syncs_SyncSem_Module__diagsIncluded__C                         
828576f4  ti_sysbios_syncs_SyncSem_Module__diagsMask__C                             
828576f8  ti_sysbios_timers_timer64_Timer_A_notAvailable__C                         
828576fc  ti_sysbios_timers_timer64_Timer_E_cannotSupport__C                        
82857700  ti_sysbios_timers_timer64_Timer_Module__diagsEnabled__C                   
82857704  ti_sysbios_timers_timer64_Timer_Module__diagsIncluded__C                  
82857708  ti_sysbios_timers_timer64_Timer_Module__diagsMask__C                      
8285770c  ti_sysbios_timers_timer64_Timer_anyMaskHigh__C                            
82857710  ti_sysbios_timers_timer64_Timer_anyMask__C                                
82857714  ti_sysbios_timers_timer64_Timer_freqDivisor__C                            
82857718  ti_sysbios_timers_timer64_Timer_numLocalTimers__C                         
8285771c  ti_sysbios_timers_timer64_Timer_numTimerDevices__C                        
82857720  ti_sysbios_xdcruntime_GateThreadSupport_Instance_State_gate__O            
82857724  xdc_runtime_Assert_E_assertFailed__C                                      
82857728  xdc_runtime_Core_A_initializedParams__C                                   
8285772c  xdc_runtime_Core_Module__diagsEnabled__C                                  
82857730  xdc_runtime_Core_Module__diagsIncluded__C                                 
82857734  xdc_runtime_Core_Module__diagsMask__C                                     
82857738  xdc_runtime_Error_E_memory__C                                             
8285773c  xdc_runtime_Error_Module__diagsEnabled__C                                 
82857740  xdc_runtime_Error_Module__diagsIncluded__C                                
82857744  xdc_runtime_Error_Module__diagsMask__C                                    
82857748  xdc_runtime_Error_Module__loggerFxn8__C                                   
8285774c  xdc_runtime_Error_Module__loggerObj__C                                    
82857750  xdc_runtime_Error_policyFxn__C                                            
82857754  xdc_runtime_Error_policy__C                                               
82857758  xdc_runtime_Error_raiseHook__C                                            
8285775c  xdc_runtime_IFilterLogger_Interface__BASE__C                              
82857760  xdc_runtime_IGateProvider_Interface__BASE__C                              
82857764  xdc_runtime_IHeap_Interface__BASE__C                                      
82857768  xdc_runtime_ILogger_Interface__BASE__C                                    
8285776c  xdc_runtime_IModule_Interface__BASE__C                                    
82857770  xdc_runtime_Log_L_error__C                                                
82857774  xdc_runtime_LoggerBuf_E_badLevel__C                                       
82857778  xdc_runtime_LoggerBuf_Module__gateObj__C                                  
8285777c  xdc_runtime_LoggerBuf_Object__count__C                                    
82857780  xdc_runtime_LoggerBuf_statusLogger__C                                     
82857784  xdc_runtime_Memory_defaultHeapInstance__C                                 
82857788  xdc_runtime_Startup_execImpl__C                                           
8285778c  xdc_runtime_Startup_maxPasses__C                                          
82857790  xdc_runtime_Startup_sfxnRts__C                                            
82857794  xdc_runtime_Startup_sfxnTab__C                                            
82857798  xdc_runtime_SysMin_bufSize__C                                             
8285779c  xdc_runtime_SysMin_outputFunc__C                                          
828577a0  xdc_runtime_System_Module__gateObj__C                                     
828577a4  xdc_runtime_System_abortFxn__C                                            
828577a8  xdc_runtime_System_exitFxn__C                                             
828577ac  xdc_runtime_System_extendFxn__C                                           
828577b0  xdc_runtime_System_maxAtexitHandlers__C                                   
828577b4  xdc_runtime_Text_charTab__C                                               
828577b8  xdc_runtime_Text_nameEmpty__C                                             
828577bc  xdc_runtime_Text_nameStatic__C                                            
828577c0  xdc_runtime_Text_nameUnknown__C                                           
828577c4  xdc_runtime_Text_nodeTab__C                                               
828577c8  xdc_runtime_Text_visitRopeFxn__C                                          
828577cc  xdc_runtime_knl_ISync_Interface__BASE__C                                  
828577d0  ti_sdo_ipc_SharedRegion_Module__id__C                                     
828577d2  ti_sdo_ipc_SharedRegion_numEntries__C                                     
828577d4  ti_sdo_ipc_SharedRegion_translate__C                                      
828577d6  ti_sdo_ipc_gates_GateHWSem_Module__id__C                                  
828577d8  ti_sdo_ipc_gates_GateMPSupportNull_Module__id__C                          
828577da  ti_sdo_ipc_gates_GatePeterson_Module__id__C                               
828577dc  ti_sdo_ipc_heaps_HeapMemMP_Module__id__C                                  
828577de  ti_sdo_ipc_nsremote_NameServerRemoteNotify_Module__id__C                  
828577e0  ti_sdo_ipc_transports_TransportShm_Module__id__C                          
828577e2  ti_sdo_ipc_transports_TransportShm_notifyEventId__C                       
828577e4  ti_sdo_utils_MultiProc_numProcessors__C                                   
828577e6  ti_sdo_utils_MultiProc_numProcsInCluster__C                               
828577e8  ti_sdo_utils_NameServer_Module__id__C                                     
828577ea  ti_sysbios_family_c64p_EventCombiner_Module__id__C                        
828577ec  ti_sysbios_family_c64p_Exception_Module__id__C                            
828577ee  ti_sysbios_family_c64p_Exception_useInternalBuffer__C                     
828577f0  ti_sysbios_family_c64p_Hwi_Module__id__C                                  
828577f2  ti_sysbios_family_c64p_Hwi_Module__loggerDefined__C                       
828577f4  ti_sysbios_family_c66_Cache_Module__id__C                                 
828577f6  ti_sysbios_family_c66_Cache_registerRTSSynch__C                           
828577f8  ti_sysbios_family_c66_tci66xx_CpIntc_Module__id__C                        
828577fa  ti_sysbios_gates_GateMutexPri_Module__id__C                               
828577fc  ti_sysbios_gates_GateMutex_Module__id__C                                  
828577fe  ti_sysbios_gates_GateSwi_Module__id__C                                    
82857800  ti_sysbios_hal_Hwi_Module__id__C                                          
82857802  ti_sysbios_heaps_HeapMem_Module__id__C                                    
82857804  ti_sysbios_knl_Clock_Module__id__C                                        
82857806  ti_sysbios_knl_Clock_Module__loggerDefined__C                             
82857808  ti_sysbios_knl_Semaphore_Module__id__C                                    
8285780a  ti_sysbios_knl_Semaphore_Module__loggerDefined__C                         
8285780c  ti_sysbios_knl_Swi_Module__id__C                                          
8285780e  ti_sysbios_knl_Swi_Module__loggerDefined__C                               
82857810  ti_sysbios_knl_Task_Module__id__C                                         
82857812  ti_sysbios_knl_Task_Module__loggerDefined__C                              
82857814  ti_sysbios_syncs_SyncSem_Module__id__C                                    
82857816  ti_sysbios_timers_timer64_Timer_Module__id__C                             
82857818  ti_sysbios_timers_timer64_Timer_startupNeeded__C                          
8285781a  ti_sysbios_timers_timer64_Timer_useTimer64pRegMap__C                      
8285781c  xdc_runtime_Core_Module__id__C                                            
8285781e  xdc_runtime_Error_Module__loggerDefined__C                                
82857820  xdc_runtime_Error_maxDepth__C                                             
82857822  xdc_runtime_LoggerBuf_Module__id__C                                       
82857824  xdc_runtime_LoggerBuf_filterByLevel__C                                    
82857826  xdc_runtime_Main_Module__id__C                                            
82857828  xdc_runtime_Memory_Module__id__C                                          
8285782a  xdc_runtime_SysMin_flushAtExit__C                                         
8285782c  xdc_runtime_Text_charCnt__C                                               
8285782e  xdc_runtime_Text_isLoaded__C                                              
82857830  xdc_runtime_Text_registryModsLastId__C                                    
82857832  xdc_runtime_Text_unnamedModsLastId__C                                     
82858380  cppiGblCPDMACfgParams                                                     
82858d58  ti_sdo_ipc_GateMP_Module_State_0_remoteCustom1Gates__A                    
82859a58  ti_sysbios_family_c66_tci66xx_CpIntc_Module_State_0_dispatchTab__A        
82859f58  ti_sysbios_BIOS_Module__state__V                                          
82859f7c  _lock                                                                     
82859f80  data                                                                      
8285a380  ti_sysbios_family_c64p_EventCombiner_Module__state__V                     
8285a780  qmssGblCfgParams                                                          
8285aa50  _ftable                                                                   
8285ac30  GlobalQmGroup0                                                            
8285adbc  _unlock                                                                   
8285adc0  ti_sysbios_timers_timer64_Timer_Module_State_0_device__A                  
8285af40  ti_sdo_utils_NameServer_Object__table__V                                  
8285b030  uartInitCfg                                                               
8285b0d8  _stream                                                                   
8285b178  ti_sysbios_family_c66_tci66xx_CpIntc_Module_State_0_hostIntToSysInt__A    
8285b210  ti_sdo_ipc_SharedRegion_Module_State_0_regions__A                         
8285b2a0  ti_sdo_ipc_GateMP_Module_State_0_remoteSystemGates__A                     
8285b320  ti_sysbios_knl_Swi_Module_State_0_readyQ__A                               
8285b3a0  ti_sysbios_knl_Task_Module_State_0_readyQ__A                              
8285b420  ti_sysbios_timers_timer64_Timer_Module_State_0_gctrl__A                   
8285b4a0  ti_sysbios_timers_timer64_Timer_Module_State_0_handles__A                 
8285b520  ti_sysbios_timers_timer64_Timer_Module_State_0_intFreqs__A                
8285b5a0  _device                                                                   
8285b618  ti_sysbios_family_c64p_Hwi_Module__state__V                               
8285b684  ti_sdo_ipc_MessageQ_Module__state__V                                      
8285b6ec  __TI_ft_end                                                               
8285b6f0  ti_sysbios_knl_Task_Object__table__V                                      
8285b74c  ti_sdo_ipc_GateMP_Module__state__V                                        
8285b79c  __errno                                                                   
8285b79c  errno                                                                     
8285b7a0  ti_sysbios_timers_timer64_Timer_Object__table__V                          
8285b7f0  ti_sysbios_knl_Task_Module__state__V                                      
8285b838  ti_sysbios_gates_GateMutex_Object__table__V                               
8285b878  gOsal_HwAttrs                                                             
8285b8a8  ti_sysbios_family_c64p_Exception_Module__state__V                         
8285b8d8  ti_sysbios_knl_Swi_Object__table__V                                       
8285b908  ti_sysbios_knl_Clock_Module__state__V                                     
8285b934  ti_sdo_ipc_ListMP_Module__state__V                                        
8285b938  xdc_runtime_LoggerBuf_Object__table__V                                    
8285b95c  ti_sdo_ipc_SharedRegion_Module__state__V                                  
8285b960  ti_sdo_ipc_MessageQ_Module_State_0_heaps__A                               
8285b980  xdc_runtime_Error_IgnoreBlock                                             
8285b9a0  ti_sysbios_knl_Swi_Module__state__V                                       
8285b9bc  ti_sdo_ipc_heaps_HeapMemMP_Module__state__V                               
8285b9c0  ti_sysbios_family_c64p_Hwi_Object__table__V                               
8285b9d8  ti_sysbios_gates_GateMutexPri_Object__table__V                            
8285b9f0  ti_sysbios_heaps_HeapMem_Object__table__V                                 
8285ba08  ti_sysbios_timers_timer64_Timer_Module__state__V                          
8285ba20  cppiGblCfgParams                                                          
8285ba34  cppiLObj                                                                  
8285ba48  ti_sdo_ipc_Ipc_Module_State_0_procEntry__A                                
8285ba5c  ti_sdo_ipc_transports_TransportShmSetup_Module__state__V                  
8285ba60  ti_sysbios_family_c66_tci66xx_CpIntc_Module_State_0_initSIER__A           
8285ba74  xdc_runtime_Memory_Module__state__V                                       
8285ba78  cpsgmiiPortBaseAddr                                                       
8285ba88  ti_sysbios_family_c66_tci66xx_CpIntc_Module_State_0_controller__A         
8285ba98  ti_sysbios_family_c66_tci66xx_CpIntc_Module__state__V                     
8285baa8  ti_sysbios_gates_GateAll_Object__table__V                                 
8285bab8  xdc_runtime_System_Module_State_0_atexitHandlers__A                       
8285bac8  __TI_cleanup_ptr                                                          
8285bacc  __TI_dtors_ptr                                                            
8285bad0  __TI_enable_exit_profile_output                                           
8285bad4  ti_sdo_ipc_Ipc_Module__state__V                                           
8285bae0  ti_sdo_utils_NameServer_Module__state__V                                  
8285baec  xdc_runtime_Error_Module__state__V                                        
8285baf0  ti_sysbios_gates_GateSwi_Object__table__V                                 
8285bafc  xdc_runtime_SysMin_Module__state__V                                       
8285bb08  ti_sdo_ipc_GateMP_Module__root__V                                         
8285bb10  ti_sdo_ipc_ListMP_Module__root__V                                         
8285bb18  ti_sdo_ipc_MessageQ_Module_State_0_transports__A                          
8285bb20  ti_sdo_ipc_MessageQ_Module__root__V                                       
8285bb28  ti_sdo_ipc_Notify_Module__root__V                                         
8285bb30  ti_sdo_ipc_Notify_Module__state__V                                        
8285bb38  ti_sdo_ipc_gates_GateHWSem_Module__root__V                                
8285bb40  ti_sdo_ipc_gates_GateMPSupportNull_Module__root__V                        
8285bb48  ti_sdo_ipc_gates_GatePeterson_Module__root__V                             
8285bb50  ti_sdo_ipc_heaps_HeapMemMP_Module__root__V                                
8285bb58  ti_sdo_ipc_nsremote_NameServerRemoteNotify_Module__root__V                
8285bb60  ti_sdo_ipc_transports_TransportShm_Module__root__V                        
8285bb68  ti_sdo_utils_List_Module__root__V                                         
8285bb70  ti_sdo_utils_MultiProc_Module__state__V                                   
8285bb78  ti_sdo_utils_NameServer_Module__root__V                                   
8285bb80  ti_sysbios_family_c64p_Hwi_Module__root__V                                
8285bb88  ti_sysbios_gates_GateAll_Module__root__V                                  
8285bb90  ti_sysbios_gates_GateHwi_Module__root__V                                  
8285bb98  ti_sysbios_gates_GateMutexPri_Module__root__V                             
8285bba0  ti_sysbios_gates_GateMutex_Module__root__V                                
8285bba8  ti_sysbios_gates_GateSwi_Module__root__V                                  
8285bbb0  ti_sysbios_hal_Hwi_Object__table__V                                       
8285bbb8  ti_sysbios_heaps_HeapMem_Module__root__V                                  
8285bbc0  ti_sysbios_knl_Queue_Module__root__V                                      
8285bbc8  ti_sysbios_knl_Semaphore_Module__root__V                                  
8285bbd0  ti_sysbios_knl_Swi_Module__root__V                                        
8285bbd8  ti_sysbios_knl_Task_Module__root__V                                       
8285bbe0  ti_sysbios_syncs_SyncSem_Module__root__V                                  
8285bbe8  ti_sysbios_xdcruntime_GateThreadSupport_Module__root__V                   
8285bbf0  uart_stdio                                                                
8285bbf8  xdc_runtime_GateNull_Module__root__V                                      
8285bc00  xdc_runtime_LoggerBuf_Module__root__V                                     
8285bc08  xdc_runtime_Registry_Module__state__V                                     
8285bc10  xdc_runtime_Startup_Module__state__V                                      
8285bc18  xdc_runtime_System_Module__state__V                                       
8285bc20  xdc_runtime_knl_GateThread_Module__root__V                                
8285bc28  xdc_runtime_LoggerBuf_Module__state__V                                    
8285bc30  ti_sdo_ipc_Notify_Module_State_0_notifyHandles_0__A                       
8285bc38  ti_sdo_ipc_Notify_Module_State_0_notifyHandles__A                         
8285bc40  ti_sdo_ipc_transports_TransportShmSetup_Module_State_0_handles__A         
8285bc48  ti_sdo_utils_NameServer_Module_State_0_nsRemoteHandle__A                  
8285bc50  ti_sysbios_gates_GateHwi_Object__table__V                                 
8285bc58  ti_sysbios_knl_Task_Module_State_0_idleTask__A                            
8285bc60  xdc_runtime_GateNull_Object__table__V                                     
8285bc68  ti_sdo_utils_MultiProc_Module_State_0_clusterProcList__A                  
8285bdf8  __CIOBUF_                                                                 
8285bf18  __TI_STATIC_BASE                                                          
8285bf1c  Ipc_sr0MemorySetup                                                        
8285bf20  cppiHnd                                                                   
8285bf24  freeQueHnd                                                                
8285bf28  hAppManagedSrioDrv                                                        
8285bf2c  rxChHnd                                                                   
8285bf30  rx_flowhnd                                                                
8285bf34  txChHnd                                                                   
8285bf38  txQueHnd                                                                  
8285bf40  srio_device_ID1                                                           
8285bf44  srio_device_ID2                                                           
8285bf48  srio_device_ID3                                                           
8285bf4c  srio_work_mode                                                            
8285bf50  srio_refClockMhz                                                          
8285bf54  srio_laneSpeedGbps                                                        
8285bf58  srio_lanesMode                                                            
8285bf5c  srio_isBoardToBoard                                                       
8285bf60  srio_usePolledMode                                                        
8285bf64  fpga0ControlSocket                                                        
8285bf68  fpga1ControlSocket                                                        
8285bf6c  qmssMallocCounter                                                         
8285bf70  qmssFreeCounter                                                           
8285bf74  cppiMallocCounter                                                         
8285bf78  cppiFreeCounter                                                           
8285bf7c  rmMallocCounter                                                           
8285bf80  rmFreeCounter                                                             
8285bf84  gOsalSemAllocCnt                                                          
8285bf88  gOsalSemPeak                                                              
8285bf8c  gOsalTimerAllocCnt                                                        
8285bf90  gOsalTimerPeak                                                            
8285bf94  gOsalHwiAllocCnt                                                          
8285bf98  gOsalHwiPeak                                                              
8285bfa0  dataLen                                                                   
8285bfa4  core_ID                                                                   
8285bfa8  TEST_TIME                                                                 
8285bfb0  gDataBufferMemMgrMaxSize                                                  
8285bfb4  malloc_counter                                                            
8285bfb8  free_counter                                                              
8285bfbc  platform_errno                                                            
8285bfc0  platform_init_return_code                                                 
8285bfc4  core_name                                                                 
8285bfc8  core_id                                                                   
8285c000  ti_sysbios_family_c64p_Hwi0                                               
8285c000  ti_sysbios_family_c64p_Hwi_int0                                           
8285c020  ti_sysbios_family_c64p_Hwi_int1                                           
8285c040  ti_sysbios_family_c64p_Hwi_int2                                           
8285c060  ti_sysbios_family_c64p_Hwi_int3                                           
8285c080  ti_sysbios_family_c64p_Hwi_int4                                           
8285c0a0  ti_sysbios_family_c64p_Hwi_int5                                           
8285c0c0  ti_sysbios_family_c64p_Hwi_int6                                           
8285c0e0  ti_sysbios_family_c64p_Hwi_int7                                           
8285c100  ti_sysbios_family_c64p_Hwi_int8                                           
8285c120  ti_sysbios_family_c64p_Hwi_int9                                           
8285c140  ti_sysbios_family_c64p_Hwi_int10                                          
8285c160  ti_sysbios_family_c64p_Hwi_int11                                          
8285c180  ti_sysbios_family_c64p_Hwi_int12                                          
8285c1a0  ti_sysbios_family_c64p_Hwi_int13                                          
8285c1c0  ti_sysbios_family_c64p_Hwi_int14                                          
8285c1e0  ti_sysbios_family_c64p_Hwi_int15                                          
8285dbe0  __TI_Handler_Table_Base                                                   
8285dbe8  __TI_CINIT_Base                                                           
8285dbe8  __TI_Handler_Table_Limit                                                  
8285dc38  __TI_CINIT_Limit                                                          
ffffffff  __TI_pprof_out_hndl                                                       
ffffffff  __TI_prof_data_size                                                       
ffffffff  __TI_prof_data_start                                                      
ffffffff  __binit__                                                                 
ffffffff  __c_args__                                                                
ffffffff  binit                                                                     
UNDEFED   __TI_INITARRAY_Base                                                       
UNDEFED   __TI_INITARRAY_Limit                                                      
UNDEFED   __TI_TLS_INIT_Base                                                        
UNDEFED   __TI_TLS_INIT_Limit                                                       

[1741 symbols]
