******************************************************************************
               TMS320C6x Linker PC v8.3.2                      
******************************************************************************
>> Linked Wed Jul  3 09:11:27 2019

OUTPUT FILE NAME:   <basic_platform.out>
ENTRY POINT SYMBOL: "_c_int00"  address: 8282cf40


MEMORY CONFIGURATION

         name            origin    length      used     unused   attr    fill
----------------------  --------  ---------  --------  --------  ----  --------
  L2SRAM                00800000   00080000  0000a198  00075e68  RW X
  MSMCSRAM              0c000000   00400000  00207902  001f86fe  RW X
  SRIO                  80000000   02800800  00000000  02800800  RW X
  DDR                   82800800   057ff800  000509ca  057aee36  RW X
  CORE1DDR              88000000   08000000  00000000  08000000  RW X


SEGMENT ALLOCATION MAP

run origin  load origin   length   init length attrs members
----------  ----------- ---------- ----------- ----- -------
00800000    00800000    0000a198   00000000    rw-
  00800000    00800000    00006198   00000000    rw- .L2RAM
  00806198    00806198    00004000   00000000    rw- .stack
0c200000    0c200000    00006882   00000000    rw-
  0c200000    0c200000    00006882   00000000    rw- .qmss
0c206900    0c206900    00001080   00000000    rw-
  0c206900    0c206900    00000f80   00000000    rw- .cppi
  0c207880    0c207880    00000100   00000000    rw- .srioSharedMem
82800800    82800800    00033200   00033200    r-x
  82800800    82800800    00033200   00033200    r-x .text
82833a00    82833a00    000112c2   00000000    rw-
  82833a00    82833a00    000112c2   00000000    rw- .far
82844cc8    82844cc8    00005b00   00005b00    r--
  82844cc8    82844cc8    00005b00   00005b00    r-- .const
8284a7c8    8284a7c8    00004c2a   00000000    rw-
  8284a7c8    8284a7c8    00004c2a   00000000    rw- .fardata
8284f400    8284f400    00000334   00000334    r-x
  8284f400    8284f400    00000200   00000200    r-x .vecs
  8284f600    8284f600    00000134   00000134    r-- .switch
8284f738    8284f738    000001a4   00000000    rw-
  8284f738    8284f738    00000120   00000000    rw- .cio
  8284f858    8284f858    00000020   00000000    rw- .bss
  8284f878    8284f878    00000064   00000000    rw- .neardata
8284f8dc    8284f8dc    00000006   00000000    r--
  8284f8dc    8284f8dc    00000006   00000000    r-- .rodata
8284f8e8    8284f8e8    00001900   00001900    r--
  8284f8e8    8284f8e8    00001900   00001900    r-- .cinit


SECTION ALLOCATION MAP

 output                                  attributes/
section   page    origin      length       input sections
--------  ----  ----------  ----------   ----------------
ti.sdo.ipc.SharedRegion_0 
*          0    0c000000    00200000     NOLOAD SECTION
                  0c000000    00200000     --HOLE--

.L2RAM     0    00800000    00006198     UNINITIALIZED
                  00800000    00006000     qmss_init.obj (.L2RAM:uninit)
                  00806000    00000100     main.obj (.L2RAM)
                  00806100    00000070     core_2_core_interface.obj (.L2RAM)
                  00806170    00000018     qmss_init.obj (.L2RAM:init)
                  00806188    00000010     bb_interface.obj (.L2RAM)

.stack     0    00806198    00004000     UNINITIALIZED
                  00806198    00000008     boot.ae66 : boot.oe66 (.stack)
                  008061a0    00003ff8     --HOLE--

.bss       0    8284f858    00000020     UNINITIALIZED
                  8284f858    00000004     (.common:Ipc_sr0MemorySetup)
                  8284f85c    00000004     (.common:cppiHnd)
                  8284f860    00000004     (.common:freeQueHnd)
                  8284f864    00000004     (.common:hAppManagedSrioDrv)
                  8284f868    00000004     (.common:rxChHnd)
                  8284f86c    00000004     (.common:rx_flowhnd)
                  8284f870    00000004     (.common:txChHnd)
                  8284f874    00000004     (.common:txQueHnd)

.neardata 
*          0    8284f878    00000064     UNINITIALIZED
                  8284f878    0000002c     srio_init.obj (.neardata)
                  8284f8a4    00000018     qmss_osal.obj (.neardata)
                  8284f8bc    00000004     --HOLE--
                  8284f8c0    00000010     main.obj (.neardata)
                  8284f8d0    0000000c     srio_osal.obj (.neardata)

.rodata    0    8284f8dc    00000006     UNINITIALIZED
                  8284f8dc    00000006     main.obj (.rodata)

.cinit     0    8284f8e8    00001900     
                  8284f8e8    00001831     (.cinit..fardata.load) [load image, compression = rle]
                  82851119    0000002d     (.cinit..neardata.load) [load image, compression = rle]
                  82851146    0000000d     (.cinit..far.load) [load image, compression = rle]
                  82851153    0000000c     (.cinit..rodata.load) [load image, compression = rle]
                  8285115f    0000000b     (.cinit..L2RAM.load) [load image, compression = rle]
                  8285116a    0000000b     (.cinit..cppi.load) [load image, compression = rle]
                  82851175    0000000b     (.cinit..qmss.load) [load image, compression = rle]
                  82851180    0000000b     (.cinit..srioSharedMem.load) [load image, compression = rle]
                  8285118b    00000009     (.cinit..bss.load) [load image, compression = rle]
                  82851194    00000008     (__TI_handler_table)
                  8285119c    00000004     --HOLE-- [fill = 0]
                  828511a0    00000048     (__TI_cinit_table)

.init_array 
*          0    82800800    00000000     UNINITIALIZED

.qmss      0    0c200000    00006882     UNINITIALIZED
                  0c200000    00006880     ti.drv.qmss.ae66 : qmss_drv.oe66 (.qmss:uninit)
                  0c206880    00000002                      : qmss_drv.oe66 (.qmss:init)

.cppi      0    0c206900    00000f80     UNINITIALIZED
                  0c206900    00000f80     ti.drv.cppi.ae66 : cppi_drv.oe66 (.cppi)

.srioSharedMem 
*          0    0c207880    00000100     UNINITIALIZED
                  0c207880    00000100     ti.drv.srio.ae66 : srio_drv.oe66 (.srioSharedMem)

.vecs      0    8284f400    00000200     
                  8284f400    00000200     app_pe66.oe66 (.vecs)

xdc.meta   0    82800800    000000e8     COPY SECTION
                  82800800    000000e8     app_pe66.oe66 (xdc.meta)

.text      0    82800800    00033200     
                  82800800    00002700     srio_init.obj (.text)
                  82802f00    00001fe0     rts6600_elf.lib : _printfi.c.obj (.text:__TI_printfi)
                  82804ee0    00000ea0     ti.drv.qmss.ae66 : qmss_drv.oe66 (.text:Qmss_insertMemoryRegionSubSys)
                  82805d80    00000ce0     srio_laneconfig.obj (.text)
                  82806a60    00000ca0     core_2_core_interface.obj (.text)
                  82807700    00000c60     ipc.ae66 : Ipc.obj (.text:ti_sdo_ipc_GateMP_Instance_init__E)
                  82808360    00000c20     qmss_init.obj (.text)
                  82808f80    00000b80     ti.drv.srio.ae66 : srio_drv.oe66 (.text:Srio_processDrvConfig:Srio_processDrvConfig)
                  82809b00    00000960     ti.drv.qmss.ae66 : qmss_drv.oe66 (.text:Qmss_initSubSys)
                  8280a460    00000920     srio_osal.obj (.text)
                  8280ad80    000008c0     ti.drv.qmss.ae66 : qmss_drv.oe66 (.text:Qmss_internalQueueOpen)
                  8280b640    00000880     ti.targets.rts6000.ae66 : System.oe66 (.text:xdc_runtime_System_doPrint__I)
                  8280bec0    00000780     sysbios.ae66 : BIOS.obj (.text:ti_sysbios_family_c64p_Exception_handler__I)
                  8280c640    00000740     ipc.ae66 : Ipc.obj (.text:MessageQ_put)
                  8280cd80    00000740     ti.drv.srio.ae66 : srio_drv.oe66 (.text:Srio_processReceivedBD:Srio_processReceivedBD)
                  8280d4c0    00000740     sysbios.ae66 : BIOS.obj (.text:ti_sysbios_knl_Semaphore_pend__E)
                  8280dc00    00000720     ti.drv.cppi.ae66 : cppi_drv.oe66 (.text:Cppi_configureRxFlow)
                  8280e320    00000700     sysbios.ae66 : BIOS.obj (.text:ti_sysbios_timers_timer64_Timer_Module_startup__E)
                  8280ea20    000006c0     qmss_osal.obj (.text)
                  8280f0e0    00000640     ipc.ae66 : Ipc.obj (.text:Ipc_attach)
                  8280f720    00000640     rts6600_elf.lib : _printfi.c.obj (.text:_pconv_a)
                  8280fd60    00000620     ti.drv.srio.ae66 : srio_drv.oe66 (.text:Srio_sockSend_DIO:Srio_sockSend_DIO)
                  82810380    00000620     ipc.ae66 : Ipc.obj (.text:ti_sdo_ipc_heaps_HeapMemMP_alloc__E)
                  828109a0    00000620     sysbios.ae66 : BIOS.obj (.text:ti_sysbios_heaps_HeapMem_allocUnprotected__E)
                  82810fc0    00000600     ti.drv.cppi.ae66 : cppi_drv.oe66 (.text:Cppi_txChannelOpenWithHwCfg)
                  828115c0    00000600     rts6600_elf.lib : divd.c.obj (.text:__c6xabi_divd)
                  82811bc0    00000600     main.obj (.text)
                  828121c0    00000600     ipc.ae66 : Ipc.obj (.text:ti_sdo_ipc_GateMP_setRegion0Reserved__F)
                  828127c0    00000600              : Ipc.obj (.text:ti_sdo_ipc_transports_TransportShm_Instance_init__E)
                  82812dc0    000005c0     sysbios.ae66 : BIOS.obj (.text:ti_sysbios_heaps_HeapMem_freeUnprotected__E)
                  82813380    000005a0     ipc.ae66 : Ipc.obj (.text:ti_sdo_ipc_ListMP_Instance_init__E)
                  82813920    000005a0              : Ipc.obj (.text:ti_sdo_ipc_nsremote_NameServerRemoteNotify_Instance_init__E)
                  82813ec0    00000560              : Ipc.obj (.text:ti_sdo_ipc_GateMP_Instance_finalize__E)
                  82814420    00000540     ti.drv.cppi.ae66 : cppi_drv.oe66 (.text:Cppi_rxChannelOpen)
                  82814960    00000540     ipc.ae66 : Ipc.obj (.text:ti_sdo_ipc_heaps_HeapMemMP_free__E)
                  82814ea0    00000500     ti.drv.srio.ae66 : srio_drv.oe66 (.text:Srio_start:Srio_start)
                  828153a0    00000500     sysbios.ae66 : BIOS.obj (.text:ti_sysbios_knl_Task_Instance_finalize__E)
                  828158a0    000004c0     ipc.ae66 : Ipc.obj (.text:ti_sdo_ipc_heaps_HeapMemMP_Instance_init__E)
                  82815d60    000004a0     ti.drv.cppi.ae66 : cppi_desc.oe66 (.text:Cppi_initDescriptorSubSys)
                  82816200    000004a0     bb_interface.obj (.text)
                  828166a0    00000480     ti.drv.cppi.ae66 : cppi_drv.oe66 (.text:Cppi_init)
                  82816b20    00000480     ipc.ae66 : Ipc.obj (.text:NameServer_add)
                  82816fa0    00000480     sysbios.ae66 : BIOS.obj (.text:ti_sysbios_gates_GateMutexPri_enter__E)
                  82817420    00000460                  : BIOS.obj (.text:ti_sysbios_knl_Task_sleep__E)
                  82817880    00000440     ti.drv.srio.ae66 : srio_drv.oe66 (.text:Srio_sockBind_DIO:Srio_sockBind_DIO)
                  82817cc0    00000440     rts6600_elf.lib : _printfi.c.obj (.text:_pconv_g)
                  82818100    00000420     ipc.ae66 : Ipc.obj (.text:Notify_sendEvent)
                  82818520    00000420     sysbios.ae66 : BIOS.obj (.text:ti_sysbios_knl_Task_setPri__E)
                  82818940    00000400     ipc.ae66 : Ipc.obj (.text:Notify_registerEventSingle)
                  82818d40    00000400     ti.drv.srio.ae66 : srio_drv.oe66 (.text:Srio_sockOpen:Srio_sockOpen)
                  82819140    00000400     ipc.ae66 : Ipc.obj (.text:ti_sdo_ipc_nsremote_NameServerRemoteNotify_get__F)
                  82819540    000003e0              : Ipc.obj (.text:Notify_unregisterEventSingle)
                  82819920    000003e0              : Ipc.obj (.text:ti_sdo_ipc_MessageQ_Instance_init__E)
                  82819d00    000003c0     sysbios.ae66 : BIOS.obj (.text:ti_sysbios_knl_Task_Instance_init__E)
                  8281a0c0    000003a0                  : BIOS.obj (.text:ti_sysbios_family_c66_Cache_startup__I)
                  8281a460    00000340     ti.drv.srio.ae66 : srio_drv.oe66 (.text:Srio_initCfg)
                  8281a7a0    00000340     ipc.ae66 : Ipc.obj (.text:ti_sdo_ipc_gates_GatePeterson_Instance_init__E)
                  8281aae0    00000340     sysbios.ae66 : BIOS.obj (.text:ti_sysbios_family_c66_tci66xx_CpIntc_Module_startup__E)
                  8281ae20    00000320     ti.drv.cppi.ae66 : cppi_drv.oe66 (.text:Cppi_open)
                  8281b140    00000320     sysbios.ae66 : BIOS.obj (.text:ti_sysbios_timers_timer64_Timer_deviceConfig__I)
                  8281b460    00000300     ipc.ae66 : Ipc.obj (.text:ti_sdo_ipc_Notify_Instance_init__E)
                  8281b760    00000300     sysbios.ae66 : BIOS.obj (.text:ti_sysbios_knl_Swi_runLoop__I)
                  8281ba60    00000300                  : BIOS.obj (.text:ti_sysbios_knl_Task_Module_startup__E)
                  8281bd60    000002e0     ipc.ae66 : Ipc.obj (.text:ListMP_getHead)
                  8281c040    000002e0     ti.drv.qmss.ae66 : qmss_drv.oe66 (.text:Qmss_internalRmStartIndex)
                  8281c320    000002e0     ti.drv.srio.ae66 : srio_drv.oe66 (.text:Srio_sockBind_TYPE11:Srio_sockBind_TYPE11)
                  8281c600    000002e0                      : srio_drv.oe66 (.text:Srio_sockSend_TYPE9:Srio_sockSend_TYPE9)
                  8281c8e0    000002e0     ipc.ae66 : Ipc.obj (.text:ti_sdo_ipc_SharedRegion_reserveMemory__F)
                  8281cbc0    000002e0     sysbios.ae66 : BIOS.obj (.text:ti_sysbios_heaps_HeapMem_Instance_init__E)
                  8281cea0    000002c0     ti.drv.srio.ae66 : srio_drv.oe66 (.text:Srio_sockSend_TYPE11:Srio_sockSend_TYPE11)
                  8281d160    000002c0     rts6600_elf.lib : _printfi.c.obj (.text:fcvt)
                  8281d420    000002c0     ipc.ae66 : Ipc.obj (.text:ti_sdo_ipc_heaps_HeapMemMP_postInit__I)
                  8281d6e0    000002c0     sysbios.ae66 : BIOS.obj (.text:ti_sysbios_knl_Clock_workFunc__E)
                  8281d9a0    000002c0     ti.targets.rts6000.ae66 : LoggerBuf.oe66 (.text:xdc_runtime_LoggerBuf_write8__E)
                  8281dc60    000002a0     ti.drv.srio.ae66 : srio_drv.oe66 (.text:Srio_sockBind_TYPE9:Srio_sockBind_TYPE9)
                  8281df00    000002a0     rts6600_elf.lib : _printfi.c.obj (.text:_pconv_e)
                  8281e1a0    000002a0     ipc.ae66 : Ipc.obj (.text:ti_sdo_ipc_MessageQ_registerTransport__F)
                  8281e440    000002a0              : Ipc.obj (.text:ti_sdo_ipc_MessageQ_unregisterTransport__F)
                  8281e6e0    000002a0              : Ipc.obj (.text:ti_sdo_utils_NameServer_registerRemoteDriver__E)
                  8281e980    000002a0              : Ipc.obj (.text:ti_sdo_utils_NameServer_unregisterRemoteDriver__E)
                  8281ec20    00000280     ti.drv.qmss.ae66 : qmss_drv.oe66 (.text:Qmss_internalQueueClose)
                  8281eea0    00000280     rts6600_elf.lib : divf.c.obj (.text:__c6xabi_divf)
                  8281f120    00000280     ipc.ae66 : Ipc.obj (.text:ti_sdo_utils_NameServer_isRegistered__E)
                  8281f3a0    00000260     sysbios.ae66 : BIOS.obj (.text:ti_sysbios_family_c64p_Hwi_dispatchCore__I)
                  8281f600    00000260                  : BIOS.obj (.text:ti_sysbios_knl_Semaphore_post__E)
                  8281f860    00000260     ti.targets.rts6000.ae66 : Startup.oe66 (.text:xdc_runtime_Startup_startMods__I)
                  8281fac0    00000240     rts6600_elf.lib : imath64.c.obj (.text:__c6xabi_divull)
                  8281fd00    00000240     sysbios.ae66 : BIOS.obj (.text:ti_sysbios_family_c64p_Exception_internalHandler__I)
                  8281ff40    00000240     ti.targets.rts6000.ae66 : Core-mem.oe66 (.text:xdc_runtime_Core_createObject__I)
                  82820180    00000220     ipc.ae66 : Ipc.obj (.text:ListMP_putTail)
                  828203a0    00000220              : Ipc.obj (.text:SharedRegion_getPtr)
                  828205c0    00000220              : Ipc.obj (.text:SharedRegion_getSRPtr)
                  828207e0    00000220     sysbios.ae66 : BIOS.obj (.text:ti_sysbios_knl_Swi_run__I)
                  82820a00    00000220                  : BIOS.obj (.text:ti_sysbios_timers_timer64_Timer_setPeriodMicroSecs__E)
                  82820c20    00000220     ti.targets.rts6000.ae66 : Error.oe66 (.text:xdc_runtime_Error_policyDefault__E)
                  82820e40    00000200     ipc.ae66 : Ipc.obj (.text:GateMP_openByAddr)
                  82821040    00000200              : Ipc.obj (.text:HeapMemMP_sharedMemReq)
                  82821240    00000200              : Ipc.obj (.text:Ipc_start)
                  82821440    00000200              : Ipc.obj (.text:SharedRegion_getEntry)
                  82821640    00000200     ti.drv.srio.ae66 : srio_drv.oe66 (.text:Srio_dioCompletionIsr:Srio_dioCompletionIsr)
                  82821840    00000200                      : srio_drv.oe66 (.text:Srio_rxCompletionIsr:Srio_rxCompletionIsr)
                  82821a40    00000200     sysbios.ae66 : c64p_Hwi_disp_always.obj (.text:_ti_sysbios_family_c64p_Hwi_dispatchAlways)
                  82821c40    00000200     ti.drv.cppi.ae66 : cppi_heap.oe66 (.text:cppi_internal_heap_add)
                  82821e40    00000200     ipc.ae66 : Ipc.obj (.text:ti_sdo_ipc_SharedRegion_start__F)
                  82822040    00000200              : Ipc.obj (.text:ti_sdo_ipc_nsremote_NameServerRemoteNotify_swiFxnRequest__I)
                  82822240    000001e0              : Ipc.obj (.text:GateMP_sharedMemReq)
                  82822420    000001e0     ti.drv.qmss.ae66 : qmss_drv.oe66 (.text:Qmss_internaldownloadFirmware)
                  82822600    000001e0     sysbios.ae66 : BIOS.obj (.text:ti_sysbios_family_c64p_EventCombiner_dispatchPlug__E)
                  828227e0    000001e0                  : BIOS.obj (.text:ti_sysbios_gates_GateMutex_enter__E)
                  828229c0    000001e0     ti.targets.rts6000.ae66 : Text.oe66 (.text:xdc_runtime_Text_putSite__E)
                  82822ba0    000001c0     rts6600_elf.lib : imath40.c.obj (.text:__c6xabi_divul)
                  82822d60    000001c0                     : _printfi.c.obj (.text:_ltostr)
                  82822f20    000001c0     ipc.ae66 : Ipc.obj (.text:ti_sdo_ipc_Ipc_procSyncStart__I)
                  828230e0    000001c0     sysbios.ae66 : BIOS.obj (.text:ti_sysbios_family_c66_tci66xx_CpIntc_dispatch__E)
                  828232a0    000001c0                  : BIOS.obj (.text:ti_sysbios_knl_Task_checkStacks__E)
                  82823460    000001c0                  : BIOS.obj (.text:ti_sysbios_timers_timer64_Timer_getFreq__E)
                  82823620    000001c0                  : BIOS.obj (.text:ti_sysbios_timers_timer64_Timer_start__E)
                  828237e0    000001c0     ti.targets.rts6000.ae66 : LoggerBuf.oe66 (.text:xdc_runtime_LoggerBuf_write4__E)
                  828239a0    000001a0     ipc.ae66 : Ipc.obj (.text:GateMP_enter)
                  82823b40    000001a0              : Ipc.obj (.text:GateMP_leave)
                  82823ce0    000001a0              : Ipc.obj (.text:NameServer_getLocal)
                  82823e80    000001a0     ti.drv.qmss.ae66 : qmss_acc.oe66 (.text:Qmss_cfgAccumulatorCh)
                  82824020    000001a0     rts6600_elf.lib : frexp.c.obj (.text:frexp)
                  828241c0    000001a0                     : s_scalbn.c.obj (.text:scalbn)
                  82824360    000001a0     ipc.ae66 : Ipc.obj (.text:ti_sdo_ipc_transports_TransportShm_Instance_finalize__E)
                  82824500    000001a0              : Ipc.obj (.text:ti_sdo_ipc_transports_TransportShm_openByAddr__E)
                  828246a0    000001a0              : Ipc.obj (.text:ti_sdo_ipc_transports_TransportShm_put__E)
                  82824840    000001a0     sysbios.ae66 : BIOS.obj (.text:ti_sysbios_family_c64p_EventCombiner_enableEvent__E)
                  828249e0    000001a0                  : BIOS.obj (.text:ti_sysbios_family_c66_Cache_block__I)
                  82824b80    000001a0                  : BIOS.obj (.text:ti_sysbios_family_c66_Cache_getL2InitSize__I)
                  82824d20    000001a0                  : BIOS.obj (.text:ti_sysbios_knl_Task_schedule__I)
                  82824ec0    000001a0     ti.targets.rts6000.ae66 : Core-smem.oe66 (.text:xdc_runtime_Core_constructObject__I)
                  82825060    000001a0     app_pe66.oe66 (.text:xdc_runtime_System_printfExtend__I)
                  82825200    00000180     ipc.ae66 : Ipc.obj (.text:NameServer_getHandle)
                  82825380    00000180     sysbios.ae66 : c64p_Exception_asm.obj (.text)
                  82825500    00000180     ipc.ae66 : Ipc.obj (.text:ti_sdo_ipc_GateMP_attach__F)
                  82825680    00000180     sysbios.ae66 : BIOS.obj (.text:ti_sysbios_knl_Swi_Instance_init__E)
                  82825800    00000180                  : BIOS.obj (.text:ti_sysbios_knl_Task_exit__E)
                  82825980    00000180                  : BIOS.obj (.text:ti_sysbios_knl_Task_startCore__E)
                  82825b00    00000180                  : BIOS.obj (.text:ti_sysbios_syncs_SyncSem_Instance_init__E)
                  82825c80    00000160     ti.drv.qmss.ae66 : qmss_drv.oe66 (.text:Qmss_startSubSysCfg)
                  82825de0    00000160     ipc.ae66 : Ipc.obj (.text:ti_sdo_ipc_GateMP_openRegion0Reserved__F)
                  82825f40    00000160              : Ipc.obj (.text:ti_sdo_ipc_MessageQ_Instance_finalize__E)
                  828260a0    00000160     sysbios.ae66 : BIOS.obj (.text:ti_sysbios_family_c64p_Hwi_Module_startup__E)
                  82826200    00000160                  : BIOS.obj (.text:ti_sysbios_knl_Swi_post__E)
                  82826360    00000160     ti.targets.rts6000.ae66 : Text.oe66 (.text:xdc_runtime_Text_putMod__E)
                  828264c0    00000140     ipc.ae66 : Ipc.obj (.text:ListMP_remove)
                  82826600    00000140              : Ipc.obj (.text:ListMP_sharedMemReq)
                  82826740    00000140              : Ipc.obj (.text:MessageQ_create)
                  82826880    00000140              : Ipc.obj (.text:Notify_intLineRegistered)
                  828269c0    00000140     ti.drv.qmss.ae66 : qmss_drv.oe66 (.text:Qmss_rmServiceGroups)
                  82826b00    00000140     ipc.ae66 : Ipc.obj (.text:SharedRegion_getCacheLineSize)
                  82826c40    00000140              : Ipc.obj (.text:SharedRegion_getHeap)
                  82826d80    00000140              : Ipc.obj (.text:SharedRegion_isCacheEnabled)
                  82826ec0    00000140     ti.drv.srio.ae66 : srio_drv.oe66 (.text:Srio_rmService)
                  82827000    00000140                      : srio_drv.oe66 (.text:Srio_validateBindingId:Srio_validateBindingId)
                  82827140    00000140     ipc.ae66 : Ipc.obj (.text:ti_sdo_ipc_GateMP_createLocal__F)
                  82827280    00000140              : Ipc.obj (.text:ti_sdo_ipc_GateMP_getFreeResource__I)
                  828273c0    00000140              : Ipc.obj (.text:ti_sdo_ipc_gates_GatePeterson_enter__E)
                  82827500    00000140              : Ipc.obj (.text:ti_sdo_ipc_nsremote_NameServerRemoteNotify_attach__E)
                  82827640    00000140              : Ipc.obj (.text:ti_sdo_ipc_nsremote_NameServerRemoteNotify_cbFxn__I)
                  82827780    00000140     sysbios.ae66 : BIOS.obj (.text:ti_sysbios_gates_GateSwi_enter__E)
                  828278c0    00000140                  : BIOS.obj (.text:ti_sysbios_knl_Semaphore_Instance_init__E)
                  82827a00    00000140                  : BIOS.obj (.text:ti_sysbios_knl_Task_blockI__E)
                  82827b40    00000140                  : BIOS.obj (.text:ti_sysbios_knl_Task_postInit__I)
                  82827c80    00000140     ti.targets.rts6000.ae66 : Core-mem.oe66 (.text:xdc_runtime_Core_deleteObject__I)
                  82827dc0    00000140                             : LoggerBuf.oe66 (.text:xdc_runtime_LoggerBuf_setFilterLevel__E)
                  82827f00    00000120     ti.csl.ae66 : csl_chip.oe66 (.text:CSL_chipReadReg)
                  82828020    00000120     ipc.ae66 : Ipc.obj (.text:GateMP_close)
                  82828140    00000120     ti.drv.qmss.ae66 : qmss_drv.oe66 (.text:Qmss_getMemoryRegionCfg)
                  82828260    00000120                      : qmss_acc.oe66 (.text:Qmss_openAccumulatorChSubSys)
                  82828380    00000120                      : qmss_drv.oe66 (.text:Qmss_rmService)
                  828284a0    00000120     boot.ae66 : autoinit.oe66 (.text:_auto_init_elf)
                  828285c0    00000120     rts6600_elf.lib : _printfi.c.obj (.text:_pconv_f)
                  828286e0    00000120     ti.drv.cppi.ae66 : cppi_drv.oe66 (.text:cppiRmService)
                  82828800    00000120     ipc.ae66 : Ipc.obj (.text:ti_sdo_ipc_Notify_Module_startup__E)
                  82828920    00000120     app_pe66.oe66 (.text:ti_sdo_ipc_Notify_create)
                  82828a40    00000120     ipc.ae66 : Ipc.obj (.text:ti_sdo_ipc_gates_GateHWSem_Instance_init__E)
                  82828b60    00000120              : Ipc.obj (.text:ti_sdo_utils_NameServer_removeLocal__I)
                  82828c80    00000120     sysbios.ae66 : BIOS.obj (.text:ti_sysbios_knl_Swi_restoreHwi__E)
                  82828da0    00000120     ti.targets.rts6000.ae66 : LoggerBuf.oe66 (.text:xdc_runtime_LoggerBuf_getFilterLevel__E)
                  82828ec0    00000100     rts6600_elf.lib : copy_decompress_rle.c.obj (.text:__TI_decompress_rle_core)
                  82828fc0    00000100                     : _printfi.c.obj (.text:_mcpy)
                  828290c0    00000100                     : atoi.c.obj (.text:atoi)
                  828291c0    00000100     ipc.ae66 : Ipc.obj (.text:ti_sdo_ipc_Ipc_procSyncFinish__I)
                  828292c0    00000100              : Ipc.obj (.text:ti_sdo_ipc_Notify_exec__F)
                  828293c0    00000100              : Ipc.obj (.text:ti_sdo_ipc_SharedRegion_attach__F)
                  828294c0    00000100              : Ipc.obj (.text:ti_sdo_ipc_gates_GateHWSem_enter__E)
                  828295c0    00000100              : Ipc.obj (.text:ti_sdo_ipc_heaps_HeapMemMP_getStats__E)
                  828296c0    00000100     sysbios.ae66 : BIOS.obj (.text:ti_sysbios_gates_GateMutexPri_leave__E)
                  828297c0    00000100                  : BIOS.obj (.text:ti_sysbios_knl_Task_unblockI__E)
                  828298c0    00000100                  : BIOS.obj (.text:ti_sysbios_timers_timer64_Timer_initDevice__I)
                  828299c0    00000100                  : BIOS.obj (.text:ti_sysbios_xdcruntime_GateThreadSupport_leave__E)
                  82829ac0    00000100     ti.targets.rts6000.ae66 : Error.oe66 (.text:xdc_runtime_Error_print__E)
                  82829bc0    00000100                             : Memory.oe66 (.text:xdc_runtime_Memory_alloc__E)
                  82829cc0    00000100                             : Startup.oe66 (.text:xdc_runtime_Startup_exec__E)
                  82829dc0    000000e0     rts6600_elf.lib : hostwrite.c.obj (.text:HOSTwrite)
                  82829ea0    000000e0     ipc.ae66 : Ipc.obj (.text:HeapMemMP_openByAddr)
                  82829f80    000000e0              : Ipc.obj (.text:ListMP_openByAddr)
                  8282a060    000000e0              : Ipc.obj (.text:MessageQ_Params_init__S)
                  8282a140    000000e0     ti.drv.qmss.ae66 : qmss_drv.oe66 (.text:Qmss_rmNameService)
                  8282a220    000000e0     rts6600_elf.lib : exit.c.obj (.text:exit)
                  8282a300    000000e0                     : ltoa.c.obj (.text:ltoa)
                  8282a3e0    000000e0                     : memset.c.obj (.text:memset)
                  8282a4c0    000000e0     ipc.ae66 : Ipc.obj (.text:ti_sdo_ipc_GateMP_start__F)
                  8282a5a0    000000e0              : Ipc.obj (.text:ti_sdo_ipc_ListMP_Instance_finalize__E)
                  8282a680    000000e0              : Ipc.obj (.text:ti_sdo_ipc_MessageQ_Module_startup__E)
                  8282a760    000000e0              : Ipc.obj (.text:ti_sdo_ipc_Notify_Instance_finalize__E)
                  8282a840    000000e0              : Ipc.obj (.text:ti_sdo_ipc_SharedRegion_clearReservedMemory__F)
                  8282a920    000000e0              : Ipc.obj (.text:ti_sdo_ipc_gates_GateMPSupportNull_enter__E)
                  8282aa00    000000e0              : Ipc.obj (.text:ti_sdo_ipc_gates_GateMPSupportNull_leave__E)
                  8282aae0    000000e0              : Ipc.obj (.text:ti_sdo_ipc_heaps_HeapMemMP_Instance_finalize__E)
                  8282abc0    000000e0              : Ipc.obj (.text:ti_sdo_ipc_nsremote_NameServerRemoteNotify_Instance_finalize__E)
                  8282aca0    000000e0              : Ipc.obj (.text:ti_sdo_ipc_transports_TransportShmSetup_attach__E)
                  8282ad80    000000e0              : Ipc.obj (.text:ti_sdo_utils_NameServer_findLocal__I)
                  8282ae60    000000e0     sysbios.ae66 : BIOS.obj (.text:ti_sysbios_heaps_HeapMem_alloc__E)
                  8282af40    000000e0                  : BIOS.obj (.text:ti_sysbios_knl_Swi_Instance_finalize__E)
                  8282b020    000000e0                  : BIOS.obj (.text:ti_sysbios_timers_timer64_Timer_startup__E)
                  8282b100    000000e0     ti.targets.rts6000.ae66 : Text.oe66 (.text:xdc_runtime_Text_visitRope2__I)
                  8282b1e0    000000c0     ti.drv.qmss.ae66 : qmss_drv.oe66 (.text:Qmss_getMemRegQueueHandleSubSys)
                  8282b2a0    000000c0                      : qmss_drv.oe66 (.text:Qmss_setEoiVector)
                  8282b360    000000c0     ipc.ae66 : Ipc.obj (.text:SharedRegion_getId)
                  8282b420    000000c0     ti.drv.srio.ae66 : srio_drv.oe66 (.text:Srio_flushSockData:Srio_flushSockData)
                  8282b4e0    000000c0                      : srio_drv.oe66 (.text:Srio_getDescSize:Srio_getDescSize)
                  8282b5a0    000000c0                      : srio_drv.oe66 (.text:Srio_initSockData:Srio_initSockData)
                  8282b660    000000c0     rts6600_elf.lib : divu.asm.obj (.text:__divu)
                  8282b720    000000c0     ti.drv.cppi.ae66 : cppi_listlib.oe66 (.text:cppi_list_cat)
                  8282b7e0    000000c0     app_pe66.oe66 (.text:ti_sdo_ipc_GateMP_create)
                  8282b8a0    000000c0     ipc.ae66 : Ipc.obj (.text:ti_sdo_ipc_GateMP_getRegion0ReservedSize__F)
                  8282b960    000000c0     app_pe66.oe66 (.text:ti_sdo_ipc_ListMP_create)
                  8282ba20    000000c0     app_pe66.oe66 (.text:ti_sdo_ipc_MessageQ_create)
                  8282bae0    000000c0     ipc.ae66 : Ipc.obj (.text:ti_sdo_ipc_MessageQ_grow__I)
                  8282bba0    000000c0     app_pe66.oe66 (.text:ti_sdo_ipc_gates_GatePeterson_Object__create__S)
                  8282bc60    000000c0     app_pe66.oe66 (.text:ti_sdo_ipc_gates_GatePeterson_create)
                  8282bd20    000000c0     app_pe66.oe66 (.text:ti_sdo_ipc_heaps_HeapMemMP_Object__create__S)
                  8282bde0    000000c0     app_pe66.oe66 (.text:ti_sdo_ipc_heaps_HeapMemMP_create)
                  8282bea0    000000c0     app_pe66.oe66 (.text:ti_sdo_ipc_nsremote_NameServerRemoteNotify_Object__create__S)
                  8282bf60    000000c0     app_pe66.oe66 (.text:ti_sdo_ipc_nsremote_NameServerRemoteNotify_create)
                  8282c020    000000c0     app_pe66.oe66 (.text:ti_sdo_ipc_transports_TransportShm_Object__create__S)
                  8282c0e0    000000c0     app_pe66.oe66 (.text:ti_sdo_ipc_transports_TransportShm_create)
                  8282c1a0    000000c0     sysbios.ae66 : BIOS.obj (.text:ti_sysbios_gates_GateAll_leave__E)
                  8282c260    000000c0                  : BIOS.obj (.text:ti_sysbios_heaps_HeapMem_getStats__E)
                  8282c320    000000c0                  : BIOS.obj (.text:ti_sysbios_knl_Clock_logTick__E)
                  8282c3e0    000000c0                  : BIOS.obj (.text:ti_sysbios_knl_Swi_schedule__I)
                  8282c4a0    000000c0                  : BIOS.obj (.text:ti_sysbios_knl_Task_allBlockedFunction__I)
                  8282c560    000000c0     app_pe66.oe66 (.text:ti_sysbios_knl_Task_create)
                  8282c620    000000c0     app_pe66.oe66 (.text:ti_sysbios_syncs_SyncSem_Object__create__S)
                  8282c6e0    000000c0     app_pe66.oe66 (.text:ti_sysbios_syncs_SyncSem_create)
                  8282c7a0    000000c0     rts6600_elf.lib : tls.c.obj (.text:tls:init:__TI_tls_init)
                  8282c860    000000c0     ti.targets.rts6000.ae66 : Assert.oe66 (.text:xdc_runtime_Assert_raise__I)
                  8282c920    000000c0                             : Error.oe66 (.text:xdc_runtime_Error_setX__E)
                  8282c9e0    000000c0     app_pe66.oe66 (.text:xdc_runtime_LoggerBuf_Object__create__S)
                  8282caa0    000000c0     ti.targets.rts6000.ae66 : SysMin.oe66 (.text:xdc_runtime_SysMin_abort__E)
                  8282cb60    000000c0                             : SysMin.oe66 (.text:xdc_runtime_SysMin_flush__E)
                  8282cc20    000000a0     ti.drv.cppi.ae66 : cppi_drv.oe66 (.text:Cppi_channelEnable)
                  8282ccc0    000000a0                      : cppi_drv.oe66 (.text:Cppi_setCpdmaLoopback)
                  8282cd60    000000a0     ti.drv.qmss.ae66 : qmss_drv.oe66 (.text:Qmss_queueOpenSubSys)
                  8282ce00    000000a0     rts6600_elf.lib : fltullf.c.obj (.text:__c6xabi_fltullf)
                  8282cea0    000000a0                     : remu.asm.obj (.text:__remu)
                  8282cf40    000000a0     boot.ae66 : boot.oe66 (.text:_c_int00)
                  8282cfe0    000000a0     rts6600_elf.lib : _printfi.c.obj (.text:_ecpy)
                  8282d080    000000a0                     : memcpy64.asm.obj (.text:memcpy)
                  8282d120    000000a0     ipc.ae66 : Ipc.obj (.text:ti_sdo_ipc_gates_GatePeterson_leave__E)
                  8282d1c0    000000a0              : Ipc.obj (.text:ti_sdo_ipc_gates_GatePeterson_postInit__I)
                  8282d260    000000a0              : Ipc.obj (.text:ti_sdo_ipc_nsremote_NameServerRemoteNotify_detach__E)
                  8282d300    000000a0              : Ipc.obj (.text:ti_sdo_ipc_transports_TransportShm_sharedMemReq__E)
                  8282d3a0    000000a0              : Ipc.obj (.text:ti_sdo_utils_NameServer_Module_startup__E)
                  8282d440    000000a0              : Ipc.obj (.text:ti_sdo_utils_NameServer_postInit__I)
                  8282d4e0    000000a0     sysbios.ae66 : BIOS.obj (.text:ti_sysbios_family_c64p_Exception_Module_startup__E)
                  8282d580    000000a0                  : BIOS.obj (.text:ti_sysbios_family_c64p_Hwi_dispatchC__I)
                  8282d620    000000a0                  : BIOS.obj (.text:ti_sysbios_family_c64p_Hwi_getStackInfo__E)
                  8282d6c0    000000a0                  : BIOS.obj (.text:ti_sysbios_family_c66_tci66xx_CpIntc_mapSysIntToHostInt__E)
                  8282d760    000000a0                  : BIOS.obj (.text:ti_sysbios_gates_GateSwi_leave__E)
                  8282d800    000000a0     app_pe66.oe66 (.text:ti_sysbios_knl_Swi_construct)
                  8282d8a0    000000a0     sysbios.ae66 : BIOS.obj (.text:ti_sysbios_timers_timer64_Timer_stop__E)
                  8282d940    000000a0     ti.targets.rts6000.ae66 : Core-params.oe66 (.text:xdc_runtime_Core_assignParams__I)
                  8282d9e0    000000a0                             : SysMin.oe66 (.text:xdc_runtime_SysMin_putch__E)
                  8282da80    000000a0                             : System.oe66 (.text:xdc_runtime_System_formatNum__I)
                  8282db20    000000a0                             : System.oe66 (.text:xdc_runtime_System_putchar__I)
                  8282dbc0    000000a0                             : Text.oe66 (.text:xdc_runtime_Text_printVisFxn__I)
                  8282dc60    000000a0                             : Text.oe66 (.text:xdc_runtime_Text_xprintf__I)
                  8282dd00    000000a0     app_pe66.oe66 (.text:xdc_runtime_knl_GateThread_Object__create__S)
                  8282dda0    000000a0     app_pe66.oe66 (.text:xdc_runtime_knl_GateThread_create)
                  8282de40    00000080     ipc.ae66 : Ipc.obj (.text:HeapMemMP_restore)
                  8282dec0    00000080              : Ipc.obj (.text:ListMP_create)
                  8282df40    00000080     ti.drv.qmss.ae66 : qmss_drv.oe66 (.text:Qmss_queueOpen)
                  8282dfc0    00000080     ti.drv.srio.ae66 : srio_drv.oe66 (.text:Srio_freeRxDrvBuffer:Srio_freeRxDrvBuffer)
                  8282e040    00000080                      : srio_drv.oe66 (.text:Srio_sockBind:Srio_sockBind)
                  8282e0c0    00000080                      : srio_drv.oe66 (.text:Srio_sockSend:Srio_sockSend)
                  8282e140    00000080     rts6600_elf.lib : trgmsg.c.obj (.text:__TI_readmsg)
                  8282e1c0    00000080                     : fixdu.c.obj (.text:__c6xabi_fixdu)
                  8282e240    00000080                     : llshift.c.obj (.text:__c6xabi_llshl)
                  8282e2c0    00000080                     : snprintf.c.obj (.text:_outs)
                  8282e340    00000080     sysbios.ae66 : c62_TaskSupport_asm.obj (.text:_ti_sysbios_family_c62_TaskSupport_swap__E)
                  8282e3c0    00000080     ti.drv.cppi.ae66 : cppi_heap.oe66 (.text:cppi_internal_heap_cache_begin)
                  8282e440    00000080                      : cppi_heap.oe66 (.text:cppi_internal_heap_malloc)
                  8282e4c0    00000080                      : cppi_listlib.oe66 (.text:cppi_list_add)
                  8282e540    00000080                      : cppi_listlib.oe66 (.text:cppi_list_remove)
                  8282e5c0    00000080     init.obj (.text)
                  8282e640    00000080     rts6600_elf.lib : snprintf.c.obj (.text:snprintf)
                  8282e6c0    00000080     ipc.ae66 : Ipc.obj (.text:ti_sdo_ipc_Ipc_getMasterAddr__I)
                  8282e740    00000080              : Ipc.obj (.text:ti_sdo_ipc_gates_GateHWSem_Module_startup__E)
                  8282e7c0    00000080     app_pe66.oe66 (.text:ti_sdo_ipc_gates_GateHWSem_Object__create__S)
                  8282e840    00000080     app_pe66.oe66 (.text:ti_sdo_ipc_gates_GateHWSem_create)
                  8282e8c0    00000080     app_pe66.oe66 (.text:ti_sdo_ipc_gates_GateMPSupportNull_Object__create__S)
                  8282e940    00000080     app_pe66.oe66 (.text:ti_sdo_ipc_gates_GateMPSupportNull_create)
                  8282e9c0    00000080     ipc.ae66 : Ipc.obj (.text:ti_sdo_ipc_transports_TransportShm_swiFxn__I)
                  8282ea40    00000080     app_pe66.oe66 (.text:ti_sysbios_BIOS_atExitFunc__I)
                  8282eac0    00000080     app_pe66.oe66 (.text:ti_sysbios_BIOS_registerRTSLock__I)
                  8282eb40    00000080     sysbios.ae66 : BIOS.obj (.text:ti_sysbios_family_c66_tci66xx_CpIntc_getEventId__E)
                  8282ebc0    00000080     app_pe66.oe66 (.text:ti_sysbios_gates_GateAll_Object__create__S)
                  8282ec40    00000080     app_pe66.oe66 (.text:ti_sysbios_gates_GateHwi_Object__create__S)
                  8282ecc0    00000080     app_pe66.oe66 (.text:ti_sysbios_gates_GateMutexPri_Object__create__S)
                  8282ed40    00000080     app_pe66.oe66 (.text:ti_sysbios_gates_GateMutex_Object__create__S)
                  8282edc0    00000080     app_pe66.oe66 (.text:ti_sysbios_gates_GateSwi_Object__create__S)
                  8282ee40    00000080     sysbios.ae66 : BIOS.obj (.text:ti_sysbios_hal_Hwi_checkStack)
                  8282eec0    00000080                  : BIOS.obj (.text:ti_sysbios_hal_Hwi_initStack)
                  8282ef40    00000080     app_pe66.oe66 (.text:ti_sysbios_heaps_HeapMem_Object__create__S)
                  8282efc0    00000080     sysbios.ae66 : BIOS.obj (.text:ti_sysbios_heaps_HeapMem_init__I)
                  8282f040    00000080     app_pe66.oe66 (.text:ti_sysbios_knl_Clock_doTick__I)
                  8282f0c0    00000080     sysbios.ae66 : BIOS.obj (.text:ti_sysbios_knl_Idle_run__E)
                  8282f140    00000080     app_pe66.oe66 (.text:ti_sysbios_knl_Semaphore_create)
                  8282f1c0    00000080     sysbios.ae66 : BIOS.obj (.text:ti_sysbios_knl_Semaphore_pendTimeout__I)
                  8282f240    00000080                  : BIOS.obj (.text:ti_sysbios_knl_Swi_startup__E)
                  8282f2c0    00000080                  : BIOS.obj (.text:ti_sysbios_knl_Task_restore__E)
                  8282f340    00000080                  : BIOS.obj (.text:ti_sysbios_syncs_SyncSem_wait__E)
                  8282f3c0    00000080     app_pe66.oe66 (.text:ti_sysbios_xdcruntime_GateThreadSupport_create)
                  8282f440    00000080     ti.targets.rts6000.ae66 : Core-label.oe66 (.text:xdc_runtime_Core_assignLabel__I)
                  8282f4c0    00000080                             : LoggerBuf.oe66 (.text:xdc_runtime_LoggerBuf_Instance_init__E)
                  8282f540    00000080                             : LoggerBuf.oe66 (.text:xdc_runtime_LoggerBuf_Module_startup__E)
                  8282f5c0    00000080                             : LoggerBuf.oe66 (.text:xdc_runtime_LoggerBuf_filterOutEvent__I)
                  8282f640    00000080     app_pe66.oe66 (.text:xdc_runtime_SysMin_output__I)
                  8282f6c0    00000080     ti.targets.rts6000.ae66 : System.oe66 (.text:xdc_runtime_System_atexit__E)
                  8282f740    00000080                             : System.oe66 (.text:xdc_runtime_System_avprintf__E)
                  8282f7c0    00000080                             : System.oe66 (.text:xdc_runtime_System_processAtExit__E)
                  8282f840    00000080                             : System.oe66 (.text:xdc_runtime_System_vprintf__E)
                  8282f8c0    00000060     ipc.ae66 : Ipc.obj (.text:HeapMemMP_create)
                  8282f920    00000060              : Ipc.obj (.text:HeapMemMP_getRTSCParams$14)
                  8282f980    00000060     ti.drv.qmss.ae66 : qmss_drv.oe66 (.text:Qmss_ackInterrupt)
                  8282f9e0    00000060                      : qmss_acc.oe66 (.text:Qmss_programAccumulator)
                  8282fa40    00000060                      : qmss_drv.oe66 (.text:Qmss_setQueueThreshold)
                  8282faa0    00000060     ti.drv.srio.ae66 : listlib.oe66 (.text:Srio_listCat)
                  8282fb00    00000060     rts6600_elf.lib : frcmpyd_div.c.obj (.text:__TI_frcmpyd_div)
                  8282fb60    00000060                     : trgmsg.c.obj (.text:__TI_writemsg)
                  8282fbc0    00000060                     : llshift.c.obj (.text:__c6xabi_llshru)
                  8282fc20    00000060                     : imath64.c.obj (.text:_subcull)
                  8282fc80    00000060     sysbios.ae66 : c64p_Hwi_asm_switch.obj (.text:_ti_sysbios_family_c64p_Hwi_switchAndDispatch__I)
                  8282fce0    00000060                  : c64p_Hwi_asm_switch.obj (.text:_ti_sysbios_family_xxx_Hwi_switchAndRunFunc)
                  8282fd40    00000060     ti.drv.cppi.ae66 : cppi_listlib.oe66 (.text:cppi_list_cache_invalidate)
                  8282fda0    00000060     rts6600_elf.lib : memccpy.c.obj (.text:memccpy)
                  8282fe00    00000060                     : sprintf.c.obj (.text:sprintf)
                  8282fe60    00000060     app_pe66.oe66 (.text:ti_sdo_ipc_GateMP_Object__delete__S)
                  8282fec0    00000060     ipc.ae66 : Ipc.obj (.text:ti_sdo_ipc_Ipc_getSlaveAddr__I)
                  8282ff20    00000060              : Ipc.obj (.text:ti_sdo_ipc_Ipc_reservedSizePerProc__I)
                  8282ff80    00000060     app_pe66.oe66 (.text:ti_sdo_ipc_ListMP_Object__delete__S)
                  8282ffe0    00000060     ipc.ae66 : Ipc.obj (.text:ti_sdo_ipc_ListMP_elemClear__I)
                  82830040    00000060     app_pe66.oe66 (.text:ti_sdo_ipc_gates_GatePeterson_Object__delete__S)
                  828300a0    00000060     ipc.ae66 : Ipc.obj (.text:ti_sdo_ipc_gates_GatePeterson_sharedMemReq__E)
                  82830100    00000060     app_pe66.oe66 (.text:ti_sdo_ipc_heaps_HeapMemMP_Object__delete__S)
                  82830160    00000060     app_pe66.oe66 (.text:ti_sdo_ipc_nsremote_NameServerRemoteNotify_Object__delete__S)
                  828301c0    00000060     app_pe66.oe66 (.text:ti_sdo_ipc_transports_TransportShm_Object__delete__S)
                  82830220    00000060     app_pe66.oe66 (.text:ti_sdo_utils_List_construct)
                  82830280    00000060     app_pe66.oe66 (.text:ti_sysbios_BIOS_errorRaiseHook__I)
                  828302e0    00000060     app_pe66.oe66 (.text:ti_sysbios_BIOS_removeRTSLock__I)
                  82830340    00000060     app_pe66.oe66 (.text:ti_sysbios_BIOS_startFunc__I)
                  828303a0    00000060     sysbios.ae66 : BIOS.obj (.text:ti_sysbios_family_c62_TaskSupport_start__E)
                  82830400    00000060                  : BIOS.obj (.text:ti_sysbios_family_c64p_EventCombiner_Module_startup__E)
                  82830460    00000060                  : BIOS.obj (.text:ti_sysbios_family_c64p_EventCombiner_unused__E)
                  828304c0    00000060                  : BIOS.obj (.text:ti_sysbios_family_c66_Cache_Module_startup__E)
                  82830520    00000060                  : BIOS.obj (.text:ti_sysbios_family_c66_tci66xx_CpIntc_unused__E)
                  82830580    00000060                  : BIOS.obj (.text:ti_sysbios_gates_GateAll_enter__E)
                  828305e0    00000060     app_pe66.oe66 (.text:ti_sysbios_gates_GateMutexPri_Object__delete__S)
                  82830640    00000060     app_pe66.oe66 (.text:ti_sysbios_gates_GateMutexPri_construct)
                  828306a0    00000060     app_pe66.oe66 (.text:ti_sysbios_gates_GateMutex_Object__delete__S)
                  82830700    00000060     sysbios.ae66 : BIOS.obj (.text:ti_sysbios_heaps_HeapMem_free__E)
                  82830760    00000060                  : BIOS.obj (.text:ti_sysbios_knl_Clock_Module_startup__E)
                  828307c0    00000060     app_pe66.oe66 (.text:ti_sysbios_knl_Queue_construct)
                  82830820    00000060     app_pe66.oe66 (.text:ti_sysbios_knl_Semaphore_Object__delete__S)
                  82830880    00000060     app_pe66.oe66 (.text:ti_sysbios_knl_Semaphore_construct)
                  828308e0    00000060     sysbios.ae66 : BIOS.obj (.text:ti_sysbios_knl_Swi_Module_startup__E)
                  82830940    00000060                  : BIOS.obj (.text:ti_sysbios_knl_Task_enter__I)
                  828309a0    00000060     app_pe66.oe66 (.text:ti_sysbios_syncs_SyncSem_Object__delete__S)
                  82830a00    00000060     app_pe66.oe66 (.text:ti_sysbios_xdcruntime_GateThreadSupport_Object__delete__S)
                  82830a60    00000060     app_pe66.oe66 (.text:xdc_runtime_LoggerBuf_Object__delete__S)
                  82830ac0    00000060     ti.targets.rts6000.ae66 : LoggerBuf.oe66 (.text:xdc_runtime_LoggerBuf_reset__E)
                  82830b20    00000060                             : Memory.oe66 (.text:xdc_runtime_Memory_valloc__E)
                  82830b80    00000060                             : Text.oe66 (.text:xdc_runtime_Text_cordText__E)
                  82830be0    00000060     app_pe66.oe66 (.text:xdc_runtime_knl_GateThread_Object__delete__S)
                  82830c40    00000040     ipc.ae66 : Ipc.obj (.text:GateMP_Params_init)
                  82830c80    00000040              : Ipc.obj (.text:HeapMemMP_Params_init)
                  82830cc0    00000040              : Ipc.obj (.text:Notify_attach)
                  82830d00    00000040              : Ipc.obj (.text:Notify_sharedMemReq)
                  82830d40    00000040     ti.drv.qmss.ae66 : qmss_drv.oe66 (.text:Qmss_getMemRegDescSizeSubSys)
                  82830d80    00000040                      : qmss_drv.oe66 (.text:Qmss_internalVirtToPhy)
                  82830dc0    00000040                      : qmss_drv.oe66 (.text:Qmss_queueClose)
                  82830e00    00000040                      : qmss_drv.oe66 (.text:Qmss_start)
                  82830e40    00000040     ti.drv.srio.ae66 : listlib.oe66 (.text:Srio_listAdd)
                  82830e80    00000040                      : listlib.oe66 (.text:Srio_listRemove)
                  82830ec0    00000040     rts6600_elf.lib : isinf.c.obj (.text:__c6xabi_isinf)
                  82830f00    00000040                     : _printfi.c.obj (.text:__c6xabi_isnan)
                  82830f40    00000040                     : strasg.asm.obj (.text:__strasgi_64plus)
                  82830f80    00000040                     : args_main.c.obj (.text:_args_main)
                  82830fc0    00000040                     : snprintf.c.obj (.text:_outc)
                  82831000    00000040                     : sprintf.c.obj (.text:_outs)
                  82831040    00000040     sysbios.ae66 : c62_TaskSupport_asm.obj (.text:_ti_sysbios_family_c62_TaskSupport_buildTaskStack)
                  82831080    00000040     common.obj (.text)
                  828310c0    00000040     ipc.ae66 : Ipc.obj (.text:ti_sdo_ipc_Ipc_getRegion0ReservedSize__I)
                  82831100    00000040     app_pe66.oe66 (.text:ti_sdo_ipc_gates_GateHWSem_Handle__label__S)
                  82831140    00000040     app_pe66.oe66 (.text:ti_sdo_ipc_gates_GateHWSem_Object__delete__S)
                  82831180    00000040     ipc.ae66 : Ipc.obj (.text:ti_sdo_ipc_gates_GateHWSem_leave__E)
                  828311c0    00000040     app_pe66.oe66 (.text:ti_sdo_ipc_gates_GateMPSupportNull_Handle__label__S)
                  82831200    00000040     app_pe66.oe66 (.text:ti_sdo_ipc_gates_GateMPSupportNull_Object__delete__S)
                  82831240    00000040     app_pe66.oe66 (.text:ti_sdo_ipc_gates_GatePeterson_Handle__label__S)
                  82831280    00000040     ipc.ae66 : Ipc.obj (.text:ti_sdo_ipc_gates_GatePeterson_Instance_finalize__E)
                  828312c0    00000040     app_pe66.oe66 (.text:ti_sdo_ipc_heaps_HeapMemMP_Handle__label__S)
                  82831300    00000040     app_pe66.oe66 (.text:ti_sdo_ipc_nsremote_NameServerRemoteNotify_Handle__label__S)
                  82831340    00000040     ipc.ae66 : Ipc.obj (.text:ti_sdo_ipc_nsremote_NameServerRemoteNotify_swiFxnResponse__I)
                  82831380    00000040              : Ipc.obj (.text:ti_sdo_ipc_transports_TransportShmSetup_sharedMemReq__E)
                  828313c0    00000040     app_pe66.oe66 (.text:ti_sdo_ipc_transports_TransportShm_Handle__label__S)
                  82831400    00000040     ipc.ae66 : Ipc.obj (.text:ti_sdo_utils_List_dequeue__E)
                  82831440    00000040     app_pe66.oe66 (.text:ti_sdo_utils_NameServer_Object__get__S)
                  82831480    00000040     app_pe66.oe66 (.text:ti_sysbios_BIOS_exitFunc__I)
                  828314c0    00000040     app_pe66.oe66 (.text:ti_sysbios_BIOS_rtsLock__I)
                  82831500    00000040     app_pe66.oe66 (.text:ti_sysbios_BIOS_rtsUnlock__I)
                  82831540    00000040     sysbios.ae66 : BIOS.obj (.text:ti_sysbios_family_c64p_Hwi_disableInterrupt__E)
                  82831580    00000040                  : BIOS.obj (.text:ti_sysbios_family_c64p_Hwi_enableInterrupt__E)
                  828315c0    00000040                  : BIOS.obj (.text:ti_sysbios_family_c66_tci66xx_CpIntc_dispatchPlug__E)
                  82831600    00000040     app_pe66.oe66 (.text:ti_sysbios_gates_GateAll_Handle__label__S)
                  82831640    00000040     app_pe66.oe66 (.text:ti_sysbios_gates_GateAll_Object__delete__S)
                  82831680    00000040     app_pe66.oe66 (.text:ti_sysbios_gates_GateHwi_Handle__label__S)
                  828316c0    00000040     app_pe66.oe66 (.text:ti_sysbios_gates_GateHwi_Object__delete__S)
                  82831700    00000040     app_pe66.oe66 (.text:ti_sysbios_gates_GateMutexPri_Handle__label__S)
                  82831740    00000040     sysbios.ae66 : BIOS.obj (.text:ti_sysbios_gates_GateMutexPri_Instance_init__E)
                  82831780    00000040     app_pe66.oe66 (.text:ti_sysbios_gates_GateMutexPri_destruct)
                  828317c0    00000040     app_pe66.oe66 (.text:ti_sysbios_gates_GateMutex_Handle__label__S)
                  82831800    00000040     sysbios.ae66 : BIOS.obj (.text:ti_sysbios_gates_GateMutex_Instance_init__E)
                  82831840    00000040                  : BIOS.obj (.text:ti_sysbios_gates_GateMutex_leave__E)
                  82831880    00000040     app_pe66.oe66 (.text:ti_sysbios_gates_GateSwi_Handle__label__S)
                  828318c0    00000040     app_pe66.oe66 (.text:ti_sysbios_gates_GateSwi_Object__delete__S)
                  82831900    00000040     app_pe66.oe66 (.text:ti_sysbios_heaps_HeapMem_Handle__label__S)
                  82831940    00000040     app_pe66.oe66 (.text:ti_sysbios_heaps_HeapMem_Object__delete__S)
                  82831980    00000040     app_pe66.oe66 (.text:ti_sysbios_heaps_HeapMem_Object__get__S)
                  828319c0    00000040     app_pe66.oe66 (.text:ti_sysbios_knl_Semaphore_destruct)
                  82831a00    00000040     app_pe66.oe66 (.text:ti_sysbios_knl_Swi_Object__get__S)
                  82831a40    00000040     app_pe66.oe66 (.text:ti_sysbios_knl_Swi_destruct)
                  82831a80    00000040     app_pe66.oe66 (.text:ti_sysbios_knl_Task_Object__get__S)
                  82831ac0    00000040     sysbios.ae66 : BIOS.obj (.text:ti_sysbios_knl_Task_sleepTimeout__I)
                  82831b00    00000040     app_pe66.oe66 (.text:ti_sysbios_syncs_SyncSem_Handle__label__S)
                  82831b40    00000040     rts6600_elf.lib : wcslen.c.obj (.text:wcslen)
                  82831b80    00000040     ti.targets.rts6000.ae66 : Error.oe66 (.text:xdc_runtime_Error_check__E)
                  82831bc0    00000040                             : Error.oe66 (.text:xdc_runtime_Error_init__E)
                  82831c00    00000040     app_pe66.oe66 (.text:xdc_runtime_GateNull_Handle__label__S)
                  82831c40    00000040     app_pe66.oe66 (.text:xdc_runtime_GateNull_Object__create__S)
                  82831c80    00000040     app_pe66.oe66 (.text:xdc_runtime_GateNull_Object__delete__S)
                  82831cc0    00000040     app_pe66.oe66 (.text:xdc_runtime_LoggerBuf_Handle__label__S)
                  82831d00    00000040     ti.targets.rts6000.ae66 : LoggerBuf.oe66 (.text:xdc_runtime_LoggerBuf_Instance_finalize__E)
                  82831d40    00000040     app_pe66.oe66 (.text:xdc_runtime_LoggerBuf_Object__get__S)
                  82831d80    00000040     ti.targets.rts6000.ae66 : LoggerBuf.oe66 (.text:xdc_runtime_LoggerBuf_write0__E)
                  82831dc0    00000040                             : LoggerBuf.oe66 (.text:xdc_runtime_LoggerBuf_write1__E)
                  82831e00    00000040                             : LoggerBuf.oe66 (.text:xdc_runtime_LoggerBuf_write2__E)
                  82831e40    00000040                             : Registry.oe66 (.text:xdc_runtime_Registry_findById__E)
                  82831e80    00000040                             : SysMin.oe66 (.text:xdc_runtime_SysMin_Module_startup__E)
                  82831ec0    00000040                             : SysMin.oe66 (.text:xdc_runtime_SysMin_exit__E)
                  82831f00    00000040                             : System.oe66 (.text:xdc_runtime_System_abort__E)
                  82831f40    00000040     app_pe66.oe66 (.text:xdc_runtime_System_aprintf__E)
                  82831f80    00000040     ti.targets.rts6000.ae66 : System.oe66 (.text:xdc_runtime_System_exit__E)
                  82831fc0    00000040     app_pe66.oe66 (.text:xdc_runtime_System_printf__E)
                  82832000    00000040     app_pe66.oe66 (.text:xdc_runtime_knl_GateThread_Handle__label__S)
                  82832040    00000040     ti.targets.rts6000.ae66 : GateThread.oe66 (.text:xdc_runtime_knl_GateThread_Instance_init__E)
                  82832080    00000020     ti.csl.ae66 : csl_srioGetBaseAddress.oe66 (.text:CSL_SRIO_Open)
                  828320a0    00000020     ti.drv.cppi.ae66 : cppi_drv.oe66 (.text:Cppi_getChannelNumber)
                  828320c0    00000020                      : cppi_drv.oe66 (.text:Cppi_getFlowId)
                  828320e0    00000020                      : cppi_desc.oe66 (.text:Cppi_initDescriptor)
                  82832100    00000020                      : cppi_drv.oe66 (.text:Cppi_txChannelOpen)
                  82832120    00000020     ipc.ae66 : Ipc.obj (.text:GateMP_delete)
                  82832140    00000020              : Ipc.obj (.text:GateMP_getDefaultRemote)
                  82832160    00000020              : Ipc.obj (.text:GateMP_getSharedParams$4)
                  82832180    00000020              : Ipc.obj (.text:HeapMemMP_getSharedParams$14)
                  828321a0    00000020              : Ipc.obj (.text:ListMP_Params_init)
                  828321c0    00000020              : Ipc.obj (.text:ListMP_close)
                  828321e0    00000020              : Ipc.obj (.text:ListMP_delete)
                  82832200    00000020              : Ipc.obj (.text:MultiProc_getBaseIdOfCluster)
                  82832220    00000020              : Ipc.obj (.text:MultiProc_self)
                  82832240    00000020              : Ipc.obj (.text:NameServer_addUInt32)
                  82832260    00000020              : Ipc.obj (.text:NameServer_getLocalUInt32)
                  82832280    00000020              : Ipc.obj (.text:NameServer_removeEntry)
                  828322a0    00000020              : Ipc.obj (.text:Notify_numIntLines)
                  828322c0    00000020     ti.drv.qmss.ae66 : qmss_drv.oe66 (.text:Qmss_getQueueHandle)
                  828322e0    00000020                      : qmss_drv.oe66 (.text:Qmss_getQueueNumber)
                  82832300    00000020                      : qmss_drv.oe66 (.text:Qmss_init)
                  82832320    00000020                      : qmss_drv.oe66 (.text:Qmss_insertMemoryRegion)
                  82832340    00000020     ipc.ae66 : Ipc.obj (.text:SharedRegion_invalidSRPtr)
                  82832360    00000020     ti.drv.srio.ae66 : srio_drv.oe66 (.text:Srio_init:Srio_init)
                  82832380    00000020                      : listlib.oe66 (.text:Srio_listGetHead)
                  828323a0    00000020                      : listlib.oe66 (.text:Srio_listGetNext)
                  828323c0    00000020     app_pe66.oe66 (.text:_GateMP_virtToPhys)
                  828323e0    00000020     rts6600_elf.lib : errno.c.obj (.text:__c6xabi_errno_addr)
                  82832400    00000020                     : push.asm.obj (.text:__pop_rts)
                  82832420    00000020                     : push.asm.obj (.text:__push_rts)
                  82832440    00000020                     : _lock.c.obj (.text:_nop)
                  82832460    00000020                     : sprintf.c.obj (.text:_outc)
                  82832480    00000020                     : _lock.c.obj (.text:_register_lock)
                  828324a0    00000020                     : _data_synch.c.obj (.text:_register_synch_api)
                  828324c0    00000020                     : _lock.c.obj (.text:_register_unlock)
                  828324e0    00000020                     : signbit.c.obj (.text:_signbit)
                  82832500    00000020     sysbios.ae66 : c62_TaskSupport_asm.obj (.text:_ti_sysbios_family_c62_TaskSupport_glue)
                  82832520    00000020     rts6600_elf.lib : exit.c.obj (.text:abort)
                  82832540    00000020                     : s_copysign.c.obj (.text:copysign)
                  82832560    00000020     ti.drv.cppi.ae66 : cppi_listlib.oe66 (.text:cppi_list_get_head)
                  82832580    00000020                      : cppi_listlib.oe66 (.text:cppi_list_get_next)
                  828325a0    00000020     ti.csl.ae66 : csl_tsc.oe66 (.text:cslsys_section:tsc)
                  828325c0    00000020     rts6600_elf.lib : copy_decompress_none.c.obj (.text:decompress:none:__TI_decompress_none)
                  828325e0    00000020                     : copy_decompress_rle.c.obj (.text:decompress:rle24:__TI_decompress_rle24)
                  82832600    00000020     app_pe66.oe66 (.text:ti_sdo_ipc_GateMP_Params__init__S)
                  82832620    00000020     app_pe66.oe66 (.text:ti_sdo_ipc_GateMP_RemoteCustom1Proxy_Proxy__abstract__S)
                  82832640    00000020     app_pe66.oe66 (.text:ti_sdo_ipc_GateMP_RemoteCustom1Proxy_Proxy__delegate__S)
                  82832660    00000020     app_pe66.oe66 (.text:ti_sdo_ipc_GateMP_RemoteCustom1Proxy_create)
                  82832680    00000020     app_pe66.oe66 (.text:ti_sdo_ipc_GateMP_RemoteCustom1Proxy_delete)
                  828326a0    00000020     app_pe66.oe66 (.text:ti_sdo_ipc_GateMP_RemoteCustom2Proxy_Proxy__abstract__S)
                  828326c0    00000020     app_pe66.oe66 (.text:ti_sdo_ipc_GateMP_RemoteCustom2Proxy_Proxy__delegate__S)
                  828326e0    00000020     app_pe66.oe66 (.text:ti_sdo_ipc_GateMP_RemoteCustom2Proxy_create)
                  82832700    00000020     app_pe66.oe66 (.text:ti_sdo_ipc_GateMP_RemoteCustom2Proxy_delete)
                  82832720    00000020     app_pe66.oe66 (.text:ti_sdo_ipc_GateMP_RemoteSystemProxy_Proxy__abstract__S)
                  82832740    00000020     app_pe66.oe66 (.text:ti_sdo_ipc_GateMP_RemoteSystemProxy_Proxy__delegate__S)
                  82832760    00000020     app_pe66.oe66 (.text:ti_sdo_ipc_GateMP_RemoteSystemProxy_create)
                  82832780    00000020     app_pe66.oe66 (.text:ti_sdo_ipc_GateMP_RemoteSystemProxy_delete)
                  828327a0    00000020     app_pe66.oe66 (.text:ti_sdo_ipc_GateMP_delete)
                  828327c0    00000020     ipc.ae66 : Ipc.obj (.text:ti_sdo_ipc_GateMP_getSharedAddr__F)
                  828327e0    00000020              : Ipc.obj (.text:ti_sdo_ipc_GateMP_setDefaultRemote__F)
                  82832800    00000020     app_pe66.oe66 (.text:ti_sdo_ipc_ListMP_Params__init__S)
                  82832820    00000020     app_pe66.oe66 (.text:ti_sdo_ipc_ListMP_delete)
                  82832840    00000020     app_pe66.oe66 (.text:ti_sdo_ipc_MessageQ_Object__get__S)
                  82832860    00000020     app_pe66.oe66 (.text:ti_sdo_ipc_MessageQ_Params__init__S)
                  82832880    00000020     app_pe66.oe66 (.text:ti_sdo_ipc_Notify_Module_GateProxy_enter__E)
                  828328a0    00000020     app_pe66.oe66 (.text:ti_sdo_ipc_Notify_Module_GateProxy_leave__E)
                  828328c0    00000020     app_pe66.oe66 (.text:ti_sdo_ipc_gates_GateHWSem_Params__init__S)
                  828328e0    00000020     ipc.ae66 : Ipc.obj (.text:ti_sdo_ipc_gates_GateHWSem_getReservedMask__E)
                  82832900    00000020              : Ipc.obj (.text:ti_sdo_ipc_gates_GateHWSem_query__E)
                  82832920    00000020              : Ipc.obj (.text:ti_sdo_ipc_gates_GateHWSem_sharedMemReq__E)
                  82832940    00000020              : Ipc.obj (.text:ti_sdo_ipc_gates_GateMPSupportNull_Instance_init__E)
                  82832960    00000020     app_pe66.oe66 (.text:ti_sdo_ipc_gates_GateMPSupportNull_Params__init__S)
                  82832980    00000020     ipc.ae66 : Ipc.obj (.text:ti_sdo_ipc_gates_GateMPSupportNull_getReservedMask__E)
                  828329a0    00000020              : Ipc.obj (.text:ti_sdo_ipc_gates_GateMPSupportNull_query__E)
                  828329c0    00000020              : Ipc.obj (.text:ti_sdo_ipc_gates_GateMPSupportNull_sharedMemReq__E)
                  828329e0    00000020     app_pe66.oe66 (.text:ti_sdo_ipc_gates_GatePeterson_Params__init__S)
                  82832a00    00000020     ipc.ae66 : Ipc.obj (.text:ti_sdo_ipc_gates_GatePeterson_getReservedMask__E)
                  82832a20    00000020              : Ipc.obj (.text:ti_sdo_ipc_gates_GatePeterson_query__E)
                  82832a40    00000020     app_pe66.oe66 (.text:ti_sdo_ipc_heaps_HeapMemMP_Params__init__S)
                  82832a60    00000020     ipc.ae66 : Ipc.obj (.text:ti_sdo_ipc_heaps_HeapMemMP_isBlocking__E)
                  82832a80    00000020              : Ipc.obj (.text:ti_sdo_ipc_notifyDrivers_NotifySetupNull_attach__E)
                  82832aa0    00000020              : Ipc.obj (.text:ti_sdo_ipc_notifyDrivers_NotifySetupNull_numIntLines__E)
                  82832ac0    00000020              : Ipc.obj (.text:ti_sdo_ipc_notifyDrivers_NotifySetupNull_sharedMemReq__E)
                  82832ae0    00000020     app_pe66.oe66 (.text:ti_sdo_ipc_nsremote_NameServerRemoteNotify_Object__first__S)
                  82832b00    00000020     app_pe66.oe66 (.text:ti_sdo_ipc_nsremote_NameServerRemoteNotify_Object__next__S)
                  82832b20    00000020     app_pe66.oe66 (.text:ti_sdo_ipc_nsremote_NameServerRemoteNotify_Params__init__S)
                  82832b40    00000020     app_pe66.oe66 (.text:ti_sdo_ipc_nsremote_NameServerRemoteNotify_delete)
                  82832b60    00000020     ipc.ae66 : Ipc.obj (.text:ti_sdo_ipc_nsremote_NameServerRemoteNotify_sharedMemReq__E)
                  82832b80    00000020              : Ipc.obj (.text:ti_sdo_ipc_transports_TransportShmSetup_isRegistered__E)
                  82832ba0    00000020     app_pe66.oe66 (.text:ti_sdo_ipc_transports_TransportShm_Params__init__S)
                  82832bc0    00000020     ipc.ae66 : Ipc.obj (.text:ti_sdo_ipc_transports_TransportShm_control__E)
                  82832be0    00000020              : Ipc.obj (.text:ti_sdo_ipc_transports_TransportShm_getStatus__E)
                  82832c00    00000020              : Ipc.obj (.text:ti_sdo_ipc_transports_TransportShm_notifyFxn__I)
                  82832c20    00000020              : Ipc.obj (.text:ti_sdo_ipc_transports_TransportShm_setErrFxn__E)
                  82832c40    00000020              : Ipc.obj (.text:ti_sdo_utils_List_Instance_init__E)
                  82832c60    00000020     app_pe66.oe66 (.text:ti_sdo_utils_List_Object__get__S)
                  82832c80    00000020     app_pe66.oe66 (.text:ti_sdo_utils_List_destruct)
                  82832ca0    00000020     ipc.ae66 : Ipc.obj (.text:ti_sdo_utils_List_enqueueHead__E)
                  82832cc0    00000020              : Ipc.obj (.text:ti_sdo_utils_List_enqueue__E)
                  82832ce0    00000020              : Ipc.obj (.text:ti_sdo_utils_List_get__E)
                  82832d00    00000020              : Ipc.obj (.text:ti_sdo_utils_List_next__E)
                  82832d20    00000020              : Ipc.obj (.text:ti_sdo_utils_List_putHead__E)
                  82832d40    00000020              : Ipc.obj (.text:ti_sdo_utils_List_put__E)
                  82832d60    00000020              : Ipc.obj (.text:ti_sdo_utils_List_remove__E)
                  82832d80    00000020              : Ipc.obj (.text:ti_sdo_utils_MultiProc_getClusterId__F)
                  82832da0    00000020     app_pe66.oe66 (.text:ti_sdo_utils_NameServer_Module__startupDone__F)
                  82832dc0    00000020     app_pe66.oe66 (.text:ti_sdo_utils_NameServer_Object__first__S)
                  82832de0    00000020     app_pe66.oe66 (.text:ti_sdo_utils_NameServer_Object__next__S)
                  82832e00    00000020     app_pe66.oe66 (.text:ti_sysbios_BIOS_RtsGateProxy_enter__E)
                  82832e20    00000020     app_pe66.oe66 (.text:ti_sysbios_BIOS_RtsGateProxy_leave__E)
                  82832e40    00000020     sysbios.ae66 : BIOS.obj (.text:ti_sysbios_BIOS_exit__E)
                  82832e60    00000020                  : BIOS.obj (.text:ti_sysbios_BIOS_linkedWithIncorrectBootLibrary__E)
                  82832e80    00000020     app_pe66.oe66 (.text:ti_sysbios_BIOS_nullFunc__I)
                  82832ea0    00000020     sysbios.ae66 : BIOS.obj (.text:ti_sysbios_BIOS_setThreadType__E)
                  82832ec0    00000020                  : BIOS.obj (.text:ti_sysbios_BIOS_start__E)
                  82832ee0    00000020     app_pe66.oe66 (.text:ti_sysbios_family_c62_TaskSupport_Module__startupDone__S)
                  82832f00    00000020     sysbios.ae66 : BIOS.obj (.text:ti_sysbios_family_c62_TaskSupport_checkStack__E)
                  82832f20    00000020                  : BIOS.obj (.text:ti_sysbios_family_c62_TaskSupport_getStackAlignment__E)
                  82832f40    00000020     app_pe66.oe66 (.text:ti_sysbios_family_c64p_Hwi_Module__startupDone__F)
                  82832f60    00000020     sysbios.ae66 : BIOS.obj (.text:ti_sysbios_family_c64p_Hwi_clearInterrupt__E)
                  82832f80    00000020                  : BIOS.obj (.text:ti_sysbios_family_c64p_Hwi_startup__E)
                  82832fa0    00000020                  : BIOS.obj (.text:ti_sysbios_family_c64p_Hwi_switchFromBootStack__E)
                  82832fc0    00000020                  : BIOS.obj (.text:ti_sysbios_family_c64p_TimestampProvider_Module_startup__E)
                  82832fe0    00000020                  : BIOS.obj (.text:ti_sysbios_family_c64p_TimestampProvider_get64__E)
                  82833000    00000020                  : BIOS.obj (.text:ti_sysbios_family_c64p_tci6488_TimerSupport_enable__E)
                  82833020    00000020                  : BIOS.obj (.text:ti_sysbios_family_c66_Cache_RTSSynchInv__I)
                  82833040    00000020                  : BIOS.obj (.text:ti_sysbios_family_c66_Cache_RTSSynchWbInv__I)
                  82833060    00000020                  : BIOS.obj (.text:ti_sysbios_family_c66_Cache_RTSSynchWb__I)
                  82833080    00000020                  : BIOS.obj (.text:ti_sysbios_family_c66_Cache_inv__E)
                  828330a0    00000020                  : BIOS.obj (.text:ti_sysbios_family_c66_Cache_wait__E)
                  828330c0    00000020                  : BIOS.obj (.text:ti_sysbios_family_c66_Cache_wbInv__E)
                  828330e0    00000020                  : BIOS.obj (.text:ti_sysbios_family_c66_tci66xx_CpIntc_enableHostInt__E)
                  82833100    00000020                  : BIOS.obj (.text:ti_sysbios_gates_GateAll_Instance_init__E)
                  82833120    00000020                  : BIOS.obj (.text:ti_sysbios_gates_GateAll_query__E)
                  82833140    00000020                  : BIOS.obj (.text:ti_sysbios_gates_GateHwi_Instance_init__E)
                  82833160    00000020                  : BIOS.obj (.text:ti_sysbios_gates_GateHwi_enter__E)
                  82833180    00000020                  : BIOS.obj (.text:ti_sysbios_gates_GateHwi_leave__E)
                  828331a0    00000020                  : BIOS.obj (.text:ti_sysbios_gates_GateHwi_query__E)
                  828331c0    00000020                  : BIOS.obj (.text:ti_sysbios_gates_GateMutexPri_Instance_finalize__E)
                  828331e0    00000020                  : BIOS.obj (.text:ti_sysbios_gates_GateMutexPri_query__E)
                  82833200    00000020                  : BIOS.obj (.text:ti_sysbios_gates_GateMutex_Instance_finalize__E)
                  82833220    00000020                  : BIOS.obj (.text:ti_sysbios_gates_GateMutex_query__E)
                  82833240    00000020                  : BIOS.obj (.text:ti_sysbios_gates_GateSwi_Instance_init__E)
                  82833260    00000020                  : BIOS.obj (.text:ti_sysbios_gates_GateSwi_query__E)
                  82833280    00000020                  : BIOS.obj (.text:ti_sysbios_hal_Hwi_Module_startup__E)
                  828332a0    00000020     app_pe66.oe66 (.text:ti_sysbios_heaps_HeapMem_Module_GateProxy_enter__E)
                  828332c0    00000020     app_pe66.oe66 (.text:ti_sysbios_heaps_HeapMem_Module_GateProxy_leave__E)
                  828332e0    00000020     sysbios.ae66 : BIOS.obj (.text:ti_sysbios_heaps_HeapMem_isBlocking__E)
                  82833300    00000020     app_pe66.oe66 (.text:ti_sysbios_knl_Clock_TimerProxy_getMaxTicks__E)
                  82833320    00000020     sysbios.ae66 : BIOS.obj (.text:ti_sysbios_knl_Idle_loop__E)
                  82833340    00000020                  : BIOS.obj (.text:ti_sysbios_knl_Queue_Instance_init__E)
                  82833360    00000020     app_pe66.oe66 (.text:ti_sysbios_knl_Queue_Object__get__S)
                  82833380    00000020     app_pe66.oe66 (.text:ti_sysbios_knl_Queue_destruct)
                  828333a0    00000020     sysbios.ae66 : BIOS.obj (.text:ti_sysbios_knl_Queue_empty__E)
                  828333c0    00000020                  : BIOS.obj (.text:ti_sysbios_knl_Semaphore_Instance_finalize__E)
                  828333e0    00000020     app_pe66.oe66 (.text:ti_sysbios_knl_Semaphore_Params__init__S)
                  82833400    00000020     app_pe66.oe66 (.text:ti_sysbios_knl_Semaphore_delete)
                  82833420    00000020     app_pe66.oe66 (.text:ti_sysbios_knl_Swi_Params__init__S)
                  82833440    00000020     sysbios.ae66 : BIOS.obj (.text:ti_sysbios_knl_Swi_disable__E)
                  82833460    00000020                  : BIOS.obj (.text:ti_sysbios_knl_Task_disable__E)
                  82833480    00000020                  : BIOS.obj (.text:ti_sysbios_knl_Task_startup__E)
                  828334a0    00000020                  : BIOS.obj (.text:ti_sysbios_syncs_SyncSem_Instance_finalize__E)
                  828334c0    00000020     app_pe66.oe66 (.text:ti_sysbios_syncs_SyncSem_delete)
                  828334e0    00000020     sysbios.ae66 : BIOS.obj (.text:ti_sysbios_syncs_SyncSem_query__E)
                  82833500    00000020                  : BIOS.obj (.text:ti_sysbios_syncs_SyncSem_signal__E)
                  82833520    00000020     app_pe66.oe66 (.text:ti_sysbios_timers_timer64_Timer_Module__startupDone__F)
                  82833540    00000020     sysbios.ae66 : BIOS.obj (.text:ti_sysbios_timers_timer64_Timer_getMaxTicks__E)
                  82833560    00000020                  : BIOS.obj (.text:ti_sysbios_xdcruntime_GateThreadSupport_Instance_finalize__E)
                  82833580    00000020                  : BIOS.obj (.text:ti_sysbios_xdcruntime_GateThreadSupport_Instance_init__E)
                  828335a0    00000020                  : BIOS.obj (.text:ti_sysbios_xdcruntime_GateThreadSupport_enter__E)
                  828335c0    00000020     ti.targets.rts6000.ae66 : Error.oe66 (.text:xdc_runtime_Error_getSite__E)
                  828335e0    00000020                             : Error.oe66 (.text:xdc_runtime_Error_raiseX__E)
                  82833600    00000020                             : GateNull.oe66 (.text:xdc_runtime_GateNull_enter__E)
                  82833620    00000020                             : GateNull.oe66 (.text:xdc_runtime_GateNull_leave__E)
                  82833640    00000020                             : GateNull.oe66 (.text:xdc_runtime_GateNull_query__E)
                  82833660    00000020                             : Gate.oe66 (.text:xdc_runtime_Gate_enterSystem__E)
                  82833680    00000020                             : Gate.oe66 (.text:xdc_runtime_Gate_leaveSystem__E)
                  828336a0    00000020     app_pe66.oe66 (.text:xdc_runtime_IHeap_alloc)
                  828336c0    00000020     app_pe66.oe66 (.text:xdc_runtime_IHeap_free)
                  828336e0    00000020     app_pe66.oe66 (.text:xdc_runtime_LoggerBuf_Module_GateProxy_enter__E)
                  82833700    00000020     app_pe66.oe66 (.text:xdc_runtime_LoggerBuf_Module_GateProxy_leave__E)
                  82833720    00000020     ti.targets.rts6000.ae66 : LoggerBuf.oe66 (.text:xdc_runtime_LoggerBuf_disable__E)
                  82833740    00000020                             : LoggerBuf.oe66 (.text:xdc_runtime_LoggerBuf_enable__E)
                  82833760    00000020                             : Memory.oe66 (.text:xdc_runtime_Memory_calloc__E)
                  82833780    00000020                             : Memory.oe66 (.text:xdc_runtime_Memory_free__E)
                  828337a0    00000020                             : Memory.oe66 (.text:xdc_runtime_Memory_getMaxDefaultTypeAlign__E)
                  828337c0    00000020     app_pe66.oe66 (.text:xdc_runtime_Startup_Module__startupDone__S)
                  828337e0    00000020     app_pe66.oe66 (.text:xdc_runtime_Startup_exec__I)
                  82833800    00000020     ti.targets.rts6000.ae66 : Startup.oe66 (.text:xdc_runtime_Startup_rtsDone__E)
                  82833820    00000020                             : SysMin.oe66 (.text:xdc_runtime_SysMin_ready__E)
                  82833840    00000020     app_pe66.oe66 (.text:xdc_runtime_System_Module_GateProxy_enter__E)
                  82833860    00000020     app_pe66.oe66 (.text:xdc_runtime_System_Module_GateProxy_leave__E)
                  82833880    00000020     ti.targets.rts6000.ae66 : System.oe66 (.text:xdc_runtime_System_Module_startup__E)
                  828338a0    00000020                             : System.oe66 (.text:xdc_runtime_System_vsnprintf__E)
                  828338c0    00000020                             : Text.oe66 (.text:xdc_runtime_Text_ropeText__E)
                  828338e0    00000020     app_pe66.oe66 (.text:xdc_runtime_Text_visitRope__I)
                  82833900    00000020     ti.targets.rts6000.ae66 : GateThread.oe66 (.text:xdc_runtime_knl_GateThread_Instance_finalize__E)
                  82833920    00000020     app_pe66.oe66 (.text:xdc_runtime_knl_GateThread_Module__startupDone__S)
                  82833940    00000020     app_pe66.oe66 (.text:xdc_runtime_knl_GateThread_Proxy_create)
                  82833960    00000020     app_pe66.oe66 (.text:xdc_runtime_knl_GateThread_Proxy_delete)
                  82833980    00000020     app_pe66.oe66 (.text:xdc_runtime_knl_GateThread_Proxy_enter__E)
                  828339a0    00000020     app_pe66.oe66 (.text:xdc_runtime_knl_GateThread_Proxy_leave__E)
                  828339c0    00000020     ti.targets.rts6000.ae66 : GateThread.oe66 (.text:xdc_runtime_knl_GateThread_enter__E)
                  828339e0    00000020                             : GateThread.oe66 (.text:xdc_runtime_knl_GateThread_leave__E)

.far       0    82833a00    000112c2     UNINITIALIZED
                  82833a00    0000c800     (.common:ti_sysbios_heaps_HeapMem_Instance_State_0_buf__A)
                  82840200    00004000     app_pe66.oe66 (.far:taskStackSection)
                  82844200    000005a8     ti.drv.qmss.ae66 : qmss_drv.oe66 (.far:local:uninit)
                  828447a8    00000200     (.common:xdc_runtime_LoggerBuf_Instance_State_0_entryArr__A)
                  828449a8    00000200     (.common:xdc_runtime_SysMin_Module_State_0_outbuf__A)
                  82844ba8    000000f0     (.common:gDataBufferMemMgr)
                  82844c98    0000001c     (.common:rxQueHnd)
                  82844cb4    00000004     --HOLE--
                  82844cb8    00000008     (.common:parmbuf)
                  82844cc0    00000002                      : qmss_drv.oe66 (.far:local:init)

.const     0    82844cc8    00005b00     
                  82844cc8    00002da6     app_pe66.oe66 (.const:xdc_runtime_Text_charTab__A)
                  82847a6e    00000002     app_pe66.oe66 (.const:ti_sdo_ipc_GateMP_Module__id__C)
                  82847a70    00000794     ti.drv.srio.ae66 : srio_drv.oe66 (.const:.string)
                  82848204    00000518     sysbios.ae66 : BIOS.obj (.const:.string)
                  8284871c    00000004     core_2_core_interface.obj (.const:$P$T0$1)
                  82848720    00000400     app_pe66.oe66 (.const:ti_sysbios_family_c66_Cache_marvalues__C)
                  82848b20    00000264     qmss_init.obj (.const:.string)
                  82848d84    00000004     ti.targets.rts6000.ae66 : Assert.oe66 (.const:.string)
                  82848d88    00000180     app_pe66.oe66 (.const:xdc_runtime_Text_nodeTab__A)
                  82848f08    0000017c     main.obj (.const:.string)
                  82849084    00000004     app_pe66.oe66 (.const:ti_sdo_ipc_GateMP_A_invalidClose__C)
                  82849088    00000140     app_pe66.oe66 (.const:ti_sysbios_family_c66_tci66xx_CpIntc_sysIntToHostInt__A)
                  828491c8    00000118     srio_laneconfig.obj (.const:.string)
                  828492e0    00000101     rts6600_elf.lib : ctype.c.obj (.const:.string:_ctypes_)
                  828493e1    00000001     app_pe66.oe66 (.const:ti_sysbios_timers_timer64_Timer_localTimerBaseId__C)
                  828493e2    00000002     app_pe66.oe66 (.const:ti_sdo_ipc_GateMP_Module__loggerDefined__C)
                  828493e4    000000f8     srio_init.obj (.const:.string)
                  828494dc    000000c8     app_pe66.oe66 (.const:.string)
                  828495a4    00000068     core_2_core_interface.obj (.const:.string)
                  8284960c    00000058     ti.targets.rts6000.ae66 : Error.oe66 (.const:.string)
                  82849664    00000004     app_pe66.oe66 (.const:ti_sdo_ipc_GateMP_A_invalidDelete__C)
                  82849668    00000048     app_pe66.oe66 (.const:xdc_runtime_Startup_sfxnTab__A)
                  828496b0    00000044     app_pe66.oe66 (.const:ti_sysbios_knl_Task_Object__PARAMS__C)
                  828496f4    00000040     ti.targets.rts6000.ae66 : Text.oe66 (.const:.string)
                  82849734    0000003c     app_pe66.oe66 (.const:xdc_runtime_LoggerBuf_Module__FXNS__C)
                  82849770    00000034     app_pe66.oe66 (.const:ti_sdo_ipc_GateMP_Object__PARAMS__C)
                  828497a4    00000030     app_pe66.oe66 (.const:ti_sdo_ipc_heaps_HeapMemMP_Object__PARAMS__C)
                  828497d4    0000002c     ti.targets.rts6000.ae66 : Startup.oe66 (.const:.string)
                  82849800    0000002c     app_pe66.oe66 (.const:ti_sdo_ipc_ListMP_Object__PARAMS__C)
                  8284982c    0000002c     app_pe66.oe66 (.const:ti_sdo_ipc_gates_GateHWSem_Module__FXNS__C)
                  82849858    0000002c     app_pe66.oe66 (.const:ti_sdo_ipc_gates_GateMPSupportNull_Module__FXNS__C)
                  82849884    0000002c     app_pe66.oe66 (.const:ti_sdo_ipc_gates_GatePeterson_Module__FXNS__C)
                  828498b0    00000028     app_pe66.oe66 (.const:ti_sdo_ipc_heaps_HeapMemMP_Module__FXNS__C)
                  828498d8    00000028     app_pe66.oe66 (.const:ti_sdo_ipc_nsremote_NameServerRemoteNotify_Module__FXNS__C)
                  82849900    00000028     app_pe66.oe66 (.const:ti_sdo_ipc_transports_TransportShm_Module__FXNS__C)
                  82849928    00000028     app_pe66.oe66 (.const:ti_sdo_ipc_transports_TransportShm_Object__PARAMS__C)
                  82849950    00000028     app_pe66.oe66 (.const:ti_sysbios_heaps_HeapMem_Module__FXNS__C)
                  82849978    00000028     app_pe66.oe66 (.const:ti_sysbios_knl_Swi_Object__PARAMS__C)
                  828499a0    00000028     app_pe66.oe66 (.const:xdc_runtime_LoggerBuf_Object__PARAMS__C)
                  828499c8    00000024     init.obj (.const:.string)
                  828499ec    00000024     ipc.ae66 : Ipc.obj (.const:.string)
                  82849a10    00000024     rts6600_elf.lib : _printfi.c.obj (.const:.string)
                  82849a34    00000024     app_pe66.oe66 (.const:ti_sdo_ipc_gates_GateHWSem_Object__PARAMS__C)
                  82849a58    00000024     app_pe66.oe66 (.const:ti_sdo_ipc_gates_GateMPSupportNull_Object__PARAMS__C)
                  82849a7c    00000024     app_pe66.oe66 (.const:ti_sdo_ipc_gates_GatePeterson_Object__PARAMS__C)
                  82849aa0    00000024     app_pe66.oe66 (.const:ti_sysbios_gates_GateAll_Module__FXNS__C)
                  82849ac4    00000024     app_pe66.oe66 (.const:ti_sysbios_gates_GateHwi_Module__FXNS__C)
                  82849ae8    00000024     app_pe66.oe66 (.const:ti_sysbios_gates_GateMutexPri_Module__FXNS__C)
                  82849b0c    00000024     app_pe66.oe66 (.const:ti_sysbios_gates_GateMutex_Module__FXNS__C)
                  82849b30    00000024     app_pe66.oe66 (.const:ti_sysbios_gates_GateSwi_Module__FXNS__C)
                  82849b54    00000024     app_pe66.oe66 (.const:ti_sysbios_heaps_HeapMem_Object__PARAMS__C)
                  82849b78    00000024     app_pe66.oe66 (.const:ti_sysbios_knl_Semaphore_Object__PARAMS__C)
                  82849b9c    00000024     app_pe66.oe66 (.const:ti_sysbios_syncs_SyncSem_Module__FXNS__C)
                  82849bc0    00000024     app_pe66.oe66 (.const:xdc_runtime_GateNull_Module__FXNS__C)
                  82849be4    00000004     app_pe66.oe66 (.const:ti_sdo_ipc_GateMP_E_gateUnavailable__C)
                  82849be8    00000024     app_pe66.oe66 (.const:xdc_runtime_Startup_sfxnRts__A)
                  82849c0c    00000024     app_pe66.oe66 (.const:xdc_runtime_knl_GateThread_Module__FXNS__C)
                  82849c30    00000020     qmss_init.obj (.const:rxQueNum)
                  82849c50    00000020     app_pe66.oe66 (.const:ti_sdo_ipc_GateMP_Object__DESC__C)
                  82849c70    00000020     app_pe66.oe66 (.const:ti_sdo_ipc_ListMP_Object__DESC__C)
                  82849c90    00000020     app_pe66.oe66 (.const:ti_sdo_ipc_MessageQ_Object__DESC__C)
                  82849cb0    00000020     app_pe66.oe66 (.const:ti_sdo_ipc_MessageQ_Object__PARAMS__C)
                  82849cd0    00000020     app_pe66.oe66 (.const:ti_sdo_ipc_Notify_Object__DESC__C)
                  82849cf0    00000020     app_pe66.oe66 (.const:ti_sdo_ipc_gates_GateHWSem_Object__DESC__C)
                  82849d10    00000020     app_pe66.oe66 (.const:ti_sdo_ipc_gates_GateMPSupportNull_Object__DESC__C)
                  82849d30    00000020     app_pe66.oe66 (.const:ti_sdo_ipc_gates_GatePeterson_Object__DESC__C)
                  82849d50    00000020     app_pe66.oe66 (.const:ti_sdo_ipc_heaps_HeapMemMP_Object__DESC__C)
                  82849d70    00000020     app_pe66.oe66 (.const:ti_sdo_ipc_nsremote_NameServerRemoteNotify_Object__DESC__C)
                  82849d90    00000020     app_pe66.oe66 (.const:ti_sdo_ipc_nsremote_NameServerRemoteNotify_Object__PARAMS__C)
                  82849db0    00000020     app_pe66.oe66 (.const:ti_sdo_ipc_transports_TransportShm_Object__DESC__C)
                  82849dd0    00000020     app_pe66.oe66 (.const:ti_sdo_utils_List_Object__DESC__C)
                  82849df0    00000020     app_pe66.oe66 (.const:ti_sysbios_family_c66_tci66xx_CpIntc_hostIntToEventId__A)
                  82849e10    00000020     app_pe66.oe66 (.const:ti_sysbios_gates_GateAll_Object__DESC__C)
                  82849e30    00000020     app_pe66.oe66 (.const:ti_sysbios_gates_GateHwi_Object__DESC__C)
                  82849e50    00000020     app_pe66.oe66 (.const:ti_sysbios_gates_GateMutexPri_Object__DESC__C)
                  82849e70    00000020     app_pe66.oe66 (.const:ti_sysbios_gates_GateMutex_Object__DESC__C)
                  82849e90    00000020     app_pe66.oe66 (.const:ti_sysbios_gates_GateSwi_Object__DESC__C)
                  82849eb0    00000020     app_pe66.oe66 (.const:ti_sysbios_heaps_HeapMem_Object__DESC__C)
                  82849ed0    00000020     app_pe66.oe66 (.const:ti_sysbios_knl_Queue_Object__DESC__C)
                  82849ef0    00000020     app_pe66.oe66 (.const:ti_sysbios_knl_Semaphore_Object__DESC__C)
                  82849f10    00000020     app_pe66.oe66 (.const:ti_sysbios_knl_Swi_Object__DESC__C)
                  82849f30    00000020     app_pe66.oe66 (.const:ti_sysbios_knl_Task_Object__DESC__C)
                  82849f50    00000020     app_pe66.oe66 (.const:ti_sysbios_syncs_SyncSem_Object__DESC__C)
                  82849f70    00000020     app_pe66.oe66 (.const:ti_sysbios_xdcruntime_GateThreadSupport_Object__DESC__C)
                  82849f90    00000020     app_pe66.oe66 (.const:xdc_runtime_GateNull_Object__DESC__C)
                  82849fb0    00000020     app_pe66.oe66 (.const:xdc_runtime_LoggerBuf_Object__DESC__C)
                  82849fd0    00000020     app_pe66.oe66 (.const:xdc_runtime_knl_GateThread_Object__DESC__C)
                  82849ff0    0000001c     app_pe66.oe66 (.const:ti_sysbios_syncs_SyncSem_Object__PARAMS__C)
                  8284a00c    00000004     app_pe66.oe66 (.const:ti_sdo_ipc_GateMP_E_localGate__C)
                  8284a010    00000019     app_pe66.oe66 (.const:ti_sysbios_family_c66_tci66xx_CpIntc_eventId__A)
                  8284a029    00000001     --HOLE-- [fill = 0]
                  8284a02a    00000002     app_pe66.oe66 (.const:ti_sdo_ipc_Ipc_Module__id__C)
                  8284a02c    00000004     app_pe66.oe66 (.const:ti_sdo_ipc_GateMP_LM_create__C)
                  8284a030    00000019     app_pe66.oe66 (.const:ti_sysbios_family_c66_tci66xx_CpIntc_hostIntToEventId_0__A)
                  8284a049    00000001     --HOLE-- [fill = 0]
                  8284a04a    00000002     app_pe66.oe66 (.const:ti_sdo_ipc_Ipc_generateSlaveDataForHost__C)
                  8284a04c    00000004     app_pe66.oe66 (.const:ti_sdo_ipc_GateMP_LM_delete__C)
                  8284a050    00000019     app_pe66.oe66 (.const:ti_sysbios_family_c66_tci66xx_CpIntc_hostIntToEventId_1__A)
                  8284a069    00000001     --HOLE-- [fill = 0]
                  8284a06a    00000002     app_pe66.oe66 (.const:ti_sdo_ipc_ListMP_Module__id__C)
                  8284a06c    00000004     app_pe66.oe66 (.const:ti_sdo_ipc_GateMP_LM_enter__C)
                  8284a070    00000019     app_pe66.oe66 (.const:ti_sysbios_family_c66_tci66xx_CpIntc_hostIntToEventId_2__A)
                  8284a089    00000001     --HOLE-- [fill = 0]
                  8284a08a    00000002     app_pe66.oe66 (.const:ti_sdo_ipc_MessageQ_Module__id__C)
                  8284a08c    00000004     app_pe66.oe66 (.const:ti_sdo_ipc_GateMP_LM_leave__C)
                  8284a090    00000019     app_pe66.oe66 (.const:ti_sysbios_family_c66_tci66xx_CpIntc_hostIntToEventId_3__A)
                  8284a0a9    00000001     --HOLE-- [fill = 0]
                  8284a0aa    00000002     app_pe66.oe66 (.const:ti_sdo_ipc_MessageQ_Module__loggerDefined__C)
                  8284a0ac    00000004     app_pe66.oe66 (.const:ti_sdo_ipc_GateMP_LM_open__C)
                  8284a0b0    00000019     app_pe66.oe66 (.const:ti_sysbios_family_c66_tci66xx_CpIntc_hostIntToEventId_4__A)
                  8284a0c9    00000001     --HOLE-- [fill = 0]
                  8284a0ca    00000002     app_pe66.oe66 (.const:ti_sdo_ipc_Notify_Module__id__C)
                  8284a0cc    00000004     app_pe66.oe66 (.const:ti_sdo_ipc_GateMP_Module__diagsEnabled__C)
                  8284a0d0    00000019     app_pe66.oe66 (.const:ti_sysbios_family_c66_tci66xx_CpIntc_hostIntToEventId_5__A)
                  8284a0e9    00000001     --HOLE-- [fill = 0]
                  8284a0ea    00000002     app_pe66.oe66 (.const:ti_sdo_ipc_Notify_numLines__C)
                  8284a0ec    00000004     app_pe66.oe66 (.const:ti_sdo_ipc_GateMP_Module__diagsIncluded__C)
                  8284a0f0    00000019     app_pe66.oe66 (.const:ti_sysbios_family_c66_tci66xx_CpIntc_hostIntToEventId_6__A)
                  8284a109    00000001     --HOLE-- [fill = 0]
                  8284a10a    00000002     app_pe66.oe66 (.const:ti_sdo_ipc_Notify_reservedEvents__C)
                  8284a10c    00000004     app_pe66.oe66 (.const:ti_sdo_ipc_GateMP_Module__diagsMask__C)
                  8284a110    00000019     app_pe66.oe66 (.const:ti_sysbios_family_c66_tci66xx_CpIntc_hostIntToEventId_7__A)
                  8284a129    00000001     --HOLE-- [fill = 0]
                  8284a12a    00000002     app_pe66.oe66 (.const:ti_sdo_ipc_SharedRegion_Module__id__C)
                  8284a12c    00000004     app_pe66.oe66 (.const:ti_sdo_ipc_GateMP_Module__loggerFxn2__C)
                  8284a130    00000018     srio_init.obj (.const:$P$T0$1)
                  8284a148    00000018     ti.targets.rts6000.ae66 : System.oe66 (.const:.string)
                  8284a160    00000018     app_pe66.oe66 (.const:ti_sdo_ipc_Notify_Object__PARAMS__C)
                  8284a178    00000018     app_pe66.oe66 (.const:ti_sdo_utils_List_Object__PARAMS__C)
                  8284a190    00000018     app_pe66.oe66 (.const:ti_sysbios_gates_GateAll_Object__PARAMS__C)
                  8284a1a8    00000018     app_pe66.oe66 (.const:ti_sysbios_gates_GateHwi_Object__PARAMS__C)
                  8284a1c0    00000018     app_pe66.oe66 (.const:ti_sysbios_gates_GateMutexPri_Object__PARAMS__C)
                  8284a1d8    00000018     app_pe66.oe66 (.const:ti_sysbios_gates_GateMutex_Object__PARAMS__C)
                  8284a1f0    00000018     app_pe66.oe66 (.const:ti_sysbios_gates_GateSwi_Object__PARAMS__C)
                  8284a208    00000018     app_pe66.oe66 (.const:ti_sysbios_knl_Queue_Object__PARAMS__C)
                  8284a220    00000018     app_pe66.oe66 (.const:ti_sysbios_xdcruntime_GateThreadSupport_Object__PARAMS__C)
                  8284a238    00000018     app_pe66.oe66 (.const:xdc_runtime_GateNull_Object__PARAMS__C)
                  8284a250    00000018     app_pe66.oe66 (.const:xdc_runtime_knl_GateThread_Object__PARAMS__C)
                  8284a268    00000010     qmss_init.obj (.const:flowIdNum)
                  8284a278    00000010     app_pe66.oe66 (.const:ti_sysbios_family_c64p_EventCombiner_EVTMASK__C)
                  8284a288    00000008     ti.drv.qmss.ae66 : qmss_drv.oe66 (.const:qmssQueueFree)
                  8284a290    00000008                      : qmss_drv.oe66 (.const:qmssQueueFreeSize)
                  8284a298    00000008     app_pe66.oe66 (.const:ti_sysbios_knl_Idle_funcList__C)
                  8284a2a0    00000008     app_pe66.oe66 (.const:xdc_runtime_Startup_firstFxns__A)
                  8284a2a8    00000008     app_pe66.oe66 (.const:xdc_runtime_Startup_firstFxns__C)
                  8284a2b0    00000008     app_pe66.oe66 (.const:xdc_runtime_Startup_lastFxns__C)
                  8284a2b8    00000004     app_pe66.oe66 (.const:ti_sdo_ipc_GateMP_Module__loggerFxn4__C)
                  8284a2bc    00000004     app_pe66.oe66 (.const:ti_sdo_ipc_GateMP_Module__loggerObj__C)
                  8284a2c0    00000004     app_pe66.oe66 (.const:ti_sdo_ipc_Ipc_A_addrNotCacheAligned__C)
                  8284a2c4    00000004     app_pe66.oe66 (.const:ti_sdo_ipc_Ipc_A_addrNotInSharedRegion__C)
                  8284a2c8    00000004     app_pe66.oe66 (.const:ti_sdo_ipc_Ipc_A_internal__C)
                  8284a2cc    00000004     app_pe66.oe66 (.const:ti_sdo_ipc_Ipc_A_invArgument__C)
                  8284a2d0    00000004     app_pe66.oe66 (.const:ti_sdo_ipc_Ipc_A_invParam__C)
                  8284a2d4    00000004     app_pe66.oe66 (.const:ti_sdo_ipc_Ipc_A_nullArgument__C)
                  8284a2d8    00000004     app_pe66.oe66 (.const:ti_sdo_ipc_Ipc_A_nullPointer__C)
                  8284a2dc    00000004     app_pe66.oe66 (.const:ti_sdo_ipc_Ipc_E_internal__C)
                  8284a2e0    00000004     app_pe66.oe66 (.const:ti_sdo_ipc_Ipc_E_nameFailed__C)
                  8284a2e4    00000004     app_pe66.oe66 (.const:ti_sdo_ipc_Ipc_E_versionMismatch__C)
                  8284a2e8    00000004     app_pe66.oe66 (.const:ti_sdo_ipc_Ipc_Module__diagsEnabled__C)
                  8284a2ec    00000004     app_pe66.oe66 (.const:ti_sdo_ipc_Ipc_Module__diagsIncluded__C)
                  8284a2f0    00000004     app_pe66.oe66 (.const:ti_sdo_ipc_Ipc_Module__diagsMask__C)
                  8284a2f4    00000004     app_pe66.oe66 (.const:ti_sdo_ipc_Ipc_numUserFxns__C)
                  8284a2f8    00000004     app_pe66.oe66 (.const:ti_sdo_ipc_Ipc_procSync__C)
                  8284a2fc    00000004     app_pe66.oe66 (.const:ti_sdo_ipc_Ipc_userFxns__C)
                  8284a300    00000004     app_pe66.oe66 (.const:ti_sdo_ipc_ListMP_Module__diagsEnabled__C)
                  8284a304    00000004     app_pe66.oe66 (.const:ti_sdo_ipc_ListMP_Module__diagsIncluded__C)
                  8284a308    00000004     app_pe66.oe66 (.const:ti_sdo_ipc_ListMP_Module__diagsMask__C)
                  8284a30c    00000004     app_pe66.oe66 (.const:ti_sdo_ipc_MessageQ_A_invalidMsg__C)
                  8284a310    00000004     app_pe66.oe66 (.const:ti_sdo_ipc_MessageQ_A_invalidObj__C)
                  8284a314    00000004     app_pe66.oe66 (.const:ti_sdo_ipc_MessageQ_A_invalidQueueId__C)
                  8284a318    00000004     app_pe66.oe66 (.const:ti_sdo_ipc_MessageQ_A_procIdInvalid__C)
                  8284a31c    00000004     app_pe66.oe66 (.const:ti_sdo_ipc_MessageQ_A_unregisteredTransport__C)
                  8284a320    00000004     app_pe66.oe66 (.const:ti_sdo_ipc_MessageQ_E_indexNotAvailable__C)
                  8284a324    00000004     app_pe66.oe66 (.const:ti_sdo_ipc_MessageQ_E_maxReached__C)
                  8284a328    00000004     app_pe66.oe66 (.const:ti_sdo_ipc_MessageQ_E_nameFailed__C)
                  8284a32c    00000004     app_pe66.oe66 (.const:ti_sdo_ipc_MessageQ_Instance_State_highList__O)
                  8284a330    00000004     app_pe66.oe66 (.const:ti_sdo_ipc_MessageQ_Instance_State_normalList__O)
                  8284a334    00000004     app_pe66.oe66 (.const:ti_sdo_ipc_MessageQ_LM_putLocal__C)
                  8284a338    00000004     app_pe66.oe66 (.const:ti_sdo_ipc_MessageQ_Module__diagsEnabled__C)
                  8284a33c    00000004     app_pe66.oe66 (.const:ti_sdo_ipc_MessageQ_Module__diagsIncluded__C)
                  8284a340    00000004     app_pe66.oe66 (.const:ti_sdo_ipc_MessageQ_Module__diagsMask__C)
                  8284a344    00000004     app_pe66.oe66 (.const:ti_sdo_ipc_MessageQ_Module__loggerFxn4__C)
                  8284a348    00000004     app_pe66.oe66 (.const:ti_sdo_ipc_MessageQ_Module__loggerObj__C)
                  8284a34c    00000004     app_pe66.oe66 (.const:ti_sdo_ipc_MessageQ_Object__count__C)
                  8284a350    00000004     app_pe66.oe66 (.const:ti_sdo_ipc_MessageQ_Object__heap__C)
                  8284a354    00000004     app_pe66.oe66 (.const:ti_sdo_ipc_MessageQ_maxRuntimeEntries__C)
                  8284a358    00000004     app_pe66.oe66 (.const:ti_sdo_ipc_MessageQ_numReservedEntries__C)
                  8284a35c    00000004     app_pe66.oe66 (.const:ti_sdo_ipc_Notify_A_alreadyRegistered__C)
                  8284a360    00000004     app_pe66.oe66 (.const:ti_sdo_ipc_Notify_A_internal__C)
                  8284a364    00000004     app_pe66.oe66 (.const:ti_sdo_ipc_Notify_A_invArgument__C)
                  8284a368    00000004     app_pe66.oe66 (.const:ti_sdo_ipc_Notify_A_notRegistered__C)
                  8284a36c    00000004     app_pe66.oe66 (.const:ti_sdo_ipc_Notify_A_reservedEvent__C)
                  8284a370    00000004     app_pe66.oe66 (.const:ti_sdo_ipc_Notify_Module__diagsEnabled__C)
                  8284a374    00000004     app_pe66.oe66 (.const:ti_sdo_ipc_Notify_Module__diagsIncluded__C)
                  8284a378    00000004     app_pe66.oe66 (.const:ti_sdo_ipc_Notify_Module__diagsMask__C)
                  8284a37c    00000004     app_pe66.oe66 (.const:ti_sdo_ipc_Notify_Module__gateObj__C)
                  8284a380    00000004     app_pe66.oe66 (.const:ti_sdo_ipc_Notify_Object__heap__C)
                  8284a384    00000004     app_pe66.oe66 (.const:ti_sdo_ipc_Notify_numEvents__C)
                  8284a388    00000004     app_pe66.oe66 (.const:ti_sdo_ipc_SharedRegion_A_addrOutOfRange__C)
                  8284a38c    00000004     app_pe66.oe66 (.const:ti_sdo_ipc_SharedRegion_A_idTooLarge__C)
                  8284a390    00000004     app_pe66.oe66 (.const:ti_sdo_ipc_SharedRegion_A_noHeap__C)
                  8284a394    00000004     app_pe66.oe66 (.const:ti_sdo_ipc_SharedRegion_A_region0Invalid__C)
                  8284a398    00000004     app_pe66.oe66 (.const:ti_sdo_ipc_SharedRegion_A_regionInvalid__C)
                  8284a39c    00000004     app_pe66.oe66 (.const:ti_sdo_ipc_SharedRegion_A_reserveTooMuch__C)
                  8284a3a0    00000004     app_pe66.oe66 (.const:ti_sdo_ipc_SharedRegion_INVALIDSRPTR__C)
                  8284a3a4    00000004     app_pe66.oe66 (.const:ti_sdo_ipc_SharedRegion_Module__diagsEnabled__C)
                  8284a3a8    00000004     app_pe66.oe66 (.const:ti_sdo_ipc_SharedRegion_Module__diagsIncluded__C)
                  8284a3ac    00000004     app_pe66.oe66 (.const:ti_sdo_ipc_SharedRegion_Module__diagsMask__C)
                  8284a3b0    00000004     app_pe66.oe66 (.const:ti_sdo_ipc_SharedRegion_numOffsetBits__C)
                  8284a3b4    00000004     app_pe66.oe66 (.const:ti_sdo_ipc_SharedRegion_offsetMask__C)
                  8284a3b8    00000004     app_pe66.oe66 (.const:ti_sdo_ipc_gates_GateHWSem_A_invSemNum__C)
                  8284a3bc    00000004     app_pe66.oe66 (.const:ti_sdo_ipc_gates_GateHWSem_Module__diagsEnabled__C)
                  8284a3c0    00000004     app_pe66.oe66 (.const:ti_sdo_ipc_gates_GateHWSem_Module__diagsIncluded__C)
                  8284a3c4    00000004     app_pe66.oe66 (.const:ti_sdo_ipc_gates_GateHWSem_Module__diagsMask__C)
                  8284a3c8    00000004     app_pe66.oe66 (.const:ti_sdo_ipc_gates_GateHWSem_baseAddr__C)
                  8284a3cc    00000004     app_pe66.oe66 (.const:ti_sdo_ipc_gates_GateHWSem_numSems__C)
                  8284a3d0    00000004     app_pe66.oe66 (.const:ti_sdo_ipc_gates_GateHWSem_reservedMaskArr__A)
                  8284a3d4    00000004     app_pe66.oe66 (.const:ti_sdo_ipc_gates_GateHWSem_reservedMaskArr__C)
                  8284a3d8    00000004     app_pe66.oe66 (.const:ti_sdo_ipc_gates_GateMPSupportNull_A_invalidAction__C)
                  8284a3dc    00000004     app_pe66.oe66 (.const:ti_sdo_ipc_gates_GateMPSupportNull_Module__diagsEnabled__C)
                  8284a3e0    00000004     app_pe66.oe66 (.const:ti_sdo_ipc_gates_GateMPSupportNull_Module__diagsIncluded__C)
                  8284a3e4    00000004     app_pe66.oe66 (.const:ti_sdo_ipc_gates_GateMPSupportNull_Module__diagsMask__C)
                  8284a3e8    00000004     app_pe66.oe66 (.const:ti_sdo_ipc_gates_GateMPSupportNull_action__C)
                  8284a3ec    00000004     app_pe66.oe66 (.const:ti_sdo_ipc_gates_GatePeterson_E_gateRemotelyOpened__C)
                  8284a3f0    00000004     app_pe66.oe66 (.const:ti_sdo_ipc_gates_GatePeterson_Module__diagsEnabled__C)
                  8284a3f4    00000004     app_pe66.oe66 (.const:ti_sdo_ipc_gates_GatePeterson_Module__diagsIncluded__C)
                  8284a3f8    00000004     app_pe66.oe66 (.const:ti_sdo_ipc_gates_GatePeterson_Module__diagsMask__C)
                  8284a3fc    00000004     app_pe66.oe66 (.const:ti_sdo_ipc_gates_GatePeterson_numInstances__C)
                  8284a400    00000004     app_pe66.oe66 (.const:ti_sdo_ipc_heaps_HeapMemMP_A_align__C)
                  8284a404    00000004     app_pe66.oe66 (.const:ti_sdo_ipc_heaps_HeapMemMP_A_heapSize__C)
                  8284a408    00000004     app_pe66.oe66 (.const:ti_sdo_ipc_heaps_HeapMemMP_A_invalidFree__C)
                  8284a40c    00000004     app_pe66.oe66 (.const:ti_sdo_ipc_heaps_HeapMemMP_A_zeroBlock__C)
                  8284a410    00000004     app_pe66.oe66 (.const:ti_sdo_ipc_heaps_HeapMemMP_E_memory__C)
                  8284a414    00000004     app_pe66.oe66 (.const:ti_sdo_ipc_heaps_HeapMemMP_Module__diagsEnabled__C)
                  8284a418    00000004     app_pe66.oe66 (.const:ti_sdo_ipc_heaps_HeapMemMP_Module__diagsIncluded__C)
                  8284a41c    00000004     app_pe66.oe66 (.const:ti_sdo_ipc_heaps_HeapMemMP_Module__diagsMask__C)
                  8284a420    00000004     app_pe66.oe66 (.const:ti_sdo_ipc_interfaces_IGateMPSupport_Interface__BASE__C)
                  8284a424    00000004     app_pe66.oe66 (.const:ti_sdo_ipc_interfaces_IMessageQTransport_Interface__BASE__C)
                  8284a428    00000004     app_pe66.oe66 (.const:ti_sdo_ipc_interfaces_INetworkTransport_Interface__BASE__C)
                  8284a42c    00000004     app_pe66.oe66 (.const:ti_sdo_ipc_interfaces_ITransport_Interface__BASE__C)
                  8284a430    00000004     app_pe66.oe66 (.const:ti_sdo_ipc_nsremote_NameServerRemoteNotify_A_invalidValueLen__C)
                  8284a434    00000004     app_pe66.oe66 (.const:ti_sdo_ipc_nsremote_NameServerRemoteNotify_A_messageSize__C)
                  8284a438    00000004     app_pe66.oe66 (.const:ti_sdo_ipc_nsremote_NameServerRemoteNotify_Instance_State_semMultiBlock__O)
                  8284a43c    00000004     app_pe66.oe66 (.const:ti_sdo_ipc_nsremote_NameServerRemoteNotify_Instance_State_semRemoteWait__O)
                  8284a440    00000004     app_pe66.oe66 (.const:ti_sdo_ipc_nsremote_NameServerRemoteNotify_Instance_State_swiRequest__O)
                  8284a444    00000004     app_pe66.oe66 (.const:ti_sdo_ipc_nsremote_NameServerRemoteNotify_Instance_State_swiResponse__O)
                  8284a448    00000004     app_pe66.oe66 (.const:ti_sdo_ipc_nsremote_NameServerRemoteNotify_Module__diagsEnabled__C)
                  8284a44c    00000004     app_pe66.oe66 (.const:ti_sdo_ipc_nsremote_NameServerRemoteNotify_Module__diagsIncluded__C)
                  8284a450    00000004     app_pe66.oe66 (.const:ti_sdo_ipc_nsremote_NameServerRemoteNotify_Module__diagsMask__C)
                  8284a454    00000004     app_pe66.oe66 (.const:ti_sdo_ipc_nsremote_NameServerRemoteNotify_notifyEventId__C)
                  8284a458    00000004     app_pe66.oe66 (.const:ti_sdo_ipc_nsremote_NameServerRemoteNotify_timeout__C)
                  8284a45c    00000004     app_pe66.oe66 (.const:ti_sdo_ipc_transports_TransportShmSetup_priority__C)
                  8284a460    00000004     app_pe66.oe66 (.const:ti_sdo_ipc_transports_TransportShm_Instance_State_swiObj__O)
                  8284a464    00000004     app_pe66.oe66 (.const:ti_sdo_ipc_transports_TransportShm_Module__diagsEnabled__C)
                  8284a468    00000004     app_pe66.oe66 (.const:ti_sdo_ipc_transports_TransportShm_Module__diagsIncluded__C)
                  8284a46c    00000004     app_pe66.oe66 (.const:ti_sdo_ipc_transports_TransportShm_Module__diagsMask__C)
                  8284a470    00000004     app_pe66.oe66 (.const:ti_sdo_utils_INameServerRemote_Interface__BASE__C)
                  8284a474    00000004     app_pe66.oe66 (.const:ti_sdo_utils_MultiProc_A_invalidMultiProcId__C)
                  8284a478    00000004     app_pe66.oe66 (.const:ti_sdo_utils_MultiProc_procAddrMode__C)
                  8284a47c    00000004     app_pe66.oe66 (.const:ti_sdo_utils_NameServer_A_invArgument__C)
                  8284a480    00000004     app_pe66.oe66 (.const:ti_sdo_utils_NameServer_A_invalidLen__C)
                  8284a484    00000004     app_pe66.oe66 (.const:ti_sdo_utils_NameServer_E_entryExists__C)
                  8284a488    00000004     app_pe66.oe66 (.const:ti_sdo_utils_NameServer_E_maxReached__C)
                  8284a48c    00000004     app_pe66.oe66 (.const:ti_sdo_utils_NameServer_Instance_State_freeList__O)
                  8284a490    00000004     app_pe66.oe66 (.const:ti_sdo_utils_NameServer_Instance_State_nameList__O)
                  8284a494    00000004     app_pe66.oe66 (.const:ti_sdo_utils_NameServer_Module__diagsEnabled__C)
                  8284a498    00000004     app_pe66.oe66 (.const:ti_sdo_utils_NameServer_Module__diagsIncluded__C)
                  8284a49c    00000004     app_pe66.oe66 (.const:ti_sdo_utils_NameServer_Module__diagsMask__C)
                  8284a4a0    00000004     app_pe66.oe66 (.const:ti_sdo_utils_NameServer_Object__count__C)
                  8284a4a4    00000004     app_pe66.oe66 (.const:ti_sysbios_family_c62_TaskSupport_stackAlignment__C)
                  8284a4a8    00000004     app_pe66.oe66 (.const:ti_sysbios_family_c64p_EventCombiner_A_invalidEventId__C)
                  8284a4ac    00000004     app_pe66.oe66 (.const:ti_sysbios_family_c64p_EventCombiner_EVTRegs__C)
                  8284a4b0    00000004     app_pe66.oe66 (.const:ti_sysbios_family_c64p_EventCombiner_E_unpluggedEvent__C)
                  8284a4b4    00000004     app_pe66.oe66 (.const:ti_sysbios_family_c64p_EventCombiner_Module__diagsEnabled__C)
                  8284a4b8    00000004     app_pe66.oe66 (.const:ti_sysbios_family_c64p_EventCombiner_Module__diagsIncluded__C)
                  8284a4bc    00000004     app_pe66.oe66 (.const:ti_sysbios_family_c64p_EventCombiner_Module__diagsMask__C)
                  8284a4c0    00000004     app_pe66.oe66 (.const:ti_sysbios_family_c64p_Exception_E_exceptionMax__C)
                  8284a4c4    00000004     app_pe66.oe66 (.const:ti_sysbios_family_c64p_Exception_exceptionHook__C)
                  8284a4c8    00000004     app_pe66.oe66 (.const:ti_sysbios_family_c64p_Exception_externalHook__C)
                  8284a4cc    00000004     app_pe66.oe66 (.const:ti_sysbios_family_c64p_Exception_internalHook__C)
                  8284a4d0    00000004     app_pe66.oe66 (.const:ti_sysbios_family_c64p_Exception_nmiHook__C)
                  8284a4d4    00000004     app_pe66.oe66 (.const:ti_sysbios_family_c64p_Hwi_INTRMUX1Address__C)
                  8284a4d8    00000004     app_pe66.oe66 (.const:ti_sysbios_family_c64p_Hwi_LD_end__C)
                  8284a4dc    00000004     app_pe66.oe66 (.const:ti_sysbios_family_c64p_Hwi_LM_begin__C)
                  8284a4e0    00000004     app_pe66.oe66 (.const:ti_sysbios_family_c64p_Hwi_Module__diagsEnabled__C)
                  8284a4e4    00000004     app_pe66.oe66 (.const:ti_sysbios_family_c64p_Hwi_Module__diagsIncluded__C)
                  8284a4e8    00000004     app_pe66.oe66 (.const:ti_sysbios_family_c64p_Hwi_Module__diagsMask__C)
                  8284a4ec    00000004     app_pe66.oe66 (.const:ti_sysbios_family_c64p_Hwi_Module__loggerFxn1__C)
                  8284a4f0    00000004     app_pe66.oe66 (.const:ti_sysbios_family_c64p_Hwi_Module__loggerFxn8__C)
                  8284a4f4    00000004     app_pe66.oe66 (.const:ti_sysbios_family_c64p_Hwi_Module__loggerObj__C)
                  8284a4f8    00000004     app_pe66.oe66 (.const:ti_sysbios_family_c66_Cache_E_invalidL1CacheSize__C)
                  8284a4fc    00000004     app_pe66.oe66 (.const:ti_sysbios_family_c66_Cache_E_invalidL2CacheSize__C)
                  8284a500    00000004     app_pe66.oe66 (.const:ti_sysbios_family_c66_Cache_atomicBlockSize__C)
                  8284a504    00000004     app_pe66.oe66 (.const:ti_sysbios_family_c66_tci66xx_CpIntc_E_unpluggedSysInt__C)
                  8284a508    00000004     app_pe66.oe66 (.const:ti_sysbios_family_c66_tci66xx_CpIntc_eventId__C)
                  8284a50c    00000004     app_pe66.oe66 (.const:ti_sysbios_family_c66_tci66xx_CpIntc_hostIntToEventId__C)
                  8284a510    00000004     app_pe66.oe66 (.const:ti_sysbios_family_c66_tci66xx_CpIntc_numEvents__C)
                  8284a514    00000004     app_pe66.oe66 (.const:ti_sysbios_family_c66_tci66xx_CpIntc_numStatusRegs__C)
                  8284a518    00000004     app_pe66.oe66 (.const:ti_sysbios_family_c66_tci66xx_CpIntc_numSysInts__C)
                  8284a51c    00000004     app_pe66.oe66 (.const:ti_sysbios_family_c66_tci66xx_CpIntc_sysIntToHostInt__C)
                  8284a520    00000004     app_pe66.oe66 (.const:ti_sysbios_gates_GateMutexPri_A_badContext__C)
                  8284a524    00000004     app_pe66.oe66 (.const:ti_sysbios_gates_GateMutexPri_A_enterTaskDisabled__C)
                  8284a528    00000004     app_pe66.oe66 (.const:ti_sysbios_gates_GateMutexPri_Instance_State_pendQ__O)
                  8284a52c    00000004     app_pe66.oe66 (.const:ti_sysbios_gates_GateMutexPri_Module__diagsEnabled__C)
                  8284a530    00000004     app_pe66.oe66 (.const:ti_sysbios_gates_GateMutexPri_Module__diagsIncluded__C)
                  8284a534    00000004     app_pe66.oe66 (.const:ti_sysbios_gates_GateMutexPri_Module__diagsMask__C)
                  8284a538    00000004     app_pe66.oe66 (.const:ti_sysbios_gates_GateMutex_A_badContext__C)
                  8284a53c    00000004     app_pe66.oe66 (.const:ti_sysbios_gates_GateMutex_Instance_State_sem__O)
                  8284a540    00000004     app_pe66.oe66 (.const:ti_sysbios_gates_GateMutex_Module__diagsEnabled__C)
                  8284a544    00000004     app_pe66.oe66 (.const:ti_sysbios_gates_GateMutex_Module__diagsIncluded__C)
                  8284a548    00000004     app_pe66.oe66 (.const:ti_sysbios_gates_GateMutex_Module__diagsMask__C)
                  8284a54c    00000004     app_pe66.oe66 (.const:ti_sysbios_gates_GateSwi_A_badContext__C)
                  8284a550    00000004     app_pe66.oe66 (.const:ti_sysbios_gates_GateSwi_Module__diagsEnabled__C)
                  8284a554    00000004     app_pe66.oe66 (.const:ti_sysbios_gates_GateSwi_Module__diagsIncluded__C)
                  8284a558    00000004     app_pe66.oe66 (.const:ti_sysbios_gates_GateSwi_Module__diagsMask__C)
                  8284a55c    00000004     app_pe66.oe66 (.const:ti_sysbios_hal_Hwi_E_stackOverflow__C)
                  8284a560    00000004     app_pe66.oe66 (.const:ti_sysbios_heaps_HeapMem_A_align__C)
                  8284a564    00000004     app_pe66.oe66 (.const:ti_sysbios_heaps_HeapMem_A_heapSize__C)
                  8284a568    00000004     app_pe66.oe66 (.const:ti_sysbios_heaps_HeapMem_A_invalidFree__C)
                  8284a56c    00000004     app_pe66.oe66 (.const:ti_sysbios_heaps_HeapMem_A_zeroBlock__C)
                  8284a570    00000004     app_pe66.oe66 (.const:ti_sysbios_heaps_HeapMem_E_memory__C)
                  8284a574    00000004     app_pe66.oe66 (.const:ti_sysbios_heaps_HeapMem_Module__diagsEnabled__C)
                  8284a578    00000004     app_pe66.oe66 (.const:ti_sysbios_heaps_HeapMem_Module__diagsIncluded__C)
                  8284a57c    00000004     app_pe66.oe66 (.const:ti_sysbios_heaps_HeapMem_Module__diagsMask__C)
                  8284a580    00000004     app_pe66.oe66 (.const:ti_sysbios_heaps_HeapMem_Module__gateObj__C)
                  8284a584    00000004     app_pe66.oe66 (.const:ti_sysbios_heaps_HeapMem_Object__count__C)
                  8284a588    00000004     app_pe66.oe66 (.const:ti_sysbios_heaps_HeapMem_reqAlign__C)
                  8284a58c    00000004     app_pe66.oe66 (.const:ti_sysbios_knl_Clock_LM_begin__C)
                  8284a590    00000004     app_pe66.oe66 (.const:ti_sysbios_knl_Clock_LM_tick__C)
                  8284a594    00000004     app_pe66.oe66 (.const:ti_sysbios_knl_Clock_LW_delayed__C)
                  8284a598    00000004     app_pe66.oe66 (.const:ti_sysbios_knl_Clock_Module_State_clockQ__O)
                  8284a59c    00000004     app_pe66.oe66 (.const:ti_sysbios_knl_Clock_Module__diagsEnabled__C)
                  8284a5a0    00000004     app_pe66.oe66 (.const:ti_sysbios_knl_Clock_Module__diagsIncluded__C)
                  8284a5a4    00000004     app_pe66.oe66 (.const:ti_sysbios_knl_Clock_Module__diagsMask__C)
                  8284a5a8    00000004     app_pe66.oe66 (.const:ti_sysbios_knl_Clock_Module__loggerFxn1__C)
                  8284a5ac    00000004     app_pe66.oe66 (.const:ti_sysbios_knl_Clock_Module__loggerFxn2__C)
                  8284a5b0    00000004     app_pe66.oe66 (.const:ti_sysbios_knl_Clock_Module__loggerObj__C)
                  8284a5b4    00000004     app_pe66.oe66 (.const:ti_sysbios_knl_Clock_tickPeriod__C)
                  8284a5b8    00000004     app_pe66.oe66 (.const:ti_sysbios_knl_Idle_funcList__A)
                  8284a5bc    00000004     app_pe66.oe66 (.const:ti_sysbios_knl_Semaphore_A_badContext__C)
                  8284a5c0    00000004     app_pe66.oe66 (.const:ti_sysbios_knl_Semaphore_A_noEvents__C)
                  8284a5c4    00000004     app_pe66.oe66 (.const:ti_sysbios_knl_Semaphore_A_overflow__C)
                  8284a5c8    00000004     app_pe66.oe66 (.const:ti_sysbios_knl_Semaphore_A_pendTaskDisabled__C)
                  8284a5cc    00000004     app_pe66.oe66 (.const:ti_sysbios_knl_Semaphore_Instance_State_pendQ__O)
                  8284a5d0    00000004     app_pe66.oe66 (.const:ti_sysbios_knl_Semaphore_LM_pend__C)
                  8284a5d4    00000004     app_pe66.oe66 (.const:ti_sysbios_knl_Semaphore_LM_post__C)
                  8284a5d8    00000004     app_pe66.oe66 (.const:ti_sysbios_knl_Semaphore_Module__diagsEnabled__C)
                  8284a5dc    00000004     app_pe66.oe66 (.const:ti_sysbios_knl_Semaphore_Module__diagsIncluded__C)
                  8284a5e0    00000004     app_pe66.oe66 (.const:ti_sysbios_knl_Semaphore_Module__diagsMask__C)
                  8284a5e4    00000004     app_pe66.oe66 (.const:ti_sysbios_knl_Semaphore_Module__loggerFxn2__C)
                  8284a5e8    00000004     app_pe66.oe66 (.const:ti_sysbios_knl_Semaphore_Module__loggerFxn4__C)
                  8284a5ec    00000004     app_pe66.oe66 (.const:ti_sysbios_knl_Semaphore_Module__loggerObj__C)
                  8284a5f0    00000004     app_pe66.oe66 (.const:ti_sysbios_knl_Swi_A_badPriority__C)
                  8284a5f4    00000004     app_pe66.oe66 (.const:ti_sysbios_knl_Swi_LD_end__C)
                  8284a5f8    00000004     app_pe66.oe66 (.const:ti_sysbios_knl_Swi_LM_begin__C)
                  8284a5fc    00000004     app_pe66.oe66 (.const:ti_sysbios_knl_Swi_LM_post__C)
                  8284a600    00000004     app_pe66.oe66 (.const:ti_sysbios_knl_Swi_Module__diagsEnabled__C)
                  8284a604    00000004     app_pe66.oe66 (.const:ti_sysbios_knl_Swi_Module__diagsIncluded__C)
                  8284a608    00000004     app_pe66.oe66 (.const:ti_sysbios_knl_Swi_Module__diagsMask__C)
                  8284a60c    00000004     app_pe66.oe66 (.const:ti_sysbios_knl_Swi_Module__loggerFxn1__C)
                  8284a610    00000004     app_pe66.oe66 (.const:ti_sysbios_knl_Swi_Module__loggerFxn4__C)
                  8284a614    00000004     app_pe66.oe66 (.const:ti_sysbios_knl_Swi_Module__loggerObj__C)
                  8284a618    00000004     app_pe66.oe66 (.const:ti_sysbios_knl_Swi_Object__count__C)
                  8284a61c    00000004     app_pe66.oe66 (.const:ti_sysbios_knl_Task_A_badPriority__C)
                  8284a620    00000004     app_pe66.oe66 (.const:ti_sysbios_knl_Task_A_badTaskState__C)
                  8284a624    00000004     app_pe66.oe66 (.const:ti_sysbios_knl_Task_A_badThreadType__C)
                  8284a628    00000004     app_pe66.oe66 (.const:ti_sysbios_knl_Task_A_badTimeout__C)
                  8284a62c    00000004     app_pe66.oe66 (.const:ti_sysbios_knl_Task_A_noPendElem__C)
                  8284a630    00000004     app_pe66.oe66 (.const:ti_sysbios_knl_Task_A_sleepTaskDisabled__C)
                  8284a634    00000004     app_pe66.oe66 (.const:ti_sysbios_knl_Task_E_spOutOfBounds__C)
                  8284a638    00000004     app_pe66.oe66 (.const:ti_sysbios_knl_Task_E_stackOverflow__C)
                  8284a63c    00000004     app_pe66.oe66 (.const:ti_sysbios_knl_Task_LD_block__C)
                  8284a640    00000004     app_pe66.oe66 (.const:ti_sysbios_knl_Task_LD_exit__C)
                  8284a644    00000004     app_pe66.oe66 (.const:ti_sysbios_knl_Task_LD_ready__C)
                  8284a648    00000004     app_pe66.oe66 (.const:ti_sysbios_knl_Task_LM_setPri__C)
                  8284a64c    00000004     app_pe66.oe66 (.const:ti_sysbios_knl_Task_LM_sleep__C)
                  8284a650    00000004     app_pe66.oe66 (.const:ti_sysbios_knl_Task_LM_switch__C)
                  8284a654    00000004     app_pe66.oe66 (.const:ti_sysbios_knl_Task_Module_State_inactiveQ__O)
                  8284a658    00000004     app_pe66.oe66 (.const:ti_sysbios_knl_Task_Module__diagsEnabled__C)
                  8284a65c    00000004     app_pe66.oe66 (.const:ti_sysbios_knl_Task_Module__diagsIncluded__C)
                  8284a660    00000004     app_pe66.oe66 (.const:ti_sysbios_knl_Task_Module__diagsMask__C)
                  8284a664    00000004     app_pe66.oe66 (.const:ti_sysbios_knl_Task_Module__loggerFxn2__C)
                  8284a668    00000004     app_pe66.oe66 (.const:ti_sysbios_knl_Task_Module__loggerFxn4__C)
                  8284a66c    00000004     app_pe66.oe66 (.const:ti_sysbios_knl_Task_Module__loggerObj__C)
                  8284a670    00000004     app_pe66.oe66 (.const:ti_sysbios_knl_Task_Object__count__C)
                  8284a674    00000004     app_pe66.oe66 (.const:ti_sysbios_knl_Task_allBlockedFunc__C)
                  8284a678    00000004     app_pe66.oe66 (.const:ti_sysbios_knl_Task_defaultStackHeap__C)
                  8284a67c    00000004     app_pe66.oe66 (.const:ti_sysbios_knl_Task_defaultStackSize__C)
                  8284a680    00000004     app_pe66.oe66 (.const:ti_sysbios_knl_Task_numConstructedTasks__C)
                  8284a684    00000004     app_pe66.oe66 (.const:ti_sysbios_syncs_SyncSem_Module__diagsEnabled__C)
                  8284a688    00000004     app_pe66.oe66 (.const:ti_sysbios_syncs_SyncSem_Module__diagsIncluded__C)
                  8284a68c    00000004     app_pe66.oe66 (.const:ti_sysbios_syncs_SyncSem_Module__diagsMask__C)
                  8284a690    00000004     app_pe66.oe66 (.const:ti_sysbios_timers_timer64_Timer_A_notAvailable__C)
                  8284a694    00000004     app_pe66.oe66 (.const:ti_sysbios_timers_timer64_Timer_E_cannotSupport__C)
                  8284a698    00000004     app_pe66.oe66 (.const:ti_sysbios_timers_timer64_Timer_Module__diagsEnabled__C)
                  8284a69c    00000004     app_pe66.oe66 (.const:ti_sysbios_timers_timer64_Timer_Module__diagsIncluded__C)
                  8284a6a0    00000004     app_pe66.oe66 (.const:ti_sysbios_timers_timer64_Timer_Module__diagsMask__C)
                  8284a6a4    00000004     app_pe66.oe66 (.const:ti_sysbios_timers_timer64_Timer_anyMaskHigh__C)
                  8284a6a8    00000004     app_pe66.oe66 (.const:ti_sysbios_timers_timer64_Timer_anyMask__C)
                  8284a6ac    00000004     app_pe66.oe66 (.const:ti_sysbios_timers_timer64_Timer_freqDivisor__C)
                  8284a6b0    00000004     app_pe66.oe66 (.const:ti_sysbios_timers_timer64_Timer_numLocalTimers__C)
                  8284a6b4    00000004     app_pe66.oe66 (.const:ti_sysbios_timers_timer64_Timer_numTimerDevices__C)
                  8284a6b8    00000004     app_pe66.oe66 (.const:ti_sysbios_xdcruntime_GateThreadSupport_Instance_State_gate__O)
                  8284a6bc    00000004     app_pe66.oe66 (.const:xdc_runtime_Assert_E_assertFailed__C)
                  8284a6c0    00000004     app_pe66.oe66 (.const:xdc_runtime_Core_A_initializedParams__C)
                  8284a6c4    00000004     app_pe66.oe66 (.const:xdc_runtime_Core_Module__diagsEnabled__C)
                  8284a6c8    00000004     app_pe66.oe66 (.const:xdc_runtime_Core_Module__diagsIncluded__C)
                  8284a6cc    00000004     app_pe66.oe66 (.const:xdc_runtime_Core_Module__diagsMask__C)
                  8284a6d0    00000004     app_pe66.oe66 (.const:xdc_runtime_Error_E_memory__C)
                  8284a6d4    00000004     app_pe66.oe66 (.const:xdc_runtime_Error_Module__diagsEnabled__C)
                  8284a6d8    00000004     app_pe66.oe66 (.const:xdc_runtime_Error_Module__diagsIncluded__C)
                  8284a6dc    00000004     app_pe66.oe66 (.const:xdc_runtime_Error_Module__diagsMask__C)
                  8284a6e0    00000004     app_pe66.oe66 (.const:xdc_runtime_Error_Module__loggerFxn8__C)
                  8284a6e4    00000004     app_pe66.oe66 (.const:xdc_runtime_Error_Module__loggerObj__C)
                  8284a6e8    00000004     app_pe66.oe66 (.const:xdc_runtime_Error_policyFxn__C)
                  8284a6ec    00000004     app_pe66.oe66 (.const:xdc_runtime_Error_policy__C)
                  8284a6f0    00000004     app_pe66.oe66 (.const:xdc_runtime_Error_raiseHook__C)
                  8284a6f4    00000004     app_pe66.oe66 (.const:xdc_runtime_IFilterLogger_Interface__BASE__C)
                  8284a6f8    00000004     app_pe66.oe66 (.const:xdc_runtime_IGateProvider_Interface__BASE__C)
                  8284a6fc    00000004     app_pe66.oe66 (.const:xdc_runtime_IHeap_Interface__BASE__C)
                  8284a700    00000004     app_pe66.oe66 (.const:xdc_runtime_ILogger_Interface__BASE__C)
                  8284a704    00000004     app_pe66.oe66 (.const:xdc_runtime_IModule_Interface__BASE__C)
                  8284a708    00000004     app_pe66.oe66 (.const:xdc_runtime_Log_L_error__C)
                  8284a70c    00000004     app_pe66.oe66 (.const:xdc_runtime_LoggerBuf_E_badLevel__C)
                  8284a710    00000004     app_pe66.oe66 (.const:xdc_runtime_LoggerBuf_Module__gateObj__C)
                  8284a714    00000004     app_pe66.oe66 (.const:xdc_runtime_LoggerBuf_Object__count__C)
                  8284a718    00000004     app_pe66.oe66 (.const:xdc_runtime_LoggerBuf_statusLogger__C)
                  8284a71c    00000004     app_pe66.oe66 (.const:xdc_runtime_Memory_defaultHeapInstance__C)
                  8284a720    00000004     app_pe66.oe66 (.const:xdc_runtime_Startup_execImpl__C)
                  8284a724    00000004     app_pe66.oe66 (.const:xdc_runtime_Startup_maxPasses__C)
                  8284a728    00000004     app_pe66.oe66 (.const:xdc_runtime_Startup_sfxnRts__C)
                  8284a72c    00000004     app_pe66.oe66 (.const:xdc_runtime_Startup_sfxnTab__C)
                  8284a730    00000004     app_pe66.oe66 (.const:xdc_runtime_SysMin_bufSize__C)
                  8284a734    00000004     app_pe66.oe66 (.const:xdc_runtime_SysMin_outputFunc__C)
                  8284a738    00000004     app_pe66.oe66 (.const:xdc_runtime_System_Module__gateObj__C)
                  8284a73c    00000004     app_pe66.oe66 (.const:xdc_runtime_System_abortFxn__C)
                  8284a740    00000004     app_pe66.oe66 (.const:xdc_runtime_System_exitFxn__C)
                  8284a744    00000004     app_pe66.oe66 (.const:xdc_runtime_System_extendFxn__C)
                  8284a748    00000004     app_pe66.oe66 (.const:xdc_runtime_System_maxAtexitHandlers__C)
                  8284a74c    00000004     app_pe66.oe66 (.const:xdc_runtime_Text_charTab__C)
                  8284a750    00000004     app_pe66.oe66 (.const:xdc_runtime_Text_nameEmpty__C)
                  8284a754    00000004     app_pe66.oe66 (.const:xdc_runtime_Text_nameStatic__C)
                  8284a758    00000004     app_pe66.oe66 (.const:xdc_runtime_Text_nameUnknown__C)
                  8284a75c    00000004     app_pe66.oe66 (.const:xdc_runtime_Text_nodeTab__C)
                  8284a760    00000004     app_pe66.oe66 (.const:xdc_runtime_Text_visitRopeFxn__C)
                  8284a764    00000004     app_pe66.oe66 (.const:xdc_runtime_knl_ISync_Interface__BASE__C)
                  8284a768    00000002     app_pe66.oe66 (.const:ti_sdo_ipc_SharedRegion_numEntries__C)
                  8284a76a    00000002     app_pe66.oe66 (.const:ti_sdo_ipc_SharedRegion_translate__C)
                  8284a76c    00000002     app_pe66.oe66 (.const:ti_sdo_ipc_gates_GateHWSem_Module__id__C)
                  8284a76e    00000002     app_pe66.oe66 (.const:ti_sdo_ipc_gates_GateMPSupportNull_Module__id__C)
                  8284a770    00000002     app_pe66.oe66 (.const:ti_sdo_ipc_gates_GatePeterson_Module__id__C)
                  8284a772    00000002     app_pe66.oe66 (.const:ti_sdo_ipc_heaps_HeapMemMP_Module__id__C)
                  8284a774    00000002     app_pe66.oe66 (.const:ti_sdo_ipc_nsremote_NameServerRemoteNotify_Module__id__C)
                  8284a776    00000002     app_pe66.oe66 (.const:ti_sdo_ipc_transports_TransportShm_Module__id__C)
                  8284a778    00000002     app_pe66.oe66 (.const:ti_sdo_ipc_transports_TransportShm_notifyEventId__C)
                  8284a77a    00000002     app_pe66.oe66 (.const:ti_sdo_utils_MultiProc_numProcessors__C)
                  8284a77c    00000002     app_pe66.oe66 (.const:ti_sdo_utils_MultiProc_numProcsInCluster__C)
                  8284a77e    00000002     app_pe66.oe66 (.const:ti_sdo_utils_NameServer_Module__id__C)
                  8284a780    00000002     app_pe66.oe66 (.const:ti_sysbios_family_c64p_EventCombiner_Module__id__C)
                  8284a782    00000002     app_pe66.oe66 (.const:ti_sysbios_family_c64p_Exception_Module__id__C)
                  8284a784    00000002     app_pe66.oe66 (.const:ti_sysbios_family_c64p_Exception_useInternalBuffer__C)
                  8284a786    00000002     app_pe66.oe66 (.const:ti_sysbios_family_c64p_Hwi_Module__id__C)
                  8284a788    00000002     app_pe66.oe66 (.const:ti_sysbios_family_c64p_Hwi_Module__loggerDefined__C)
                  8284a78a    00000002     app_pe66.oe66 (.const:ti_sysbios_family_c66_Cache_Module__id__C)
                  8284a78c    00000002     app_pe66.oe66 (.const:ti_sysbios_family_c66_Cache_registerRTSSynch__C)
                  8284a78e    00000002     app_pe66.oe66 (.const:ti_sysbios_family_c66_tci66xx_CpIntc_Module__id__C)
                  8284a790    00000002     app_pe66.oe66 (.const:ti_sysbios_gates_GateMutexPri_Module__id__C)
                  8284a792    00000002     app_pe66.oe66 (.const:ti_sysbios_gates_GateMutex_Module__id__C)
                  8284a794    00000002     app_pe66.oe66 (.const:ti_sysbios_gates_GateSwi_Module__id__C)
                  8284a796    00000002     app_pe66.oe66 (.const:ti_sysbios_hal_Hwi_Module__id__C)
                  8284a798    00000002     app_pe66.oe66 (.const:ti_sysbios_heaps_HeapMem_Module__id__C)
                  8284a79a    00000002     app_pe66.oe66 (.const:ti_sysbios_knl_Clock_Module__id__C)
                  8284a79c    00000002     app_pe66.oe66 (.const:ti_sysbios_knl_Clock_Module__loggerDefined__C)
                  8284a79e    00000002     app_pe66.oe66 (.const:ti_sysbios_knl_Semaphore_Module__id__C)
                  8284a7a0    00000002     app_pe66.oe66 (.const:ti_sysbios_knl_Semaphore_Module__loggerDefined__C)
                  8284a7a2    00000002     app_pe66.oe66 (.const:ti_sysbios_knl_Swi_Module__id__C)
                  8284a7a4    00000002     app_pe66.oe66 (.const:ti_sysbios_knl_Swi_Module__loggerDefined__C)
                  8284a7a6    00000002     app_pe66.oe66 (.const:ti_sysbios_knl_Task_Module__id__C)
                  8284a7a8    00000002     app_pe66.oe66 (.const:ti_sysbios_knl_Task_Module__loggerDefined__C)
                  8284a7aa    00000002     app_pe66.oe66 (.const:ti_sysbios_syncs_SyncSem_Module__id__C)
                  8284a7ac    00000002     app_pe66.oe66 (.const:ti_sysbios_timers_timer64_Timer_Module__id__C)
                  8284a7ae    00000002     app_pe66.oe66 (.const:ti_sysbios_timers_timer64_Timer_startupNeeded__C)
                  8284a7b0    00000002     app_pe66.oe66 (.const:ti_sysbios_timers_timer64_Timer_useTimer64pRegMap__C)
                  8284a7b2    00000002     app_pe66.oe66 (.const:xdc_runtime_Core_Module__id__C)
                  8284a7b4    00000002     app_pe66.oe66 (.const:xdc_runtime_Error_Module__loggerDefined__C)
                  8284a7b6    00000002     app_pe66.oe66 (.const:xdc_runtime_Error_maxDepth__C)
                  8284a7b8    00000002     app_pe66.oe66 (.const:xdc_runtime_LoggerBuf_Module__id__C)
                  8284a7ba    00000002     app_pe66.oe66 (.const:xdc_runtime_LoggerBuf_filterByLevel__C)
                  8284a7bc    00000002     app_pe66.oe66 (.const:xdc_runtime_Memory_Module__id__C)
                  8284a7be    00000002     app_pe66.oe66 (.const:xdc_runtime_SysMin_flushAtExit__C)
                  8284a7c0    00000002     app_pe66.oe66 (.const:xdc_runtime_Text_charCnt__C)
                  8284a7c2    00000002     app_pe66.oe66 (.const:xdc_runtime_Text_isLoaded__C)
                  8284a7c4    00000002     app_pe66.oe66 (.const:xdc_runtime_Text_registryModsLastId__C)
                  8284a7c6    00000002     app_pe66.oe66 (.const:xdc_runtime_Text_unnamedModsLastId__C)

.fardata   0    8284a7c8    00004c2a     UNINITIALIZED
                  8284a7c8    00002000     main.obj (.fardata:data)
                  8284c7c8    000009d8     cppi_device.obj (.fardata:cppiGblCPDMACfgParams)
                  8284d1a0    00000800     app_pe66.oe66 (.fardata:ti_sdo_ipc_GateMP_Module_State_0_remoteCustom1Gates__A)
                  8284d9a0    00000500     app_pe66.oe66 (.fardata:ti_sysbios_family_c66_tci66xx_CpIntc_Module_State_0_dispatchTab__A)
                  8284dea0    00000400     app_pe66.oe66 (.fardata:ti_sysbios_family_c64p_EventCombiner_Module__state__V)
                  8284e2a0    000002d0     qmss_device.obj (.fardata:qmssGblCfgParams)
                  8284e570    0000018c     qmss_device.obj (.fardata:GlobalQmGroup0)
                  8284e6fc    00000004     rts6600_elf.lib : _lock.c.obj (.fardata:_lock)
                  8284e700    00000180     app_pe66.oe66 (.fardata:ti_sysbios_timers_timer64_Timer_Module_State_0_device__A)
                  8284e880    000000f0     app_pe66.oe66 (.fardata:ti_sdo_utils_NameServer_Object__table__V)
                  8284e970    00000098     app_pe66.oe66 (.fardata:ti_sysbios_family_c66_tci66xx_CpIntc_Module_State_0_hostIntToSysInt__A)
                  8284ea08    00000090     app_pe66.oe66 (.fardata:ti_sdo_ipc_SharedRegion_Module_State_0_regions__A)
                  8284ea98    00000080     app_pe66.oe66 (.fardata:ti_sdo_ipc_GateMP_Module_State_0_remoteSystemGates__A)
                  8284eb18    00000080     app_pe66.oe66 (.fardata:ti_sysbios_knl_Swi_Module_State_0_readyQ__A)
                  8284eb98    00000080     app_pe66.oe66 (.fardata:ti_sysbios_knl_Task_Module_State_0_readyQ__A)
                  8284ec18    00000080     app_pe66.oe66 (.fardata:ti_sysbios_timers_timer64_Timer_Module_State_0_gctrl__A)
                  8284ec98    00000080     app_pe66.oe66 (.fardata:ti_sysbios_timers_timer64_Timer_Module_State_0_handles__A)
                  8284ed18    00000080     app_pe66.oe66 (.fardata:ti_sysbios_timers_timer64_Timer_Module_State_0_intFreqs__A)
                  8284ed98    0000006c     app_pe66.oe66 (.fardata:ti_sysbios_family_c64p_Hwi_Module__state__V)
                  8284ee04    00000068     app_pe66.oe66 (.fardata:ti_sdo_ipc_MessageQ_Module__state__V)
                  8284ee6c    00000004     rts6600_elf.lib : _lock.c.obj (.fardata:_unlock)
                  8284ee70    0000005c     app_pe66.oe66 (.fardata:ti_sysbios_knl_Task_Object__table__V)
                  8284eecc    00000050     app_pe66.oe66 (.fardata:ti_sdo_ipc_GateMP_Module__state__V)
                  8284ef1c    00000004     rts6600_elf.lib : errno.c.obj (.fardata)
                  8284ef20    00000050     app_pe66.oe66 (.fardata:ti_sysbios_timers_timer64_Timer_Object__table__V)
                  8284ef70    00000048     app_pe66.oe66 (.fardata:ti_sysbios_knl_Task_Module__state__V)
                  8284efb8    00000040     app_pe66.oe66 (.fardata:ti_sysbios_gates_GateMutex_Object__table__V)
                  8284eff8    00000030     app_pe66.oe66 (.fardata:ti_sysbios_family_c64p_Exception_Module__state__V)
                  8284f028    00000030     app_pe66.oe66 (.fardata:ti_sysbios_knl_Swi_Object__table__V)
                  8284f058    0000002c     app_pe66.oe66 (.fardata:ti_sysbios_knl_Clock_Module__state__V)
                  8284f084    00000024     app_pe66.oe66 (.fardata:ti_sysbios_BIOS_Module__state__V)
                  8284f0a8    00000024     app_pe66.oe66 (.fardata:xdc_runtime_LoggerBuf_Object__table__V)
                  8284f0cc    00000004     app_pe66.oe66 (.fardata:ti_sdo_ipc_ListMP_Module__state__V)
                  8284f0d0    00000020     ti.drv.qmss.ae66 : qmss_drv.oe66 (.fardata:Qmss_highEoiVector)
                  8284f0f0    00000020     app_pe66.oe66 (.fardata:ti_sdo_ipc_MessageQ_Module_State_0_heaps__A)
                  8284f110    00000020     app_pe66.oe66 (.fardata:xdc_runtime_Error_IgnoreBlock)
                  8284f130    0000001c     app_pe66.oe66 (.fardata:ti_sysbios_knl_Swi_Module__state__V)
                  8284f14c    00000004     app_pe66.oe66 (.fardata:ti_sdo_ipc_SharedRegion_Module__state__V)
                  8284f150    00000018     app_pe66.oe66 (.fardata:ti_sysbios_family_c64p_Hwi_Object__table__V)
                  8284f168    00000018     app_pe66.oe66 (.fardata:ti_sysbios_gates_GateMutexPri_Object__table__V)
                  8284f180    00000018     app_pe66.oe66 (.fardata:ti_sysbios_heaps_HeapMem_Object__table__V)
                  8284f198    00000018     app_pe66.oe66 (.fardata:ti_sysbios_timers_timer64_Timer_Module__state__V)
                  8284f1b0    00000014     cppi_device.obj (.fardata:cppiGblCfgParams)
                  8284f1c4    00000014     ti.drv.cppi.ae66 : cppi_drv.oe66 (.fardata:cppiLObj)
                  8284f1d8    00000014     app_pe66.oe66 (.fardata:ti_sdo_ipc_Ipc_Module_State_0_procEntry__A)
                  8284f1ec    00000004     app_pe66.oe66 (.fardata:ti_sdo_ipc_heaps_HeapMemMP_Module__state__V)
                  8284f1f0    00000014     app_pe66.oe66 (.fardata:ti_sysbios_family_c66_tci66xx_CpIntc_Module_State_0_initSIER__A)
                  8284f204    00000004     app_pe66.oe66 (.fardata:ti_sdo_ipc_transports_TransportShmSetup_Module__state__V)
                  8284f208    00000010     ti.drv.qmss.ae66 : qmss_drv.oe66 (.fardata:Qmss_lowEoiVector)
                  8284f218    00000010     app_pe66.oe66 (.fardata:ti_sysbios_family_c66_tci66xx_CpIntc_Module_State_0_controller__A)
                  8284f228    00000010     app_pe66.oe66 (.fardata:ti_sysbios_family_c66_tci66xx_CpIntc_Module__state__V)
                  8284f238    00000010     app_pe66.oe66 (.fardata:ti_sysbios_gates_GateAll_Object__table__V)
                  8284f248    00000010     app_pe66.oe66 (.fardata:xdc_runtime_System_Module_State_0_atexitHandlers__A)
                  8284f258    0000000c     rts6600_elf.lib : exit.c.obj (.fardata)
                  8284f264    0000000c     app_pe66.oe66 (.fardata:ti_sdo_ipc_Ipc_Module__state__V)
                  8284f270    0000000c     app_pe66.oe66 (.fardata:ti_sdo_utils_NameServer_Module__state__V)
                  8284f27c    00000004     app_pe66.oe66 (.fardata:xdc_runtime_Memory_Module__state__V)
                  8284f280    0000000c     app_pe66.oe66 (.fardata:ti_sysbios_gates_GateSwi_Object__table__V)
                  8284f28c    0000000c     app_pe66.oe66 (.fardata:xdc_runtime_SysMin_Module__state__V)
                  8284f298    00000008     app_pe66.oe66 (.fardata:ti_sdo_ipc_GateMP_Module__root__V)
                  8284f2a0    00000008     app_pe66.oe66 (.fardata:ti_sdo_ipc_ListMP_Module__root__V)
                  8284f2a8    00000008     app_pe66.oe66 (.fardata:ti_sdo_ipc_MessageQ_Module_State_0_transports__A)
                  8284f2b0    00000008     app_pe66.oe66 (.fardata:ti_sdo_ipc_MessageQ_Module__root__V)
                  8284f2b8    00000008     app_pe66.oe66 (.fardata:ti_sdo_ipc_Notify_Module__root__V)
                  8284f2c0    00000008     app_pe66.oe66 (.fardata:ti_sdo_ipc_Notify_Module__state__V)
                  8284f2c8    00000008     app_pe66.oe66 (.fardata:ti_sdo_ipc_gates_GateHWSem_Module__root__V)
                  8284f2d0    00000008     app_pe66.oe66 (.fardata:ti_sdo_ipc_gates_GateMPSupportNull_Module__root__V)
                  8284f2d8    00000008     app_pe66.oe66 (.fardata:ti_sdo_ipc_gates_GatePeterson_Module__root__V)
                  8284f2e0    00000008     app_pe66.oe66 (.fardata:ti_sdo_ipc_heaps_HeapMemMP_Module__root__V)
                  8284f2e8    00000008     app_pe66.oe66 (.fardata:ti_sdo_ipc_nsremote_NameServerRemoteNotify_Module__root__V)
                  8284f2f0    00000008     app_pe66.oe66 (.fardata:ti_sdo_ipc_transports_TransportShm_Module__root__V)
                  8284f2f8    00000008     app_pe66.oe66 (.fardata:ti_sdo_utils_List_Module__root__V)
                  8284f300    00000008     app_pe66.oe66 (.fardata:ti_sdo_utils_MultiProc_Module__state__V)
                  8284f308    00000008     app_pe66.oe66 (.fardata:ti_sdo_utils_NameServer_Module__root__V)
                  8284f310    00000008     app_pe66.oe66 (.fardata:ti_sysbios_gates_GateAll_Module__root__V)
                  8284f318    00000008     app_pe66.oe66 (.fardata:ti_sysbios_gates_GateHwi_Module__root__V)
                  8284f320    00000008     app_pe66.oe66 (.fardata:ti_sysbios_gates_GateMutexPri_Module__root__V)
                  8284f328    00000008     app_pe66.oe66 (.fardata:ti_sysbios_gates_GateMutex_Module__root__V)
                  8284f330    00000008     app_pe66.oe66 (.fardata:ti_sysbios_gates_GateSwi_Module__root__V)
                  8284f338    00000008     app_pe66.oe66 (.fardata:ti_sysbios_hal_Hwi_Object__table__V)
                  8284f340    00000008     app_pe66.oe66 (.fardata:ti_sysbios_heaps_HeapMem_Module__root__V)
                  8284f348    00000008     app_pe66.oe66 (.fardata:ti_sysbios_knl_Queue_Module__root__V)
                  8284f350    00000008     app_pe66.oe66 (.fardata:ti_sysbios_knl_Semaphore_Module__root__V)
                  8284f358    00000008     app_pe66.oe66 (.fardata:ti_sysbios_knl_Swi_Module__root__V)
                  8284f360    00000008     app_pe66.oe66 (.fardata:ti_sysbios_knl_Task_Module__root__V)
                  8284f368    00000008     app_pe66.oe66 (.fardata:ti_sysbios_syncs_SyncSem_Module__root__V)
                  8284f370    00000008     app_pe66.oe66 (.fardata:ti_sysbios_xdcruntime_GateThreadSupport_Module__root__V)
                  8284f378    00000008     app_pe66.oe66 (.fardata:xdc_runtime_GateNull_Module__root__V)
                  8284f380    00000008     app_pe66.oe66 (.fardata:xdc_runtime_LoggerBuf_Module__root__V)
                  8284f388    00000008     app_pe66.oe66 (.fardata:xdc_runtime_Registry_Module__state__V)
                  8284f390    00000008     app_pe66.oe66 (.fardata:xdc_runtime_Startup_Module__state__V)
                  8284f398    00000008     app_pe66.oe66 (.fardata:xdc_runtime_System_Module__state__V)
                  8284f3a0    00000008     app_pe66.oe66 (.fardata:xdc_runtime_knl_GateThread_Module__root__V)
                  8284f3a8    00000006     app_pe66.oe66 (.fardata:xdc_runtime_LoggerBuf_Module__state__V)
                  8284f3ae    00000002     app_pe66.oe66 (.fardata:xdc_runtime_Error_Module__state__V)
                  8284f3b0    00000004     app_pe66.oe66 (.fardata:ti_sdo_ipc_Notify_Module_State_0_notifyHandles_0__A)
                  8284f3b4    00000004     --HOLE--
                  8284f3b8    00000004     app_pe66.oe66 (.fardata:ti_sdo_ipc_Notify_Module_State_0_notifyHandles__A)
                  8284f3bc    00000004     --HOLE--
                  8284f3c0    00000004     app_pe66.oe66 (.fardata:ti_sdo_ipc_transports_TransportShmSetup_Module_State_0_handles__A)
                  8284f3c4    00000004     --HOLE--
                  8284f3c8    00000004     app_pe66.oe66 (.fardata:ti_sdo_utils_NameServer_Module_State_0_nsRemoteHandle__A)
                  8284f3cc    00000004     --HOLE--
                  8284f3d0    00000004     app_pe66.oe66 (.fardata:ti_sysbios_gates_GateHwi_Object__table__V)
                  8284f3d4    00000004     --HOLE--
                  8284f3d8    00000004     app_pe66.oe66 (.fardata:ti_sysbios_knl_Task_Module_State_0_idleTask__A)
                  8284f3dc    00000004     --HOLE--
                  8284f3e0    00000004     app_pe66.oe66 (.fardata:xdc_runtime_GateNull_Object__table__V)
                  8284f3e4    00000004     --HOLE--
                  8284f3e8    00000002     ti.drv.qmss.ae66 : qmss_drv.oe66 (.fardata:Qmss_cdmaEoiVector)
                  8284f3ea    00000006     --HOLE--
                  8284f3f0    00000002     app_pe66.oe66 (.fardata:ti_sdo_utils_MultiProc_Module_State_0_clusterProcList__A)

.switch    0    8284f600    00000134     
                  8284f600    00000080     ti.csl.ae66 : csl_chip.oe66 (.switch:CSL_chipReadReg)
                  8284f680    00000038     rts6600_elf.lib : _printfi.c.obj (.switch:__TI_printfi)
                  8284f6b8    00000028     srio_laneconfig.obj (.switch:setSrioLanes)
                  8284f6e0    00000014     srio_laneconfig.obj (.switch:waitAllSrioPortsOperational)
                  8284f6f4    00000010     srio_init.obj (.switch:CSL_SRIO_SetPBMPortIngressPriorityWatermark)
                  8284f704    00000010     srio_laneconfig.obj (.switch:getPllValue)
                  8284f714    00000010     srio_laneconfig.obj (.switch:setEnableSrioPllRxTx)
                  8284f724    00000010     ipc.ae66 : Ipc.obj (.switch:ti_sdo_ipc_GateMP_Instance_finalize__E)

.cio       0    8284f738    00000120     UNINITIALIZED
                  8284f738    00000120     rts6600_elf.lib : trgmsg.c.obj (.cio)

MODULE SUMMARY

       Module                        code     ro data   rw data
       ------                        ----     -------   -------
    .\
       main.obj                      1536     386       8464   
    +--+-----------------------------+--------+---------+---------+
       Total:                        1536     386       8464   
                                                               
    .\common\
       common.obj                    64       0         0      
    +--+-----------------------------+--------+---------+---------+
       Total:                        64       0         0      
                                                               
    .\driver-interface\
       core_2_core_interface.obj     3232     108       112    
       bb_interface.obj              1184     0         16     
    +--+-----------------------------+--------+---------+---------+
       Total:                        4416     108       128    
                                                               
    .\init\
       qmss_init.obj                 3104     660       24652  
       srio_init.obj                 9984     288       48     
       srio_laneconfig.obj           3296     372       0      
       srio_osal.obj                 2336     0         252    
       cppi_device.obj               0        0         2540   
       qmss_osal.obj                 1728     0         24     
       qmss_device.obj               0        0         1116   
       init.obj                      128      36        0      
    +--+-----------------------------+--------+---------+---------+
       Total:                        20576    1356      28632  
                                                               
    D:\pxqwork\project\5G-DSP\basic_platform\Debug\configPkg\package\cfg\
       app_pe66.oe66                 12960    17738     76134  
    +--+-----------------------------+--------+---------+---------+
       Total:                        12960    17738     76134  
                                                               
    C:\ti\ccs901\ccs\tools\compiler\ti-cgt-c6000_8.3.2\lib\rts6600_elf.lib
       _printfi.c.obj                13440    92        0      
       divd.c.obj                    1536     0         0      
       imath64.c.obj                 672      0         0      
       divf.c.obj                    640      0         0      
       trgmsg.c.obj                  224      0         288    
       imath40.c.obj                 448      0         0      
       frexp.c.obj                   416      0         0      
       s_scalbn.c.obj                416      0         0      
       snprintf.c.obj                320      0         0      
       copy_decompress_rle.c.obj     288      0         0      
       exit.c.obj                    256      0         12     
       ctype.c.obj                   0        257       0      
       atoi.c.obj                    256      0         0      
       hostwrite.c.obj               224      0         0      
       llshift.c.obj                 224      0         0      
       ltoa.c.obj                    224      0         0      
       memset.c.obj                  224      0         0      
       divu.asm.obj                  192      0         0      
       sprintf.c.obj                 192      0         0      
       tls.c.obj                     192      0         0      
       fltullf.c.obj                 160      0         0      
       memcpy64.asm.obj              160      0         0      
       remu.asm.obj                  160      0         0      
       fixdu.c.obj                   128      0         0      
       _lock.c.obj                   96       0         8      
       frcmpyd_div.c.obj             96       0         0      
       memccpy.c.obj                 96       0         0      
       args_main.c.obj               64       0         0      
       isinf.c.obj                   64       0         0      
       push.asm.obj                  64       0         0      
       strasg.asm.obj                64       0         0      
       wcslen.c.obj                  64       0         0      
       errno.c.obj                   32       0         4      
       _data_synch.c.obj             32       0         0      
       copy_decompress_none.c.obj    32       0         0      
       s_copysign.c.obj              32       0         0      
       signbit.c.obj                 32       0         0      
       hostopen.c.obj                0        0         8      
    +--+-----------------------------+--------+---------+---------+
       Total:                        21760    349       320    
                                                               
    C:\ti\pdk\6678\bios_6_75_02_00\packages\ti\targets\rts6000\lib\boot.ae66
       autoinit.oe66                 288      0         0      
       boot.oe66                     160      0         0      
    +--+-----------------------------+--------+---------+---------+
       Total:                        448      0         0      
                                                               
    C:\ti\pdk\6678\bios_6_75_02_00\packages\ti\targets\rts6000\lib\ti.targets.rts6000.ae66
       System.oe66                   3200     24        0      
       LoggerBuf.oe66                2560     0         0      
       Text.oe66                     1504     64        0      
       Error.oe66                    1184     88        0      
       Startup.oe66                  896      44        0      
       Core-mem.oe66                 896      0         0      
       SysMin.oe66                   704      0         0      
       Memory.oe66                   448      0         0      
       Core-smem.oe66                416      0         0      
       Assert.oe66                   192      4         0      
       Core-params.oe66              160      0         0      
       GateThread.oe66               160      0         0      
       Core-label.oe66               128      0         0      
       GateNull.oe66                 96       0         0      
       Gate.oe66                     64       0         0      
       Registry.oe66                 64       0         0      
    +--+-----------------------------+--------+---------+---------+
       Total:                        12672    224       0      
                                                               
    C:\ti\pdk\6678\pdk_c667x_2_0_13\packages\ti\csl\lib\c6678\c66\release\ti.csl.ae66
       csl_chip.oe66                 288      128       0      
       csl_srioGetBaseAddress.oe66   32       0         0      
       csl_tsc.oe66                  32       0         0      
    +--+-----------------------------+--------+---------+---------+
       Total:                        352      128       0      
                                                               
    C:\ti\pdk\6678\pdk_c667x_2_0_13\packages\ti\drv\cppi\lib\c66\ti.drv.cppi.ae66
       cppi_drv.oe66                 7360     0         3988   
       cppi_desc.oe66                1216     0         0      
       cppi_heap.oe66                768      0         0      
       cppi_listlib.oe66             608      0         0      
    +--+-----------------------------+--------+---------+---------+
       Total:                        9952     0         3988   
                                                               
    C:\ti\pdk\6678\pdk_c667x_2_0_13\packages\ti\drv\qmss\lib\c66\ti.drv.qmss.ae66
       qmss_drv.oe66                 12960    16        28254  
       qmss_acc.oe66                 800      0         0      
    +--+-----------------------------+--------+---------+---------+
       Total:                        13760    16        28254  
                                                               
    C:\ti\pdk\6678\pdk_c667x_2_0_13\packages\ti\drv\srio\lib\c66\ti.drv.srio.ae66
       srio_drv.oe66                 16096    1940      256    
       listlib.oe66                  288      0         0      
    +--+-----------------------------+--------+---------+---------+
       Total:                        16384    1940      256    
                                                               
    D:\pxqwork\project\5G-DSP\basic_platform\src\ipc\ipc.ae66
       Ipc.obj                       55232    52        0      
    +--+-----------------------------+--------+---------+---------+
       Total:                        55232    52        0      
                                                               
    D:\pxqwork\project\5G-DSP\basic_platform\src\sysbios\sysbios.ae66
       BIOS.obj                      38496    1304      0      
       c64p_Hwi_disp_always.obj      512      0         0      
       c64p_Exception_asm.obj        384      0         0      
       c62_TaskSupport_asm.obj       224      0         0      
       c64p_Hwi_asm_switch.obj       192      0         0      
    +--+-----------------------------+--------+---------+---------+
       Total:                        39808    1304      0      
                                                               
       Stack:                        0        0         16384  
       Linker Generated:             0        6396      0      
    +--+-----------------------------+--------+---------+---------+
       Grand Total:                  209920   29997     162560 


LINKER GENERATED COPY TABLES

__TI_cinit_table @ 828511a0 records: 9, size/record: 8, table size: 72
	.fardata: load addr=8284f8e8, load size=00001831 bytes, run addr=8284a7c8, run size=00004c2a bytes, compression=rle
	.neardata: load addr=82851119, load size=0000002d bytes, run addr=8284f878, run size=00000064 bytes, compression=rle
	.far: load addr=82851146, load size=0000000d bytes, run addr=82833a00, run size=000112c2 bytes, compression=rle
	.rodata: load addr=82851153, load size=0000000c bytes, run addr=8284f8dc, run size=00000006 bytes, compression=rle
	.L2RAM: load addr=8285115f, load size=0000000b bytes, run addr=00800000, run size=00006198 bytes, compression=rle
	.cppi: load addr=8285116a, load size=0000000b bytes, run addr=0c206900, run size=00000f80 bytes, compression=rle
	.qmss: load addr=82851175, load size=0000000b bytes, run addr=0c200000, run size=00006882 bytes, compression=rle
	.srioSharedMem: load addr=82851180, load size=0000000b bytes, run addr=0c207880, run size=00000100 bytes, compression=rle
	.bss: load addr=8285118b, load size=00000009 bytes, run addr=8284f858, run size=00000020 bytes, compression=rle


LINKER GENERATED HANDLER TABLE

__TI_handler_table @ 82851194 records: 2, size/record: 4, table size: 8
	index: 0, handler: __TI_decompress_rle24
	index: 1, handler: __TI_decompress_none


GLOBAL SYMBOLS: SORTED ALPHABETICALLY BY Name 

address   name                                                                      
-------   ----                                                                      
82832520  C$$EXIT                                                                   
8282fbb8  C$$IO$$                                                                   
82832080  CSL_SRIO_Open                                                             
82827f00  CSL_chipReadReg                                                           
828325a0  CSL_tscEnable                                                             
828325a8  CSL_tscRead                                                               
8282cc20  Cppi_channelEnable                                                        
8280dc00  Cppi_configureRxFlow                                                      
828320a0  Cppi_getChannelNumber                                                     
828320c0  Cppi_getFlowId                                                            
828166a0  Cppi_init                                                                 
828320e0  Cppi_initDescriptor                                                       
82815d60  Cppi_initDescriptorSubSys                                                 
8281ae20  Cppi_open                                                                 
82814420  Cppi_rxChannelOpen                                                        
8282ccc0  Cppi_setCpdmaLoopback                                                     
82832100  Cppi_txChannelOpen                                                        
82810fc0  Cppi_txChannelOpenWithHwCfg                                               
82830c40  GateMP_Params_init                                                        
82828020  GateMP_close                                                              
82832120  GateMP_delete                                                             
828239a0  GateMP_enter                                                              
82832140  GateMP_getDefaultRemote                                                   
82823b40  GateMP_leave                                                              
82820e40  GateMP_openByAddr                                                         
82822240  GateMP_sharedMemReq                                                       
8284e570  GlobalQmGroup0                                                            
82829dc0  HOSTwrite                                                                 
82830c80  HeapMemMP_Params_init                                                     
8282f8c0  HeapMemMP_create                                                          
82829ea0  HeapMemMP_openByAddr                                                      
8282de40  HeapMemMP_restore                                                         
82821040  HeapMemMP_sharedMemReq                                                    
8280f0e0  Ipc_attach                                                                
8284f858  Ipc_sr0MemorySetup                                                        
82821240  Ipc_start                                                                 
828321a0  ListMP_Params_init                                                        
828321c0  ListMP_close                                                              
8282dec0  ListMP_create                                                             
828321e0  ListMP_delete                                                             
8281bd60  ListMP_getHead                                                            
82829f80  ListMP_openByAddr                                                         
82820180  ListMP_putTail                                                            
828264c0  ListMP_remove                                                             
82826600  ListMP_sharedMemReq                                                       
8282a060  MessageQ_Params_init__S                                                   
82826740  MessageQ_create                                                           
8280c640  MessageQ_put                                                              
82832200  MultiProc_getBaseIdOfCluster                                              
82832220  MultiProc_self                                                            
82816b20  NameServer_add                                                            
82832240  NameServer_addUInt32                                                      
82825200  NameServer_getHandle                                                      
82823ce0  NameServer_getLocal                                                       
82832260  NameServer_getLocalUInt32                                                 
82832280  NameServer_removeEntry                                                    
82830cc0  Notify_attach                                                             
82826880  Notify_intLineRegistered                                                  
828322a0  Notify_numIntLines                                                        
82818940  Notify_registerEventSingle                                                
82818100  Notify_sendEvent                                                          
82830d00  Notify_sharedMemReq                                                       
82819540  Notify_unregisterEventSingle                                              
8280a9b8  Osal_CacheInvalidate                                                      
8280a9f4  Osal_CacheWriteback                                                       
8280a8b4  Osal_DataBufferFree                                                       
8280a7f0  Osal_DataBufferMalloc                                                     
8280a94c  Osal_MultiCoreEnter                                                       
8280a968  Osal_MultiCoreExit                                                        
8280a980  Osal_SingleCoreEnter                                                      
8280a9a4  Osal_SingleCoreExit                                                       
8280ed48  Osal_cppiBeginMemAccess                                                   
8280ecf8  Osal_cppiCsEnter                                                          
8280ed14  Osal_cppiCsExit                                                           
8280ed84  Osal_cppiEndMemAccess                                                     
8280ecc8  Osal_cppiFree                                                             
8280ed2c  Osal_cppiLog                                                              
8280ec8c  Osal_cppiMalloc                                                           
8280a748  Osal_dataBufferInitMemory                                                 
8280ee48  Osal_qmssAccCsEnter                                                       
8280ee50  Osal_qmssAccCsExit                                                        
8280ee98  Osal_qmssBeginMemAccess                                                   
8280ee14  Osal_qmssCsEnter                                                          
8280ee30  Osal_qmssCsExit                                                           
8280eed4  Osal_qmssEndMemAccess                                                     
8280ede8  Osal_qmssFree                                                             
8280ee84  Osal_qmssLog                                                              
8280edb4  Osal_qmssMalloc                                                           
8280ee68  Osal_qmssMtCsEnter                                                        
8280ee70  Osal_qmssMtCsExit                                                         
8280efb4  Osal_rmBeginMemAccess                                                     
8280ef6c  Osal_rmCsEnter                                                            
8280ef74  Osal_rmCsExit                                                             
8280eff0  Osal_rmEndMemAccess                                                       
8280ef40  Osal_rmFree                                                               
8280f088  Osal_rmLog                                                                
8280ef0c  Osal_rmMalloc                                                             
8280ef88  Osal_rmMtCsEnter                                                          
8280efa0  Osal_rmMtCsExit                                                           
8280f054  Osal_rmTaskBlock                                                          
8280f028  Osal_rmTaskBlockCreate                                                    
8280f074  Osal_rmTaskBlockDelete                                                    
8280f068  Osal_rmTaskUnblock                                                        
8280aa2c  Osal_srioBeginDescriptorAccess                                            
8280aa64  Osal_srioBeginMemAccess                                                   
8280aa98  Osal_srioCreateSem                                                        
8280aaac  Osal_srioDataBufferFree                                                   
8280ab44  Osal_srioDataBufferMalloc                                                 
8280ac08  Osal_srioDeleteSem                                                        
8280aa44  Osal_srioEndDescriptorAccess                                              
8280ac14  Osal_srioEndMemAccess                                                     
8280ac4c  Osal_srioEnterMultipleCoreCriticalSection                                 
8280ac68  Osal_srioEnterSingleCoreCriticalSection                                   
8280ac8c  Osal_srioExitMultipleCoreCriticalSection                                  
8280aca4  Osal_srioExitSingleCoreCriticalSection                                    
8280acc8  Osal_srioFree                                                             
8280acf4  Osal_srioLog                                                              
8280ad0c  Osal_srioMalloc                                                           
8280ad44  Osal_srioPendSem                                                          
8280ad54  Osal_srioPostSem                                                          
8282f980  Qmss_ackInterrupt                                                         
8284f3e8  Qmss_cdmaEoiVector                                                        
82823e80  Qmss_cfgAccumulatorCh                                                     
82830d40  Qmss_getMemRegDescSizeSubSys                                              
8282b1e0  Qmss_getMemRegQueueHandleSubSys                                           
82828140  Qmss_getMemoryRegionCfg                                                   
828322c0  Qmss_getQueueHandle                                                       
828322e0  Qmss_getQueueNumber                                                       
8284f0d0  Qmss_highEoiVector                                                        
82832300  Qmss_init                                                                 
82809b00  Qmss_initSubSys                                                           
82832320  Qmss_insertMemoryRegion                                                   
82804ee0  Qmss_insertMemoryRegionSubSys                                             
8281ec20  Qmss_internalQueueClose                                                   
8281c040  Qmss_internalRmStartIndex                                                 
82830d80  Qmss_internalVirtToPhy                                                    
8284f208  Qmss_lowEoiVector                                                         
82828260  Qmss_openAccumulatorChSubSys                                              
8282f9e0  Qmss_programAccumulator                                                   
82830dc0  Qmss_queueClose                                                           
8282df40  Qmss_queueOpen                                                            
8282cd60  Qmss_queueOpenSubSys                                                      
82828380  Qmss_rmService                                                            
828269c0  Qmss_rmServiceGroups                                                      
8282b2a0  Qmss_setEoiVector                                                         
8282fa40  Qmss_setQueueThreshold                                                    
82830e00  Qmss_start                                                                
82825c80  Qmss_startSubSysCfg                                                       
82826b00  SharedRegion_getCacheLineSize                                             
82821440  SharedRegion_getEntry                                                     
82826c40  SharedRegion_getHeap                                                      
8282b360  SharedRegion_getId                                                        
828203a0  SharedRegion_getPtr                                                       
828205c0  SharedRegion_getSRPtr                                                     
82832340  SharedRegion_invalidSRPtr                                                 
82826d80  SharedRegion_isCacheEnabled                                               
82802618  SrioDevice_init                                                           
82821640  Srio_dioCompletionIsr                                                     
8282dfc0  Srio_freeRxDrvBuffer                                                      
82832360  Srio_init                                                                 
8281a460  Srio_initCfg                                                              
82830e40  Srio_listAdd                                                              
8282faa0  Srio_listCat                                                              
82832380  Srio_listGetHead                                                          
828323a0  Srio_listGetNext                                                          
82830e80  Srio_listRemove                                                           
8280cd80  Srio_processReceivedBD                                                    
82826ec0  Srio_rmService                                                            
82821840  Srio_rxCompletionIsr                                                      
8282e040  Srio_sockBind                                                             
82817880  Srio_sockBind_DIO                                                         
8281c320  Srio_sockBind_TYPE11                                                      
8281dc60  Srio_sockBind_TYPE9                                                       
82818d40  Srio_sockOpen                                                             
8282e0c0  Srio_sockSend                                                             
8280fd60  Srio_sockSend_DIO                                                         
8281cea0  Srio_sockSend_TYPE11                                                      
8281c600  Srio_sockSend_TYPE9                                                       
82814ea0  Srio_start                                                                
8284f8c8  TEST_TIME                                                                 
828323c0  _GateMP_virtToPhys                                                        
82800800  __ASM__                                                                   
8284f738  __CIOBUF_                                                                 
82800860  __ISA__                                                                   
82800878  __PLAT__                                                                  
82800898  __TARG__                                                                  
828511a0  __TI_CINIT_Base                                                           
828511e8  __TI_CINIT_Limit                                                          
82851194  __TI_Handler_Table_Base                                                   
8285119c  __TI_Handler_Table_Limit                                                  
UNDEFED   __TI_INITARRAY_Base                                                       
UNDEFED   __TI_INITARRAY_Limit                                                      
0080a198  __TI_STACK_END                                                            
00004000  __TI_STACK_SIZE                                                           
8284f858  __TI_STATIC_BASE                                                          
UNDEFED   __TI_TLS_INIT_Base                                                        
UNDEFED   __TI_TLS_INIT_Limit                                                       
8284f258  __TI_cleanup_ptr                                                          
828325c0  __TI_decompress_none                                                      
828325e0  __TI_decompress_rle24                                                     
8284f25c  __TI_dtors_ptr                                                            
8284f260  __TI_enable_exit_profile_output                                           
8282fb00  __TI_frcmpyd_div                                                          
ffffffff  __TI_pprof_out_hndl                                                       
82802f00  __TI_printfi                                                              
ffffffff  __TI_prof_data_size                                                       
ffffffff  __TI_prof_data_start                                                      
8282e140  __TI_readmsg                                                              
8282c7a0  __TI_tls_init                                                             
8282fb60  __TI_writemsg                                                             
828008c0  __TRDR__                                                                  
ffffffff  __binit__                                                                 
828115c0  __c6xabi_divd                                                             
8281eea0  __c6xabi_divf                                                             
8282b660  __c6xabi_divu                                                             
82822ba0  __c6xabi_divul                                                            
8281fac0  __c6xabi_divull                                                           
828323e0  __c6xabi_errno_addr                                                       
8282e1c0  __c6xabi_fixdu                                                            
8282ce00  __c6xabi_fltullf                                                          
82830ec0  __c6xabi_isinf                                                            
8282e240  __c6xabi_llshl                                                            
8282fbc0  __c6xabi_llshru                                                           
82832400  __c6xabi_pop_rts                                                          
82832420  __c6xabi_push_rts                                                         
8282cea0  __c6xabi_remu                                                             
82830f40  __c6xabi_strasgi_64plus                                                   
ffffffff  __c_args__                                                                
8282b660  __divu                                                                    
8284ef1c  __errno                                                                   
82832400  __pop_rts                                                                 
82832420  __push_rts                                                                
8282cea0  __remu                                                                    
82830f40  __strasgi_64plus                                                          
82830f80  _args_main                                                                
00000000  _argsize                                                                  
828284a0  _auto_init_elf                                                            
8282cf40  _c_int00                                                                  
828492e0  _ctypes_                                                                  
8284e6fc  _lock                                                                     
82832440  _nop                                                                      
82832480  _register_lock                                                            
828324a0  _register_synch_api                                                       
828324c0  _register_unlock                                                          
828324e0  _signbit                                                                  
00806198  _stack                                                                    
8282fc20  _subcull                                                                  
8284ee6c  _unlock                                                                   
82832520  abort                                                                     
828290c0  atoi                                                                      
ffffffff  binit                                                                     
8280a718  biosFree                                                                  
8280a6d8  biosMalloc                                                                
828164f4  configSrioParameterToFPGA                                                 
82832540  copysign                                                                  
82832540  copysignl                                                                 
8284f8e0  core_id                                                                   
8284f8dc  core_name                                                                 
8284f8b0  cppiFreeCounter                                                           
8284c7c8  cppiGblCPDMACfgParams                                                     
8284f1b0  cppiGblCfgParams                                                          
8284f85c  cppiHnd                                                                   
82808810  cppiInit                                                                  
8284f1c4  cppiLObj                                                                  
8284f8ac  cppiMallocCounter                                                         
0c206900  cppiObject                                                                
82821c40  cppi_internal_heap_add                                                    
8282e3c0  cppi_internal_heap_cache_begin                                            
8282e440  cppi_internal_heap_malloc                                                 
8282e4c0  cppi_list_add                                                             
8282fd40  cppi_list_cache_invalidate                                                
8282b720  cppi_list_cat                                                             
82832560  cppi_list_get_head                                                        
82832580  cppi_list_get_next                                                        
8282e540  cppi_list_remove                                                          
82802d10  createControlSocket                                                       
8284a7c8  data                                                                      
8284f8c0  dataLen                                                                   
82806280  displaySrioLanesStatus                                                    
8284ef1c  errno                                                                     
8282a220  exit                                                                      
8284a268  flowIdNum                                                                 
8284f89c  fpga0ControlSocket                                                        
00806188  fpga0EerorPktCount                                                        
0080618c  fpga0ReadIndex                                                            
8284f8a0  fpga1ControlSocket                                                        
00806190  fpga1EerorPktCount                                                        
00806194  fpga1ReadIndex                                                            
8284f860  freeQueHnd                                                                
8284f8d8  free_counter                                                              
82824020  frexp                                                                     
82824020  frexpl                                                                    
82844ba8  gDataBufferMemMgr                                                         
8284f8d0  gDataBufferMemMgrMaxSize                                                  
0c207880  gSRIODriverMCB                                                            
828162f0  getBbData                                                                 
82807404  getDataFromCoreN                                                          
82806648  getPllValue                                                               
8284f864  hAppManagedSrioDrv                                                        
00800000  hostDesc                                                                  
828087b0  ipcInit                                                                   
82831080  l2_global_address                                                         
828241c0  ldexp                                                                     
828241c0  ldexpl                                                                    
8282a300  ltoa                                                                      
82812140  main                                                                      
8284f8d4  malloc_counter                                                            
8282fda0  memccpy                                                                   
8282d080  memcpy                                                                    
8282a3e0  memset                                                                    
82802cd0  myDIOIsr                                                                  
82844cb8  parmbuf                                                                   
00806170  ps_info                                                                   
8284f8a8  qmssFreeCounter                                                           
0c204180  qmssGObj                                                                  
0c206880  qmssGObjIsValid                                                           
8284e2a0  qmssGblCfgParams                                                          
0c204080  qmssGroupControl                                                          
82844200  qmssLObj                                                                  
82844cc0  qmssLObjIsValid                                                           
8284f8a4  qmssMallocCounter                                                         
8284a288  qmssQueueFree                                                             
8284a290  qmssQueueFreeSize                                                         
8284f8b8  rmFreeCounter                                                             
8284f8b4  rmMallocCounter                                                           
8284f868  rxChHnd                                                                   
00802000  rxDataBuff                                                                
82844c98  rxQueHnd                                                                  
82849c30  rxQueNum                                                                  
8284f86c  rx_flowhnd                                                                
00806000  rxbuf                                                                     
828241c0  scalbn                                                                    
828241c0  scalbnl                                                                   
82816434  sendDataToBb                                                              
828071f4  sendDataToCoreN                                                           
82806704  setEnableSrioPllRxTx                                                      
8280644c  setSrioLanes                                                              
8282e640  snprintf                                                                  
8282fe00  sprintf                                                                   
828024e0  srioInit                                                                  
82802e10  srioSendData                                                              
8284f878  srio_device_ID1                                                           
8284f87c  srio_device_ID2                                                           
8284f880  srio_device_ID3                                                           
8284f894  srio_isBoardToBoard                                                       
8284f88c  srio_laneSpeedGbps                                                        
8284f890  srio_lanesMode                                                            
8284f888  srio_refClockMhz                                                          
8284f898  srio_usePolledMode                                                        
8284f884  srio_work_mode                                                            
8282e5c0  sysInit                                                                   
82811cb0  taskFxn                                                                   
82849084  ti_sdo_ipc_GateMP_A_invalidClose__C                                       
82849664  ti_sdo_ipc_GateMP_A_invalidDelete__C                                      
82849be4  ti_sdo_ipc_GateMP_E_gateUnavailable__C                                    
8284a00c  ti_sdo_ipc_GateMP_E_localGate__C                                          
82813ec0  ti_sdo_ipc_GateMP_Instance_finalize__E                                    
82807700  ti_sdo_ipc_GateMP_Instance_init__E                                        
8284a02c  ti_sdo_ipc_GateMP_LM_create__C                                            
8284a04c  ti_sdo_ipc_GateMP_LM_delete__C                                            
8284a06c  ti_sdo_ipc_GateMP_LM_enter__C                                             
8284a08c  ti_sdo_ipc_GateMP_LM_leave__C                                             
8284a0ac  ti_sdo_ipc_GateMP_LM_open__C                                              
8284d1a0  ti_sdo_ipc_GateMP_Module_State_0_remoteCustom1Gates__A                    
8284ea98  ti_sdo_ipc_GateMP_Module_State_0_remoteSystemGates__A                     
8284a0cc  ti_sdo_ipc_GateMP_Module__diagsEnabled__C                                 
8284a0ec  ti_sdo_ipc_GateMP_Module__diagsIncluded__C                                
8284a10c  ti_sdo_ipc_GateMP_Module__diagsMask__C                                    
82847a6e  ti_sdo_ipc_GateMP_Module__id__C                                           
828493e2  ti_sdo_ipc_GateMP_Module__loggerDefined__C                                
8284a12c  ti_sdo_ipc_GateMP_Module__loggerFxn2__C                                   
8284a2b8  ti_sdo_ipc_GateMP_Module__loggerFxn4__C                                   
8284a2bc  ti_sdo_ipc_GateMP_Module__loggerObj__C                                    
8284f298  ti_sdo_ipc_GateMP_Module__root__V                                         
8284eecc  ti_sdo_ipc_GateMP_Module__state__V                                        
82849c50  ti_sdo_ipc_GateMP_Object__DESC__C                                         
82849770  ti_sdo_ipc_GateMP_Object__PARAMS__C                                       
8282fe60  ti_sdo_ipc_GateMP_Object__delete__S                                       
82832600  ti_sdo_ipc_GateMP_Params__init__S                                         
82831240  ti_sdo_ipc_GateMP_RemoteCustom1Proxy_Handle__label__S                     
828329e0  ti_sdo_ipc_GateMP_RemoteCustom1Proxy_Params__init__S                      
82832620  ti_sdo_ipc_GateMP_RemoteCustom1Proxy_Proxy__abstract__S                   
82832640  ti_sdo_ipc_GateMP_RemoteCustom1Proxy_Proxy__delegate__S                   
82832660  ti_sdo_ipc_GateMP_RemoteCustom1Proxy_create                               
82832680  ti_sdo_ipc_GateMP_RemoteCustom1Proxy_delete                               
82832a00  ti_sdo_ipc_GateMP_RemoteCustom1Proxy_getReservedMask__E                   
82832a20  ti_sdo_ipc_GateMP_RemoteCustom1Proxy_query__E                             
828300a0  ti_sdo_ipc_GateMP_RemoteCustom1Proxy_sharedMemReq__E                      
828311c0  ti_sdo_ipc_GateMP_RemoteCustom2Proxy_Handle__label__S                     
82832960  ti_sdo_ipc_GateMP_RemoteCustom2Proxy_Params__init__S                      
828326a0  ti_sdo_ipc_GateMP_RemoteCustom2Proxy_Proxy__abstract__S                   
828326c0  ti_sdo_ipc_GateMP_RemoteCustom2Proxy_Proxy__delegate__S                   
828326e0  ti_sdo_ipc_GateMP_RemoteCustom2Proxy_create                               
82832700  ti_sdo_ipc_GateMP_RemoteCustom2Proxy_delete                               
82832980  ti_sdo_ipc_GateMP_RemoteCustom2Proxy_getReservedMask__E                   
828329a0  ti_sdo_ipc_GateMP_RemoteCustom2Proxy_query__E                             
828329c0  ti_sdo_ipc_GateMP_RemoteCustom2Proxy_sharedMemReq__E                      
82831100  ti_sdo_ipc_GateMP_RemoteSystemProxy_Handle__label__S                      
828328c0  ti_sdo_ipc_GateMP_RemoteSystemProxy_Params__init__S                       
82832720  ti_sdo_ipc_GateMP_RemoteSystemProxy_Proxy__abstract__S                    
82832740  ti_sdo_ipc_GateMP_RemoteSystemProxy_Proxy__delegate__S                    
82832760  ti_sdo_ipc_GateMP_RemoteSystemProxy_create                                
82832780  ti_sdo_ipc_GateMP_RemoteSystemProxy_delete                                
828328e0  ti_sdo_ipc_GateMP_RemoteSystemProxy_getReservedMask__E                    
82832900  ti_sdo_ipc_GateMP_RemoteSystemProxy_query__E                              
82832920  ti_sdo_ipc_GateMP_RemoteSystemProxy_sharedMemReq__E                       
82825500  ti_sdo_ipc_GateMP_attach__E                                               
82825500  ti_sdo_ipc_GateMP_attach__F                                               
8282b7e0  ti_sdo_ipc_GateMP_create                                                  
82827140  ti_sdo_ipc_GateMP_createLocal__E                                          
82827140  ti_sdo_ipc_GateMP_createLocal__F                                          
828327a0  ti_sdo_ipc_GateMP_delete                                                  
82827280  ti_sdo_ipc_GateMP_getFreeResource__I                                      
8282b8a0  ti_sdo_ipc_GateMP_getRegion0ReservedSize__E                               
8282b8a0  ti_sdo_ipc_GateMP_getRegion0ReservedSize__F                               
828327c0  ti_sdo_ipc_GateMP_getSharedAddr__E                                        
828327c0  ti_sdo_ipc_GateMP_getSharedAddr__F                                        
82825de0  ti_sdo_ipc_GateMP_openRegion0Reserved__E                                  
82825de0  ti_sdo_ipc_GateMP_openRegion0Reserved__F                                  
828327e0  ti_sdo_ipc_GateMP_setDefaultRemote__E                                     
828327e0  ti_sdo_ipc_GateMP_setDefaultRemote__F                                     
828121c0  ti_sdo_ipc_GateMP_setRegion0Reserved__E                                   
828121c0  ti_sdo_ipc_GateMP_setRegion0Reserved__F                                   
8282a4c0  ti_sdo_ipc_GateMP_start__E                                                
8282a4c0  ti_sdo_ipc_GateMP_start__F                                                
8284a2c0  ti_sdo_ipc_Ipc_A_addrNotCacheAligned__C                                   
8284a2c4  ti_sdo_ipc_Ipc_A_addrNotInSharedRegion__C                                 
8284a2c8  ti_sdo_ipc_Ipc_A_internal__C                                              
8284a2cc  ti_sdo_ipc_Ipc_A_invArgument__C                                           
8284a2d0  ti_sdo_ipc_Ipc_A_invParam__C                                              
8284a2d4  ti_sdo_ipc_Ipc_A_nullArgument__C                                          
8284a2d8  ti_sdo_ipc_Ipc_A_nullPointer__C                                           
8284a2dc  ti_sdo_ipc_Ipc_E_internal__C                                              
8284a2e0  ti_sdo_ipc_Ipc_E_nameFailed__C                                            
8284a2e4  ti_sdo_ipc_Ipc_E_versionMismatch__C                                       
8284f1d8  ti_sdo_ipc_Ipc_Module_State_0_procEntry__A                                
8284a2e8  ti_sdo_ipc_Ipc_Module__diagsEnabled__C                                    
8284a2ec  ti_sdo_ipc_Ipc_Module__diagsIncluded__C                                   
8284a2f0  ti_sdo_ipc_Ipc_Module__diagsMask__C                                       
8284a02a  ti_sdo_ipc_Ipc_Module__id__C                                              
8284f264  ti_sdo_ipc_Ipc_Module__state__V                                           
8284a04a  ti_sdo_ipc_Ipc_generateSlaveDataForHost__C                                
8282e6c0  ti_sdo_ipc_Ipc_getMasterAddr__I                                           
828310c0  ti_sdo_ipc_Ipc_getRegion0ReservedSize__I                                  
8282fec0  ti_sdo_ipc_Ipc_getSlaveAddr__I                                            
8284a2f4  ti_sdo_ipc_Ipc_numUserFxns__C                                             
828291c0  ti_sdo_ipc_Ipc_procSyncFinish__I                                          
82822f20  ti_sdo_ipc_Ipc_procSyncStart__I                                           
8284a2f8  ti_sdo_ipc_Ipc_procSync__C                                                
8282ff20  ti_sdo_ipc_Ipc_reservedSizePerProc__I                                     
8284a2fc  ti_sdo_ipc_Ipc_userFxns__C                                                
8282a5a0  ti_sdo_ipc_ListMP_Instance_finalize__E                                    
82813380  ti_sdo_ipc_ListMP_Instance_init__E                                        
8284a300  ti_sdo_ipc_ListMP_Module__diagsEnabled__C                                 
8284a304  ti_sdo_ipc_ListMP_Module__diagsIncluded__C                                
8284a308  ti_sdo_ipc_ListMP_Module__diagsMask__C                                    
8284a06a  ti_sdo_ipc_ListMP_Module__id__C                                           
8284f2a0  ti_sdo_ipc_ListMP_Module__root__V                                         
8284f0cc  ti_sdo_ipc_ListMP_Module__state__V                                        
82849c70  ti_sdo_ipc_ListMP_Object__DESC__C                                         
82849800  ti_sdo_ipc_ListMP_Object__PARAMS__C                                       
8282ff80  ti_sdo_ipc_ListMP_Object__delete__S                                       
82832800  ti_sdo_ipc_ListMP_Params__init__S                                         
8282b960  ti_sdo_ipc_ListMP_create                                                  
82832820  ti_sdo_ipc_ListMP_delete                                                  
8282ffe0  ti_sdo_ipc_ListMP_elemClear__I                                            
8284a30c  ti_sdo_ipc_MessageQ_A_invalidMsg__C                                       
8284a310  ti_sdo_ipc_MessageQ_A_invalidObj__C                                       
8284a314  ti_sdo_ipc_MessageQ_A_invalidQueueId__C                                   
8284a318  ti_sdo_ipc_MessageQ_A_procIdInvalid__C                                    
8284a31c  ti_sdo_ipc_MessageQ_A_unregisteredTransport__C                            
8284a320  ti_sdo_ipc_MessageQ_E_indexNotAvailable__C                                
8284a324  ti_sdo_ipc_MessageQ_E_maxReached__C                                       
8284a328  ti_sdo_ipc_MessageQ_E_nameFailed__C                                       
8284a32c  ti_sdo_ipc_MessageQ_Instance_State_highList__O                            
8284a330  ti_sdo_ipc_MessageQ_Instance_State_normalList__O                          
82825f40  ti_sdo_ipc_MessageQ_Instance_finalize__E                                  
82819920  ti_sdo_ipc_MessageQ_Instance_init__E                                      
8284a334  ti_sdo_ipc_MessageQ_LM_putLocal__C                                        
8284f0f0  ti_sdo_ipc_MessageQ_Module_State_0_heaps__A                               
8284f2a8  ti_sdo_ipc_MessageQ_Module_State_0_transports__A                          
8284a338  ti_sdo_ipc_MessageQ_Module__diagsEnabled__C                               
8284a33c  ti_sdo_ipc_MessageQ_Module__diagsIncluded__C                              
8284a340  ti_sdo_ipc_MessageQ_Module__diagsMask__C                                  
8284a08a  ti_sdo_ipc_MessageQ_Module__id__C                                         
8284a0aa  ti_sdo_ipc_MessageQ_Module__loggerDefined__C                              
8284a344  ti_sdo_ipc_MessageQ_Module__loggerFxn4__C                                 
8284a348  ti_sdo_ipc_MessageQ_Module__loggerObj__C                                  
8284f2b0  ti_sdo_ipc_MessageQ_Module__root__V                                       
8284ee04  ti_sdo_ipc_MessageQ_Module__state__V                                      
8282a680  ti_sdo_ipc_MessageQ_Module_startup__E                                     
82849c90  ti_sdo_ipc_MessageQ_Object__DESC__C                                       
82849cb0  ti_sdo_ipc_MessageQ_Object__PARAMS__C                                     
8284a34c  ti_sdo_ipc_MessageQ_Object__count__C                                      
82832840  ti_sdo_ipc_MessageQ_Object__get__S                                        
8284a350  ti_sdo_ipc_MessageQ_Object__heap__C                                       
82832860  ti_sdo_ipc_MessageQ_Params__init__S                                       
8282aca0  ti_sdo_ipc_MessageQ_SetupTransportProxy_attach__E                         
82832b80  ti_sdo_ipc_MessageQ_SetupTransportProxy_isRegistered__E                   
82831380  ti_sdo_ipc_MessageQ_SetupTransportProxy_sharedMemReq__E                   
8282ba20  ti_sdo_ipc_MessageQ_create                                                
8282bae0  ti_sdo_ipc_MessageQ_grow__I                                               
8284a354  ti_sdo_ipc_MessageQ_maxRuntimeEntries__C                                  
8284a358  ti_sdo_ipc_MessageQ_numReservedEntries__C                                 
8281e1a0  ti_sdo_ipc_MessageQ_registerTransport__E                                  
8281e1a0  ti_sdo_ipc_MessageQ_registerTransport__F                                  
8281e440  ti_sdo_ipc_MessageQ_unregisterTransport__E                                
8281e440  ti_sdo_ipc_MessageQ_unregisterTransport__F                                
8284a35c  ti_sdo_ipc_Notify_A_alreadyRegistered__C                                  
8284a360  ti_sdo_ipc_Notify_A_internal__C                                           
8284a364  ti_sdo_ipc_Notify_A_invArgument__C                                        
8284a368  ti_sdo_ipc_Notify_A_notRegistered__C                                      
8284a36c  ti_sdo_ipc_Notify_A_reservedEvent__C                                      
8282a760  ti_sdo_ipc_Notify_Instance_finalize__E                                    
8281b460  ti_sdo_ipc_Notify_Instance_init__E                                        
82831880  ti_sdo_ipc_Notify_Module_GateProxy_Handle__label__S                       
82832880  ti_sdo_ipc_Notify_Module_GateProxy_enter__E                               
828328a0  ti_sdo_ipc_Notify_Module_GateProxy_leave__E                               
82833260  ti_sdo_ipc_Notify_Module_GateProxy_query__E                               
8284f3b0  ti_sdo_ipc_Notify_Module_State_0_notifyHandles_0__A                       
8284f3b8  ti_sdo_ipc_Notify_Module_State_0_notifyHandles__A                         
8284a370  ti_sdo_ipc_Notify_Module__diagsEnabled__C                                 
8284a374  ti_sdo_ipc_Notify_Module__diagsIncluded__C                                
8284a378  ti_sdo_ipc_Notify_Module__diagsMask__C                                    
8284a37c  ti_sdo_ipc_Notify_Module__gateObj__C                                      
8284a0ca  ti_sdo_ipc_Notify_Module__id__C                                           
8284f2b8  ti_sdo_ipc_Notify_Module__root__V                                         
8284f2c0  ti_sdo_ipc_Notify_Module__state__V                                        
82828800  ti_sdo_ipc_Notify_Module_startup__E                                       
82849cd0  ti_sdo_ipc_Notify_Object__DESC__C                                         
8284a160  ti_sdo_ipc_Notify_Object__PARAMS__C                                       
8284a380  ti_sdo_ipc_Notify_Object__heap__C                                         
82832a80  ti_sdo_ipc_Notify_SetupProxy_attach__E                                    
82832aa0  ti_sdo_ipc_Notify_SetupProxy_numIntLines__E                               
82832ac0  ti_sdo_ipc_Notify_SetupProxy_sharedMemReq__E                              
82828920  ti_sdo_ipc_Notify_create                                                  
828292c0  ti_sdo_ipc_Notify_exec__E                                                 
828292c0  ti_sdo_ipc_Notify_exec__F                                                 
8284a384  ti_sdo_ipc_Notify_numEvents__C                                            
8284a0ea  ti_sdo_ipc_Notify_numLines__C                                             
8284a10a  ti_sdo_ipc_Notify_reservedEvents__C                                       
8284a388  ti_sdo_ipc_SharedRegion_A_addrOutOfRange__C                               
8284a38c  ti_sdo_ipc_SharedRegion_A_idTooLarge__C                                   
8284a390  ti_sdo_ipc_SharedRegion_A_noHeap__C                                       
8284a394  ti_sdo_ipc_SharedRegion_A_region0Invalid__C                               
8284a398  ti_sdo_ipc_SharedRegion_A_regionInvalid__C                                
8284a39c  ti_sdo_ipc_SharedRegion_A_reserveTooMuch__C                               
8284a3a0  ti_sdo_ipc_SharedRegion_INVALIDSRPTR__C                                   
8284ea08  ti_sdo_ipc_SharedRegion_Module_State_0_regions__A                         
8284a3a4  ti_sdo_ipc_SharedRegion_Module__diagsEnabled__C                           
8284a3a8  ti_sdo_ipc_SharedRegion_Module__diagsIncluded__C                          
8284a3ac  ti_sdo_ipc_SharedRegion_Module__diagsMask__C                              
8284a12a  ti_sdo_ipc_SharedRegion_Module__id__C                                     
8284f14c  ti_sdo_ipc_SharedRegion_Module__state__V                                  
828293c0  ti_sdo_ipc_SharedRegion_attach__E                                         
828293c0  ti_sdo_ipc_SharedRegion_attach__F                                         
8282a840  ti_sdo_ipc_SharedRegion_clearReservedMemory__E                            
8282a840  ti_sdo_ipc_SharedRegion_clearReservedMemory__F                            
8284a768  ti_sdo_ipc_SharedRegion_numEntries__C                                     
8284a3b0  ti_sdo_ipc_SharedRegion_numOffsetBits__C                                  
8284a3b4  ti_sdo_ipc_SharedRegion_offsetMask__C                                     
8281c8e0  ti_sdo_ipc_SharedRegion_reserveMemory__E                                  
8281c8e0  ti_sdo_ipc_SharedRegion_reserveMemory__F                                  
82821e40  ti_sdo_ipc_SharedRegion_start__E                                          
82821e40  ti_sdo_ipc_SharedRegion_start__F                                          
8284a76a  ti_sdo_ipc_SharedRegion_translate__C                                      
8284a3b8  ti_sdo_ipc_gates_GateHWSem_A_invSemNum__C                                 
82831100  ti_sdo_ipc_gates_GateHWSem_Handle__label__S                               
82828a40  ti_sdo_ipc_gates_GateHWSem_Instance_init__E                               
8284982c  ti_sdo_ipc_gates_GateHWSem_Module__FXNS__C                                
8284a3bc  ti_sdo_ipc_gates_GateHWSem_Module__diagsEnabled__C                        
8284a3c0  ti_sdo_ipc_gates_GateHWSem_Module__diagsIncluded__C                       
8284a3c4  ti_sdo_ipc_gates_GateHWSem_Module__diagsMask__C                           
8284a76c  ti_sdo_ipc_gates_GateHWSem_Module__id__C                                  
8284f2c8  ti_sdo_ipc_gates_GateHWSem_Module__root__V                                
8282e740  ti_sdo_ipc_gates_GateHWSem_Module_startup__E                              
82849cf0  ti_sdo_ipc_gates_GateHWSem_Object__DESC__C                                
82849a34  ti_sdo_ipc_gates_GateHWSem_Object__PARAMS__C                              
8282e7c0  ti_sdo_ipc_gates_GateHWSem_Object__create__S                              
82831140  ti_sdo_ipc_gates_GateHWSem_Object__delete__S                              
828328c0  ti_sdo_ipc_gates_GateHWSem_Params__init__S                                
8284a3c8  ti_sdo_ipc_gates_GateHWSem_baseAddr__C                                    
8282e840  ti_sdo_ipc_gates_GateHWSem_create                                         
828294c0  ti_sdo_ipc_gates_GateHWSem_enter__E                                       
828328e0  ti_sdo_ipc_gates_GateHWSem_getReservedMask__E                             
82831180  ti_sdo_ipc_gates_GateHWSem_leave__E                                       
8284a3cc  ti_sdo_ipc_gates_GateHWSem_numSems__C                                     
82832900  ti_sdo_ipc_gates_GateHWSem_query__E                                       
8284a3d0  ti_sdo_ipc_gates_GateHWSem_reservedMaskArr__A                             
8284a3d4  ti_sdo_ipc_gates_GateHWSem_reservedMaskArr__C                             
82832920  ti_sdo_ipc_gates_GateHWSem_sharedMemReq__E                                
8284a3d8  ti_sdo_ipc_gates_GateMPSupportNull_A_invalidAction__C                     
828311c0  ti_sdo_ipc_gates_GateMPSupportNull_Handle__label__S                       
82832940  ti_sdo_ipc_gates_GateMPSupportNull_Instance_init__E                       
82849858  ti_sdo_ipc_gates_GateMPSupportNull_Module__FXNS__C                        
8284a3dc  ti_sdo_ipc_gates_GateMPSupportNull_Module__diagsEnabled__C                
8284a3e0  ti_sdo_ipc_gates_GateMPSupportNull_Module__diagsIncluded__C               
8284a3e4  ti_sdo_ipc_gates_GateMPSupportNull_Module__diagsMask__C                   
8284a76e  ti_sdo_ipc_gates_GateMPSupportNull_Module__id__C                          
8284f2d0  ti_sdo_ipc_gates_GateMPSupportNull_Module__root__V                        
82849d10  ti_sdo_ipc_gates_GateMPSupportNull_Object__DESC__C                        
82849a58  ti_sdo_ipc_gates_GateMPSupportNull_Object__PARAMS__C                      
8282e8c0  ti_sdo_ipc_gates_GateMPSupportNull_Object__create__S                      
82831200  ti_sdo_ipc_gates_GateMPSupportNull_Object__delete__S                      
82832960  ti_sdo_ipc_gates_GateMPSupportNull_Params__init__S                        
8284a3e8  ti_sdo_ipc_gates_GateMPSupportNull_action__C                              
8282e940  ti_sdo_ipc_gates_GateMPSupportNull_create                                 
8282a920  ti_sdo_ipc_gates_GateMPSupportNull_enter__E                               
82832980  ti_sdo_ipc_gates_GateMPSupportNull_getReservedMask__E                     
8282aa00  ti_sdo_ipc_gates_GateMPSupportNull_leave__E                               
828329a0  ti_sdo_ipc_gates_GateMPSupportNull_query__E                               
828329c0  ti_sdo_ipc_gates_GateMPSupportNull_sharedMemReq__E                        
8284a3ec  ti_sdo_ipc_gates_GatePeterson_E_gateRemotelyOpened__C                     
82831240  ti_sdo_ipc_gates_GatePeterson_Handle__label__S                            
82831280  ti_sdo_ipc_gates_GatePeterson_Instance_finalize__E                        
8281a7a0  ti_sdo_ipc_gates_GatePeterson_Instance_init__E                            
82849884  ti_sdo_ipc_gates_GatePeterson_Module__FXNS__C                             
8284a3f0  ti_sdo_ipc_gates_GatePeterson_Module__diagsEnabled__C                     
8284a3f4  ti_sdo_ipc_gates_GatePeterson_Module__diagsIncluded__C                    
8284a3f8  ti_sdo_ipc_gates_GatePeterson_Module__diagsMask__C                        
8284a770  ti_sdo_ipc_gates_GatePeterson_Module__id__C                               
8284f2d8  ti_sdo_ipc_gates_GatePeterson_Module__root__V                             
82849d30  ti_sdo_ipc_gates_GatePeterson_Object__DESC__C                             
82849a7c  ti_sdo_ipc_gates_GatePeterson_Object__PARAMS__C                           
8282bba0  ti_sdo_ipc_gates_GatePeterson_Object__create__S                           
82830040  ti_sdo_ipc_gates_GatePeterson_Object__delete__S                           
828329e0  ti_sdo_ipc_gates_GatePeterson_Params__init__S                             
8282bc60  ti_sdo_ipc_gates_GatePeterson_create                                      
828273c0  ti_sdo_ipc_gates_GatePeterson_enter__E                                    
82832a00  ti_sdo_ipc_gates_GatePeterson_getReservedMask__E                          
8282d120  ti_sdo_ipc_gates_GatePeterson_leave__E                                    
8284a3fc  ti_sdo_ipc_gates_GatePeterson_numInstances__C                             
8282d1c0  ti_sdo_ipc_gates_GatePeterson_postInit__I                                 
82832a20  ti_sdo_ipc_gates_GatePeterson_query__E                                    
828300a0  ti_sdo_ipc_gates_GatePeterson_sharedMemReq__E                             
8284a400  ti_sdo_ipc_heaps_HeapMemMP_A_align__C                                     
8284a404  ti_sdo_ipc_heaps_HeapMemMP_A_heapSize__C                                  
8284a408  ti_sdo_ipc_heaps_HeapMemMP_A_invalidFree__C                               
8284a40c  ti_sdo_ipc_heaps_HeapMemMP_A_zeroBlock__C                                 
8284a410  ti_sdo_ipc_heaps_HeapMemMP_E_memory__C                                    
828312c0  ti_sdo_ipc_heaps_HeapMemMP_Handle__label__S                               
8282aae0  ti_sdo_ipc_heaps_HeapMemMP_Instance_finalize__E                           
828158a0  ti_sdo_ipc_heaps_HeapMemMP_Instance_init__E                               
828498b0  ti_sdo_ipc_heaps_HeapMemMP_Module__FXNS__C                                
8284a414  ti_sdo_ipc_heaps_HeapMemMP_Module__diagsEnabled__C                        
8284a418  ti_sdo_ipc_heaps_HeapMemMP_Module__diagsIncluded__C                       
8284a41c  ti_sdo_ipc_heaps_HeapMemMP_Module__diagsMask__C                           
8284a772  ti_sdo_ipc_heaps_HeapMemMP_Module__id__C                                  
8284f2e0  ti_sdo_ipc_heaps_HeapMemMP_Module__root__V                                
8284f1ec  ti_sdo_ipc_heaps_HeapMemMP_Module__state__V                               
82849d50  ti_sdo_ipc_heaps_HeapMemMP_Object__DESC__C                                
828497a4  ti_sdo_ipc_heaps_HeapMemMP_Object__PARAMS__C                              
8282bd20  ti_sdo_ipc_heaps_HeapMemMP_Object__create__S                              
82830100  ti_sdo_ipc_heaps_HeapMemMP_Object__delete__S                              
82832a40  ti_sdo_ipc_heaps_HeapMemMP_Params__init__S                                
82810380  ti_sdo_ipc_heaps_HeapMemMP_alloc__E                                       
8282bde0  ti_sdo_ipc_heaps_HeapMemMP_create                                         
82814960  ti_sdo_ipc_heaps_HeapMemMP_free__E                                        
828295c0  ti_sdo_ipc_heaps_HeapMemMP_getStats__E                                    
82832a60  ti_sdo_ipc_heaps_HeapMemMP_isBlocking__E                                  
8281d420  ti_sdo_ipc_heaps_HeapMemMP_postInit__I                                    
8284a420  ti_sdo_ipc_interfaces_IGateMPSupport_Interface__BASE__C                   
8284a424  ti_sdo_ipc_interfaces_IMessageQTransport_Interface__BASE__C               
8284a428  ti_sdo_ipc_interfaces_INetworkTransport_Interface__BASE__C                
8284a42c  ti_sdo_ipc_interfaces_ITransport_Interface__BASE__C                       
82832a80  ti_sdo_ipc_notifyDrivers_NotifySetupNull_attach__E                        
82832aa0  ti_sdo_ipc_notifyDrivers_NotifySetupNull_numIntLines__E                   
82832ac0  ti_sdo_ipc_notifyDrivers_NotifySetupNull_sharedMemReq__E                  
8284a430  ti_sdo_ipc_nsremote_NameServerRemoteNotify_A_invalidValueLen__C           
8284a434  ti_sdo_ipc_nsremote_NameServerRemoteNotify_A_messageSize__C               
82831300  ti_sdo_ipc_nsremote_NameServerRemoteNotify_Handle__label__S               
8284a438  ti_sdo_ipc_nsremote_NameServerRemoteNotify_Instance_State_semMultiBlock__O
8284a43c  ti_sdo_ipc_nsremote_NameServerRemoteNotify_Instance_State_semRemoteWait__O
8284a440  ti_sdo_ipc_nsremote_NameServerRemoteNotify_Instance_State_swiRequest__O   
8284a444  ti_sdo_ipc_nsremote_NameServerRemoteNotify_Instance_State_swiResponse__O  
8282abc0  ti_sdo_ipc_nsremote_NameServerRemoteNotify_Instance_finalize__E           
82813920  ti_sdo_ipc_nsremote_NameServerRemoteNotify_Instance_init__E               
828498d8  ti_sdo_ipc_nsremote_NameServerRemoteNotify_Module__FXNS__C                
8284a448  ti_sdo_ipc_nsremote_NameServerRemoteNotify_Module__diagsEnabled__C        
8284a44c  ti_sdo_ipc_nsremote_NameServerRemoteNotify_Module__diagsIncluded__C       
8284a450  ti_sdo_ipc_nsremote_NameServerRemoteNotify_Module__diagsMask__C           
8284a774  ti_sdo_ipc_nsremote_NameServerRemoteNotify_Module__id__C                  
8284f2e8  ti_sdo_ipc_nsremote_NameServerRemoteNotify_Module__root__V                
82849d70  ti_sdo_ipc_nsremote_NameServerRemoteNotify_Object__DESC__C                
82849d90  ti_sdo_ipc_nsremote_NameServerRemoteNotify_Object__PARAMS__C              
8282bea0  ti_sdo_ipc_nsremote_NameServerRemoteNotify_Object__create__S              
82830160  ti_sdo_ipc_nsremote_NameServerRemoteNotify_Object__delete__S              
82832ae0  ti_sdo_ipc_nsremote_NameServerRemoteNotify_Object__first__S               
82832b00  ti_sdo_ipc_nsremote_NameServerRemoteNotify_Object__next__S                
82832b20  ti_sdo_ipc_nsremote_NameServerRemoteNotify_Params__init__S                
82827500  ti_sdo_ipc_nsremote_NameServerRemoteNotify_attach__E                      
82827640  ti_sdo_ipc_nsremote_NameServerRemoteNotify_cbFxn__I                       
8282bf60  ti_sdo_ipc_nsremote_NameServerRemoteNotify_create                         
82832b40  ti_sdo_ipc_nsremote_NameServerRemoteNotify_delete                         
8282d260  ti_sdo_ipc_nsremote_NameServerRemoteNotify_detach__E                      
82819140  ti_sdo_ipc_nsremote_NameServerRemoteNotify_get__E                         
82819140  ti_sdo_ipc_nsremote_NameServerRemoteNotify_get__F                         
8284a454  ti_sdo_ipc_nsremote_NameServerRemoteNotify_notifyEventId__C               
82832b60  ti_sdo_ipc_nsremote_NameServerRemoteNotify_sharedMemReq__E                
82822040  ti_sdo_ipc_nsremote_NameServerRemoteNotify_swiFxnRequest__I               
82831340  ti_sdo_ipc_nsremote_NameServerRemoteNotify_swiFxnResponse__I              
8284a458  ti_sdo_ipc_nsremote_NameServerRemoteNotify_timeout__C                     
8284f3c0  ti_sdo_ipc_transports_TransportShmSetup_Module_State_0_handles__A         
8284f204  ti_sdo_ipc_transports_TransportShmSetup_Module__state__V                  
8282aca0  ti_sdo_ipc_transports_TransportShmSetup_attach__E                         
82832b80  ti_sdo_ipc_transports_TransportShmSetup_isRegistered__E                   
8284a45c  ti_sdo_ipc_transports_TransportShmSetup_priority__C                       
82831380  ti_sdo_ipc_transports_TransportShmSetup_sharedMemReq__E                   
828313c0  ti_sdo_ipc_transports_TransportShm_Handle__label__S                       
8284a460  ti_sdo_ipc_transports_TransportShm_Instance_State_swiObj__O               
82824360  ti_sdo_ipc_transports_TransportShm_Instance_finalize__E                   
828127c0  ti_sdo_ipc_transports_TransportShm_Instance_init__E                       
82849900  ti_sdo_ipc_transports_TransportShm_Module__FXNS__C                        
8284a464  ti_sdo_ipc_transports_TransportShm_Module__diagsEnabled__C                
8284a468  ti_sdo_ipc_transports_TransportShm_Module__diagsIncluded__C               
8284a46c  ti_sdo_ipc_transports_TransportShm_Module__diagsMask__C                   
8284a776  ti_sdo_ipc_transports_TransportShm_Module__id__C                          
8284f2f0  ti_sdo_ipc_transports_TransportShm_Module__root__V                        
82849db0  ti_sdo_ipc_transports_TransportShm_Object__DESC__C                        
82849928  ti_sdo_ipc_transports_TransportShm_Object__PARAMS__C                      
8282c020  ti_sdo_ipc_transports_TransportShm_Object__create__S                      
828301c0  ti_sdo_ipc_transports_TransportShm_Object__delete__S                      
82832ba0  ti_sdo_ipc_transports_TransportShm_Params__init__S                        
82832bc0  ti_sdo_ipc_transports_TransportShm_control__E                             
8282c0e0  ti_sdo_ipc_transports_TransportShm_create                                 
82832be0  ti_sdo_ipc_transports_TransportShm_getStatus__E                           
8284a778  ti_sdo_ipc_transports_TransportShm_notifyEventId__C                       
82832c00  ti_sdo_ipc_transports_TransportShm_notifyFxn__I                           
82824500  ti_sdo_ipc_transports_TransportShm_openByAddr__E                          
828246a0  ti_sdo_ipc_transports_TransportShm_put__E                                 
82832c20  ti_sdo_ipc_transports_TransportShm_setErrFxn__E                           
8282d300  ti_sdo_ipc_transports_TransportShm_sharedMemReq__E                        
8282e9c0  ti_sdo_ipc_transports_TransportShm_swiFxn__I                              
8284a470  ti_sdo_utils_INameServerRemote_Interface__BASE__C                         
82832c40  ti_sdo_utils_List_Instance_init__E                                        
8284f2f8  ti_sdo_utils_List_Module__root__V                                         
82849dd0  ti_sdo_utils_List_Object__DESC__C                                         
8284a178  ti_sdo_utils_List_Object__PARAMS__C                                       
82832c60  ti_sdo_utils_List_Object__get__S                                          
82830220  ti_sdo_utils_List_construct                                               
82831400  ti_sdo_utils_List_dequeue__E                                              
82832c80  ti_sdo_utils_List_destruct                                                
82832ca0  ti_sdo_utils_List_enqueueHead__E                                          
82832cc0  ti_sdo_utils_List_enqueue__E                                              
82832ce0  ti_sdo_utils_List_get__E                                                  
82832d00  ti_sdo_utils_List_next__E                                                 
82832d20  ti_sdo_utils_List_putHead__E                                              
82832d40  ti_sdo_utils_List_put__E                                                  
82832d60  ti_sdo_utils_List_remove__E                                               
8284a474  ti_sdo_utils_MultiProc_A_invalidMultiProcId__C                            
8284f3f0  ti_sdo_utils_MultiProc_Module_State_0_clusterProcList__A                  
8284f300  ti_sdo_utils_MultiProc_Module__state__V                                   
82832d80  ti_sdo_utils_MultiProc_getClusterId__E                                    
82832d80  ti_sdo_utils_MultiProc_getClusterId__F                                    
8284a77a  ti_sdo_utils_MultiProc_numProcessors__C                                   
8284a77c  ti_sdo_utils_MultiProc_numProcsInCluster__C                               
8284a478  ti_sdo_utils_MultiProc_procAddrMode__C                                    
8284a47c  ti_sdo_utils_NameServer_A_invArgument__C                                  
8284a480  ti_sdo_utils_NameServer_A_invalidLen__C                                   
8284a484  ti_sdo_utils_NameServer_E_entryExists__C                                  
8284a488  ti_sdo_utils_NameServer_E_maxReached__C                                   
8284a48c  ti_sdo_utils_NameServer_Instance_State_freeList__O                        
8284a490  ti_sdo_utils_NameServer_Instance_State_nameList__O                        
8284f3c8  ti_sdo_utils_NameServer_Module_State_0_nsRemoteHandle__A                  
8284a494  ti_sdo_utils_NameServer_Module__diagsEnabled__C                           
8284a498  ti_sdo_utils_NameServer_Module__diagsIncluded__C                          
8284a49c  ti_sdo_utils_NameServer_Module__diagsMask__C                              
8284a77e  ti_sdo_utils_NameServer_Module__id__C                                     
8284f308  ti_sdo_utils_NameServer_Module__root__V                                   
82832da0  ti_sdo_utils_NameServer_Module__startupDone__F                            
82832da0  ti_sdo_utils_NameServer_Module__startupDone__S                            
8284f270  ti_sdo_utils_NameServer_Module__state__V                                  
8282d3a0  ti_sdo_utils_NameServer_Module_startup__E                                 
8284a4a0  ti_sdo_utils_NameServer_Object__count__C                                  
82832dc0  ti_sdo_utils_NameServer_Object__first__S                                  
82831440  ti_sdo_utils_NameServer_Object__get__S                                    
82832de0  ti_sdo_utils_NameServer_Object__next__S                                   
8284e880  ti_sdo_utils_NameServer_Object__table__V                                  
82831300  ti_sdo_utils_NameServer_SetupProxy_Handle__label__S                       
82832b20  ti_sdo_utils_NameServer_SetupProxy_Params__init__S                        
82827500  ti_sdo_utils_NameServer_SetupProxy_attach__E                              
8282d260  ti_sdo_utils_NameServer_SetupProxy_detach__E                              
82832b60  ti_sdo_utils_NameServer_SetupProxy_sharedMemReq__E                        
8282ad80  ti_sdo_utils_NameServer_findLocal__I                                      
8281f120  ti_sdo_utils_NameServer_isRegistered__E                                   
8282d440  ti_sdo_utils_NameServer_postInit__I                                       
8281e6e0  ti_sdo_utils_NameServer_registerRemoteDriver__E                           
82828b60  ti_sdo_utils_NameServer_removeLocal__I                                    
8281e980  ti_sdo_utils_NameServer_unregisterRemoteDriver__E                         
8284f084  ti_sysbios_BIOS_Module__state__V                                          
828317c0  ti_sysbios_BIOS_RtsGateProxy_Handle__label__S                             
82832e00  ti_sysbios_BIOS_RtsGateProxy_enter__E                                     
82832e20  ti_sysbios_BIOS_RtsGateProxy_leave__E                                     
82833220  ti_sysbios_BIOS_RtsGateProxy_query__E                                     
8282ea40  ti_sysbios_BIOS_atExitFunc__I                                             
82830280  ti_sysbios_BIOS_errorRaiseHook__I                                         
82831480  ti_sysbios_BIOS_exitFunc__I                                               
82832e40  ti_sysbios_BIOS_exit__E                                                   
82832e60  ti_sysbios_BIOS_linkedWithIncorrectBootLibrary__E                         
82832e80  ti_sysbios_BIOS_nullFunc__I                                               
8282eac0  ti_sysbios_BIOS_registerRTSLock__I                                        
828302e0  ti_sysbios_BIOS_removeRTSLock__I                                          
828314c0  ti_sysbios_BIOS_rtsLock__I                                                
82831500  ti_sysbios_BIOS_rtsUnlock__I                                              
82832ea0  ti_sysbios_BIOS_setThreadType__E                                          
82830340  ti_sysbios_BIOS_startFunc__I                                              
82832ec0  ti_sysbios_BIOS_start__E                                                  
82832ee0  ti_sysbios_family_c62_TaskSupport_Module__startupDone__S                  
82831040  ti_sysbios_family_c62_TaskSupport_buildTaskStack                          
82832f00  ti_sysbios_family_c62_TaskSupport_checkStack__E                           
82832f20  ti_sysbios_family_c62_TaskSupport_getStackAlignment__E                    
82832500  ti_sysbios_family_c62_TaskSupport_glue                                    
8284a4a4  ti_sysbios_family_c62_TaskSupport_stackAlignment__C                       
828303a0  ti_sysbios_family_c62_TaskSupport_start__E                                
8282e340  ti_sysbios_family_c62_TaskSupport_swap__E                                 
8284a4a8  ti_sysbios_family_c64p_EventCombiner_A_invalidEventId__C                  
8284a278  ti_sysbios_family_c64p_EventCombiner_EVTMASK__C                           
8284a4ac  ti_sysbios_family_c64p_EventCombiner_EVTRegs__C                           
8284a4b0  ti_sysbios_family_c64p_EventCombiner_E_unpluggedEvent__C                  
8284a4b4  ti_sysbios_family_c64p_EventCombiner_Module__diagsEnabled__C              
8284a4b8  ti_sysbios_family_c64p_EventCombiner_Module__diagsIncluded__C             
8284a4bc  ti_sysbios_family_c64p_EventCombiner_Module__diagsMask__C                 
8284a780  ti_sysbios_family_c64p_EventCombiner_Module__id__C                        
8284dea0  ti_sysbios_family_c64p_EventCombiner_Module__state__V                     
82830400  ti_sysbios_family_c64p_EventCombiner_Module_startup__E                    
82822600  ti_sysbios_family_c64p_EventCombiner_dispatchPlug__E                      
82824840  ti_sysbios_family_c64p_EventCombiner_enableEvent__E                       
82830460  ti_sysbios_family_c64p_EventCombiner_unused__E                            
8284a4c0  ti_sysbios_family_c64p_Exception_E_exceptionMax__C                        
8284a782  ti_sysbios_family_c64p_Exception_Module__id__C                            
8284eff8  ti_sysbios_family_c64p_Exception_Module__state__V                         
8282d4e0  ti_sysbios_family_c64p_Exception_Module_startup__E                        
82825380  ti_sysbios_family_c64p_Exception_dispatch__E                              
8284a4c4  ti_sysbios_family_c64p_Exception_exceptionHook__C                         
8284a4c8  ti_sysbios_family_c64p_Exception_externalHook__C                          
8280bec0  ti_sysbios_family_c64p_Exception_handler__I                               
8281fd00  ti_sysbios_family_c64p_Exception_internalHandler__I                       
8284a4cc  ti_sysbios_family_c64p_Exception_internalHook__C                          
8284a4d0  ti_sysbios_family_c64p_Exception_nmiHook__C                               
8284a784  ti_sysbios_family_c64p_Exception_useInternalBuffer__C                     
8284f400  ti_sysbios_family_c64p_Hwi0                                               
8284a4d4  ti_sysbios_family_c64p_Hwi_INTRMUX1Address__C                             
8284a4d8  ti_sysbios_family_c64p_Hwi_LD_end__C                                      
8284a4dc  ti_sysbios_family_c64p_Hwi_LM_begin__C                                    
8284a4e0  ti_sysbios_family_c64p_Hwi_Module__diagsEnabled__C                        
8284a4e4  ti_sysbios_family_c64p_Hwi_Module__diagsIncluded__C                       
8284a4e8  ti_sysbios_family_c64p_Hwi_Module__diagsMask__C                           
8284a786  ti_sysbios_family_c64p_Hwi_Module__id__C                                  
8284a788  ti_sysbios_family_c64p_Hwi_Module__loggerDefined__C                       
8284a4ec  ti_sysbios_family_c64p_Hwi_Module__loggerFxn1__C                          
8284a4f0  ti_sysbios_family_c64p_Hwi_Module__loggerFxn8__C                          
8284a4f4  ti_sysbios_family_c64p_Hwi_Module__loggerObj__C                           
82832f40  ti_sysbios_family_c64p_Hwi_Module__startupDone__F                         
82832f40  ti_sysbios_family_c64p_Hwi_Module__startupDone__S                         
8284ed98  ti_sysbios_family_c64p_Hwi_Module__state__V                               
828260a0  ti_sysbios_family_c64p_Hwi_Module_startup__E                              
8284f150  ti_sysbios_family_c64p_Hwi_Object__table__V                               
82832f60  ti_sysbios_family_c64p_Hwi_clearInterrupt__E                              
82831540  ti_sysbios_family_c64p_Hwi_disableInterrupt__E                            
82821a40  ti_sysbios_family_c64p_Hwi_dispatchAlways                                 
8282d580  ti_sysbios_family_c64p_Hwi_dispatchC__I                                   
8281f3a0  ti_sysbios_family_c64p_Hwi_dispatchCore__I                                
82831580  ti_sysbios_family_c64p_Hwi_enableInterrupt__E                             
8282d620  ti_sysbios_family_c64p_Hwi_getStackInfo__E                                
8284f400  ti_sysbios_family_c64p_Hwi_int0                                           
8284f420  ti_sysbios_family_c64p_Hwi_int1                                           
8284f540  ti_sysbios_family_c64p_Hwi_int10                                          
8284f560  ti_sysbios_family_c64p_Hwi_int11                                          
8284f580  ti_sysbios_family_c64p_Hwi_int12                                          
8284f5a0  ti_sysbios_family_c64p_Hwi_int13                                          
8284f5c0  ti_sysbios_family_c64p_Hwi_int14                                          
8284f5e0  ti_sysbios_family_c64p_Hwi_int15                                          
8284f440  ti_sysbios_family_c64p_Hwi_int2                                           
8284f460  ti_sysbios_family_c64p_Hwi_int3                                           
8284f480  ti_sysbios_family_c64p_Hwi_int4                                           
8284f4a0  ti_sysbios_family_c64p_Hwi_int5                                           
8284f4c0  ti_sysbios_family_c64p_Hwi_int6                                           
8284f4e0  ti_sysbios_family_c64p_Hwi_int7                                           
8284f500  ti_sysbios_family_c64p_Hwi_int8                                           
8284f520  ti_sysbios_family_c64p_Hwi_int9                                           
82832f80  ti_sysbios_family_c64p_Hwi_startup__E                                     
8282fc80  ti_sysbios_family_c64p_Hwi_switchAndDispatch__I                           
82832fa0  ti_sysbios_family_c64p_Hwi_switchFromBootStack__E                         
82832fc0  ti_sysbios_family_c64p_TimestampProvider_Module_startup__E                
82832fe0  ti_sysbios_family_c64p_TimestampProvider_get64__E                         
82833000  ti_sysbios_family_c64p_tci6488_TimerSupport_enable__E                     
8284a4f8  ti_sysbios_family_c66_Cache_E_invalidL1CacheSize__C                       
8284a4fc  ti_sysbios_family_c66_Cache_E_invalidL2CacheSize__C                       
8284a78a  ti_sysbios_family_c66_Cache_Module__id__C                                 
828304c0  ti_sysbios_family_c66_Cache_Module_startup__E                             
82833020  ti_sysbios_family_c66_Cache_RTSSynchInv__I                                
82833040  ti_sysbios_family_c66_Cache_RTSSynchWbInv__I                              
82833060  ti_sysbios_family_c66_Cache_RTSSynchWb__I                                 
8284a500  ti_sysbios_family_c66_Cache_atomicBlockSize__C                            
828249e0  ti_sysbios_family_c66_Cache_block__I                                      
82824b80  ti_sysbios_family_c66_Cache_getL2InitSize__I                              
82833080  ti_sysbios_family_c66_Cache_inv__E                                        
00008000  ti_sysbios_family_c66_Cache_l1dSize                                       
00008000  ti_sysbios_family_c66_Cache_l1pSize                                       
00000000  ti_sysbios_family_c66_Cache_l2Size                                        
82848720  ti_sysbios_family_c66_Cache_marvalues__C                                  
8284a78c  ti_sysbios_family_c66_Cache_registerRTSSynch__C                           
8281a0c0  ti_sysbios_family_c66_Cache_startup__I                                    
828330a0  ti_sysbios_family_c66_Cache_wait__E                                       
828330c0  ti_sysbios_family_c66_Cache_wbInv__E                                      
8284a504  ti_sysbios_family_c66_tci66xx_CpIntc_E_unpluggedSysInt__C                 
8284f218  ti_sysbios_family_c66_tci66xx_CpIntc_Module_State_0_controller__A         
8284d9a0  ti_sysbios_family_c66_tci66xx_CpIntc_Module_State_0_dispatchTab__A        
8284e970  ti_sysbios_family_c66_tci66xx_CpIntc_Module_State_0_hostIntToSysInt__A    
8284f1f0  ti_sysbios_family_c66_tci66xx_CpIntc_Module_State_0_initSIER__A           
8284a78e  ti_sysbios_family_c66_tci66xx_CpIntc_Module__id__C                        
8284f228  ti_sysbios_family_c66_tci66xx_CpIntc_Module__state__V                     
8281aae0  ti_sysbios_family_c66_tci66xx_CpIntc_Module_startup__E                    
828315c0  ti_sysbios_family_c66_tci66xx_CpIntc_dispatchPlug__E                      
828230e0  ti_sysbios_family_c66_tci66xx_CpIntc_dispatch__E                          
828330e0  ti_sysbios_family_c66_tci66xx_CpIntc_enableHostInt__E                     
8284a010  ti_sysbios_family_c66_tci66xx_CpIntc_eventId__A                           
8284a508  ti_sysbios_family_c66_tci66xx_CpIntc_eventId__C                           
8282eb40  ti_sysbios_family_c66_tci66xx_CpIntc_getEventId__E                        
8284a030  ti_sysbios_family_c66_tci66xx_CpIntc_hostIntToEventId_0__A                
8284a050  ti_sysbios_family_c66_tci66xx_CpIntc_hostIntToEventId_1__A                
8284a070  ti_sysbios_family_c66_tci66xx_CpIntc_hostIntToEventId_2__A                
8284a090  ti_sysbios_family_c66_tci66xx_CpIntc_hostIntToEventId_3__A                
8284a0b0  ti_sysbios_family_c66_tci66xx_CpIntc_hostIntToEventId_4__A                
8284a0d0  ti_sysbios_family_c66_tci66xx_CpIntc_hostIntToEventId_5__A                
8284a0f0  ti_sysbios_family_c66_tci66xx_CpIntc_hostIntToEventId_6__A                
8284a110  ti_sysbios_family_c66_tci66xx_CpIntc_hostIntToEventId_7__A                
82849df0  ti_sysbios_family_c66_tci66xx_CpIntc_hostIntToEventId__A                  
8284a50c  ti_sysbios_family_c66_tci66xx_CpIntc_hostIntToEventId__C                  
8282d6c0  ti_sysbios_family_c66_tci66xx_CpIntc_mapSysIntToHostInt__E                
8284a510  ti_sysbios_family_c66_tci66xx_CpIntc_numEvents__C                         
8284a514  ti_sysbios_family_c66_tci66xx_CpIntc_numStatusRegs__C                     
8284a518  ti_sysbios_family_c66_tci66xx_CpIntc_numSysInts__C                        
82849088  ti_sysbios_family_c66_tci66xx_CpIntc_sysIntToHostInt__A                   
8284a51c  ti_sysbios_family_c66_tci66xx_CpIntc_sysIntToHostInt__C                   
82830520  ti_sysbios_family_c66_tci66xx_CpIntc_unused__E                            
8282fce0  ti_sysbios_family_xxx_Hwi_switchAndRunFunc                                
82831600  ti_sysbios_gates_GateAll_Handle__label__S                                 
82833100  ti_sysbios_gates_GateAll_Instance_init__E                                 
82849aa0  ti_sysbios_gates_GateAll_Module__FXNS__C                                  
8284f310  ti_sysbios_gates_GateAll_Module__root__V                                  
82849e10  ti_sysbios_gates_GateAll_Object__DESC__C                                  
8284a190  ti_sysbios_gates_GateAll_Object__PARAMS__C                                
8282ebc0  ti_sysbios_gates_GateAll_Object__create__S                                
82831640  ti_sysbios_gates_GateAll_Object__delete__S                                
8284f238  ti_sysbios_gates_GateAll_Object__table__V                                 
82830580  ti_sysbios_gates_GateAll_enter__E                                         
8282c1a0  ti_sysbios_gates_GateAll_leave__E                                         
82833120  ti_sysbios_gates_GateAll_query__E                                         
82831680  ti_sysbios_gates_GateHwi_Handle__label__S                                 
82833140  ti_sysbios_gates_GateHwi_Instance_init__E                                 
82849ac4  ti_sysbios_gates_GateHwi_Module__FXNS__C                                  
8284f318  ti_sysbios_gates_GateHwi_Module__root__V                                  
82849e30  ti_sysbios_gates_GateHwi_Object__DESC__C                                  
8284a1a8  ti_sysbios_gates_GateHwi_Object__PARAMS__C                                
8282ec40  ti_sysbios_gates_GateHwi_Object__create__S                                
828316c0  ti_sysbios_gates_GateHwi_Object__delete__S                                
8284f3d0  ti_sysbios_gates_GateHwi_Object__table__V                                 
82833160  ti_sysbios_gates_GateHwi_enter__E                                         
82833180  ti_sysbios_gates_GateHwi_leave__E                                         
828331a0  ti_sysbios_gates_GateHwi_query__E                                         
8284a520  ti_sysbios_gates_GateMutexPri_A_badContext__C                             
8284a524  ti_sysbios_gates_GateMutexPri_A_enterTaskDisabled__C                      
82831700  ti_sysbios_gates_GateMutexPri_Handle__label__S                            
8284a528  ti_sysbios_gates_GateMutexPri_Instance_State_pendQ__O                     
828331c0  ti_sysbios_gates_GateMutexPri_Instance_finalize__E                        
82831740  ti_sysbios_gates_GateMutexPri_Instance_init__E                            
82849ae8  ti_sysbios_gates_GateMutexPri_Module__FXNS__C                             
8284a52c  ti_sysbios_gates_GateMutexPri_Module__diagsEnabled__C                     
8284a530  ti_sysbios_gates_GateMutexPri_Module__diagsIncluded__C                    
8284a534  ti_sysbios_gates_GateMutexPri_Module__diagsMask__C                        
8284a790  ti_sysbios_gates_GateMutexPri_Module__id__C                               
8284f320  ti_sysbios_gates_GateMutexPri_Module__root__V                             
82849e50  ti_sysbios_gates_GateMutexPri_Object__DESC__C                             
8284a1c0  ti_sysbios_gates_GateMutexPri_Object__PARAMS__C                           
8282ecc0  ti_sysbios_gates_GateMutexPri_Object__create__S                           
828305e0  ti_sysbios_gates_GateMutexPri_Object__delete__S                           
8284f168  ti_sysbios_gates_GateMutexPri_Object__table__V                            
82830640  ti_sysbios_gates_GateMutexPri_construct                                   
82831780  ti_sysbios_gates_GateMutexPri_destruct                                    
82816fa0  ti_sysbios_gates_GateMutexPri_enter__E                                    
828296c0  ti_sysbios_gates_GateMutexPri_leave__E                                    
828331e0  ti_sysbios_gates_GateMutexPri_query__E                                    
8284a538  ti_sysbios_gates_GateMutex_A_badContext__C                                
828317c0  ti_sysbios_gates_GateMutex_Handle__label__S                               
8284a53c  ti_sysbios_gates_GateMutex_Instance_State_sem__O                          
82833200  ti_sysbios_gates_GateMutex_Instance_finalize__E                           
82831800  ti_sysbios_gates_GateMutex_Instance_init__E                               
82849b0c  ti_sysbios_gates_GateMutex_Module__FXNS__C                                
8284a540  ti_sysbios_gates_GateMutex_Module__diagsEnabled__C                        
8284a544  ti_sysbios_gates_GateMutex_Module__diagsIncluded__C                       
8284a548  ti_sysbios_gates_GateMutex_Module__diagsMask__C                           
8284a792  ti_sysbios_gates_GateMutex_Module__id__C                                  
8284f328  ti_sysbios_gates_GateMutex_Module__root__V                                
82849e70  ti_sysbios_gates_GateMutex_Object__DESC__C                                
8284a1d8  ti_sysbios_gates_GateMutex_Object__PARAMS__C                              
8282ed40  ti_sysbios_gates_GateMutex_Object__create__S                              
828306a0  ti_sysbios_gates_GateMutex_Object__delete__S                              
8284efb8  ti_sysbios_gates_GateMutex_Object__table__V                               
828227e0  ti_sysbios_gates_GateMutex_enter__E                                       
82831840  ti_sysbios_gates_GateMutex_leave__E                                       
82833220  ti_sysbios_gates_GateMutex_query__E                                       
8284a54c  ti_sysbios_gates_GateSwi_A_badContext__C                                  
82831880  ti_sysbios_gates_GateSwi_Handle__label__S                                 
82833240  ti_sysbios_gates_GateSwi_Instance_init__E                                 
82849b30  ti_sysbios_gates_GateSwi_Module__FXNS__C                                  
8284a550  ti_sysbios_gates_GateSwi_Module__diagsEnabled__C                          
8284a554  ti_sysbios_gates_GateSwi_Module__diagsIncluded__C                         
8284a558  ti_sysbios_gates_GateSwi_Module__diagsMask__C                             
8284a794  ti_sysbios_gates_GateSwi_Module__id__C                                    
8284f330  ti_sysbios_gates_GateSwi_Module__root__V                                  
82849e90  ti_sysbios_gates_GateSwi_Object__DESC__C                                  
8284a1f0  ti_sysbios_gates_GateSwi_Object__PARAMS__C                                
8282edc0  ti_sysbios_gates_GateSwi_Object__create__S                                
828318c0  ti_sysbios_gates_GateSwi_Object__delete__S                                
8284f280  ti_sysbios_gates_GateSwi_Object__table__V                                 
82827780  ti_sysbios_gates_GateSwi_enter__E                                         
8282d760  ti_sysbios_gates_GateSwi_leave__E                                         
82833260  ti_sysbios_gates_GateSwi_query__E                                         
82833080  ti_sysbios_hal_Cache_CacheProxy_inv__E                                    
828330a0  ti_sysbios_hal_Cache_CacheProxy_wait__E                                   
828330c0  ti_sysbios_hal_Cache_CacheProxy_wbInv__E                                  
82833080  ti_sysbios_hal_Cache_inv__E                                               
828330a0  ti_sysbios_hal_Cache_wait__E                                              
828330c0  ti_sysbios_hal_Cache_wbInv__E                                             
8284a55c  ti_sysbios_hal_Hwi_E_stackOverflow__C                                     
82832f40  ti_sysbios_hal_Hwi_HwiProxy_Module__startupDone__S                        
82832f60  ti_sysbios_hal_Hwi_HwiProxy_clearInterrupt__E                             
82831540  ti_sysbios_hal_Hwi_HwiProxy_disableInterrupt__E                           
82831580  ti_sysbios_hal_Hwi_HwiProxy_enableInterrupt__E                            
8282d620  ti_sysbios_hal_Hwi_HwiProxy_getStackInfo__E                               
82832f80  ti_sysbios_hal_Hwi_HwiProxy_startup__E                                    
82832fa0  ti_sysbios_hal_Hwi_HwiProxy_switchFromBootStack__E                        
8284a796  ti_sysbios_hal_Hwi_Module__id__C                                          
82833280  ti_sysbios_hal_Hwi_Module_startup__E                                      
8284f338  ti_sysbios_hal_Hwi_Object__table__V                                       
8282ee40  ti_sysbios_hal_Hwi_checkStack                                             
82832f60  ti_sysbios_hal_Hwi_clearInterrupt__E                                      
82831540  ti_sysbios_hal_Hwi_disableInterrupt__E                                    
82831580  ti_sysbios_hal_Hwi_enableInterrupt__E                                     
8282d620  ti_sysbios_hal_Hwi_getStackInfo__E                                        
8282eec0  ti_sysbios_hal_Hwi_initStack                                              
82832f80  ti_sysbios_hal_Hwi_startup__E                                             
82832fa0  ti_sysbios_hal_Hwi_switchFromBootStack__E                                 
8284a560  ti_sysbios_heaps_HeapMem_A_align__C                                       
8284a564  ti_sysbios_heaps_HeapMem_A_heapSize__C                                    
8284a568  ti_sysbios_heaps_HeapMem_A_invalidFree__C                                 
8284a56c  ti_sysbios_heaps_HeapMem_A_zeroBlock__C                                   
8284a570  ti_sysbios_heaps_HeapMem_E_memory__C                                      
82831900  ti_sysbios_heaps_HeapMem_Handle__label__S                                 
82833a00  ti_sysbios_heaps_HeapMem_Instance_State_0_buf__A                          
8281cbc0  ti_sysbios_heaps_HeapMem_Instance_init__E                                 
828317c0  ti_sysbios_heaps_HeapMem_Module_GateProxy_Handle__label__S                
828332a0  ti_sysbios_heaps_HeapMem_Module_GateProxy_enter__E                        
828332c0  ti_sysbios_heaps_HeapMem_Module_GateProxy_leave__E                        
82833220  ti_sysbios_heaps_HeapMem_Module_GateProxy_query__E                        
82849950  ti_sysbios_heaps_HeapMem_Module__FXNS__C                                  
8284a574  ti_sysbios_heaps_HeapMem_Module__diagsEnabled__C                          
8284a578  ti_sysbios_heaps_HeapMem_Module__diagsIncluded__C                         
8284a57c  ti_sysbios_heaps_HeapMem_Module__diagsMask__C                             
8284a580  ti_sysbios_heaps_HeapMem_Module__gateObj__C                               
8284a798  ti_sysbios_heaps_HeapMem_Module__id__C                                    
8284f340  ti_sysbios_heaps_HeapMem_Module__root__V                                  
82849eb0  ti_sysbios_heaps_HeapMem_Object__DESC__C                                  
82849b54  ti_sysbios_heaps_HeapMem_Object__PARAMS__C                                
8284a584  ti_sysbios_heaps_HeapMem_Object__count__C                                 
8282ef40  ti_sysbios_heaps_HeapMem_Object__create__S                                
82831940  ti_sysbios_heaps_HeapMem_Object__delete__S                                
82831980  ti_sysbios_heaps_HeapMem_Object__get__S                                   
8284f180  ti_sysbios_heaps_HeapMem_Object__table__V                                 
828109a0  ti_sysbios_heaps_HeapMem_allocUnprotected__E                              
8282ae60  ti_sysbios_heaps_HeapMem_alloc__E                                         
82812dc0  ti_sysbios_heaps_HeapMem_freeUnprotected__E                               
82830700  ti_sysbios_heaps_HeapMem_free__E                                          
8282c260  ti_sysbios_heaps_HeapMem_getStats__E                                      
8282efc0  ti_sysbios_heaps_HeapMem_init__I                                          
828332e0  ti_sysbios_heaps_HeapMem_isBlocking__E                                    
8284a588  ti_sysbios_heaps_HeapMem_reqAlign__C                                      
8284a58c  ti_sysbios_knl_Clock_LM_begin__C                                          
8284a590  ti_sysbios_knl_Clock_LM_tick__C                                           
8284a594  ti_sysbios_knl_Clock_LW_delayed__C                                        
8284a598  ti_sysbios_knl_Clock_Module_State_clockQ__O                               
8284a59c  ti_sysbios_knl_Clock_Module__diagsEnabled__C                              
8284a5a0  ti_sysbios_knl_Clock_Module__diagsIncluded__C                             
8284a5a4  ti_sysbios_knl_Clock_Module__diagsMask__C                                 
8284a79a  ti_sysbios_knl_Clock_Module__id__C                                        
8284a79c  ti_sysbios_knl_Clock_Module__loggerDefined__C                             
8284a5a8  ti_sysbios_knl_Clock_Module__loggerFxn1__C                                
8284a5ac  ti_sysbios_knl_Clock_Module__loggerFxn2__C                                
8284a5b0  ti_sysbios_knl_Clock_Module__loggerObj__C                                 
8284f058  ti_sysbios_knl_Clock_Module__state__V                                     
82830760  ti_sysbios_knl_Clock_Module_startup__E                                    
82833520  ti_sysbios_knl_Clock_TimerProxy_Module__startupDone__S                    
82833300  ti_sysbios_knl_Clock_TimerProxy_getMaxTicks__E                            
8282b020  ti_sysbios_knl_Clock_TimerProxy_startup__E                                
8282f040  ti_sysbios_knl_Clock_doTick__I                                            
8282c320  ti_sysbios_knl_Clock_logTick__E                                           
8284a5b4  ti_sysbios_knl_Clock_tickPeriod__C                                        
8281d6e0  ti_sysbios_knl_Clock_workFunc__E                                          
8284a5b8  ti_sysbios_knl_Idle_funcList__A                                           
8284a298  ti_sysbios_knl_Idle_funcList__C                                           
82833320  ti_sysbios_knl_Idle_loop__E                                               
8282f0c0  ti_sysbios_knl_Idle_run__E                                                
82833340  ti_sysbios_knl_Queue_Instance_init__E                                     
8284f348  ti_sysbios_knl_Queue_Module__root__V                                      
82849ed0  ti_sysbios_knl_Queue_Object__DESC__C                                      
8284a208  ti_sysbios_knl_Queue_Object__PARAMS__C                                    
82833360  ti_sysbios_knl_Queue_Object__get__S                                       
828307c0  ti_sysbios_knl_Queue_construct                                            
82833380  ti_sysbios_knl_Queue_destruct                                             
828333a0  ti_sysbios_knl_Queue_empty__E                                             
8284a5bc  ti_sysbios_knl_Semaphore_A_badContext__C                                  
8284a5c0  ti_sysbios_knl_Semaphore_A_noEvents__C                                    
8284a5c4  ti_sysbios_knl_Semaphore_A_overflow__C                                    
8284a5c8  ti_sysbios_knl_Semaphore_A_pendTaskDisabled__C                            
8284a5cc  ti_sysbios_knl_Semaphore_Instance_State_pendQ__O                          
828333c0  ti_sysbios_knl_Semaphore_Instance_finalize__E                             
828278c0  ti_sysbios_knl_Semaphore_Instance_init__E                                 
8284a5d0  ti_sysbios_knl_Semaphore_LM_pend__C                                       
8284a5d4  ti_sysbios_knl_Semaphore_LM_post__C                                       
8284a5d8  ti_sysbios_knl_Semaphore_Module__diagsEnabled__C                          
8284a5dc  ti_sysbios_knl_Semaphore_Module__diagsIncluded__C                         
8284a5e0  ti_sysbios_knl_Semaphore_Module__diagsMask__C                             
8284a79e  ti_sysbios_knl_Semaphore_Module__id__C                                    
8284a7a0  ti_sysbios_knl_Semaphore_Module__loggerDefined__C                         
8284a5e4  ti_sysbios_knl_Semaphore_Module__loggerFxn2__C                            
8284a5e8  ti_sysbios_knl_Semaphore_Module__loggerFxn4__C                            
8284a5ec  ti_sysbios_knl_Semaphore_Module__loggerObj__C                             
8284f350  ti_sysbios_knl_Semaphore_Module__root__V                                  
82849ef0  ti_sysbios_knl_Semaphore_Object__DESC__C                                  
82849b78  ti_sysbios_knl_Semaphore_Object__PARAMS__C                                
82830820  ti_sysbios_knl_Semaphore_Object__delete__S                                
828333e0  ti_sysbios_knl_Semaphore_Params__init__S                                  
82830880  ti_sysbios_knl_Semaphore_construct                                        
8282f140  ti_sysbios_knl_Semaphore_create                                           
82833400  ti_sysbios_knl_Semaphore_delete                                           
828319c0  ti_sysbios_knl_Semaphore_destruct                                         
8282f1c0  ti_sysbios_knl_Semaphore_pendTimeout__I                                   
8280d4c0  ti_sysbios_knl_Semaphore_pend__E                                          
8281f600  ti_sysbios_knl_Semaphore_post__E                                          
8284a5f0  ti_sysbios_knl_Swi_A_badPriority__C                                       
8282af40  ti_sysbios_knl_Swi_Instance_finalize__E                                   
82825680  ti_sysbios_knl_Swi_Instance_init__E                                       
8284a5f4  ti_sysbios_knl_Swi_LD_end__C                                              
8284a5f8  ti_sysbios_knl_Swi_LM_begin__C                                            
8284a5fc  ti_sysbios_knl_Swi_LM_post__C                                             
8284eb18  ti_sysbios_knl_Swi_Module_State_0_readyQ__A                               
8284a600  ti_sysbios_knl_Swi_Module__diagsEnabled__C                                
8284a604  ti_sysbios_knl_Swi_Module__diagsIncluded__C                               
8284a608  ti_sysbios_knl_Swi_Module__diagsMask__C                                   
8284a7a2  ti_sysbios_knl_Swi_Module__id__C                                          
8284a7a4  ti_sysbios_knl_Swi_Module__loggerDefined__C                               
8284a60c  ti_sysbios_knl_Swi_Module__loggerFxn1__C                                  
8284a610  ti_sysbios_knl_Swi_Module__loggerFxn4__C                                  
8284a614  ti_sysbios_knl_Swi_Module__loggerObj__C                                   
8284f358  ti_sysbios_knl_Swi_Module__root__V                                        
8284f130  ti_sysbios_knl_Swi_Module__state__V                                       
828308e0  ti_sysbios_knl_Swi_Module_startup__E                                      
82849f10  ti_sysbios_knl_Swi_Object__DESC__C                                        
82849978  ti_sysbios_knl_Swi_Object__PARAMS__C                                      
8284a618  ti_sysbios_knl_Swi_Object__count__C                                       
82831a00  ti_sysbios_knl_Swi_Object__get__S                                         
8284f028  ti_sysbios_knl_Swi_Object__table__V                                       
82833420  ti_sysbios_knl_Swi_Params__init__S                                        
8282d800  ti_sysbios_knl_Swi_construct                                              
82831a40  ti_sysbios_knl_Swi_destruct                                               
82833440  ti_sysbios_knl_Swi_disable__E                                             
82826200  ti_sysbios_knl_Swi_post__E                                                
82828c80  ti_sysbios_knl_Swi_restoreHwi__E                                          
8281b760  ti_sysbios_knl_Swi_runLoop__I                                             
828207e0  ti_sysbios_knl_Swi_run__I                                                 
8282c3e0  ti_sysbios_knl_Swi_schedule__I                                            
8282f240  ti_sysbios_knl_Swi_startup__E                                             
8284a61c  ti_sysbios_knl_Task_A_badPriority__C                                      
8284a620  ti_sysbios_knl_Task_A_badTaskState__C                                     
8284a624  ti_sysbios_knl_Task_A_badThreadType__C                                    
8284a628  ti_sysbios_knl_Task_A_badTimeout__C                                       
8284a62c  ti_sysbios_knl_Task_A_noPendElem__C                                       
8284a630  ti_sysbios_knl_Task_A_sleepTaskDisabled__C                                
8284a634  ti_sysbios_knl_Task_E_spOutOfBounds__C                                    
8284a638  ti_sysbios_knl_Task_E_stackOverflow__C                                    
82840200  ti_sysbios_knl_Task_Instance_State_0_stack__A                             
828153a0  ti_sysbios_knl_Task_Instance_finalize__E                                  
82819d00  ti_sysbios_knl_Task_Instance_init__E                                      
8284a63c  ti_sysbios_knl_Task_LD_block__C                                           
8284a640  ti_sysbios_knl_Task_LD_exit__C                                            
8284a644  ti_sysbios_knl_Task_LD_ready__C                                           
8284a648  ti_sysbios_knl_Task_LM_setPri__C                                          
8284a64c  ti_sysbios_knl_Task_LM_sleep__C                                           
8284a650  ti_sysbios_knl_Task_LM_switch__C                                          
8284f3d8  ti_sysbios_knl_Task_Module_State_0_idleTask__A                            
8284eb98  ti_sysbios_knl_Task_Module_State_0_readyQ__A                              
8284a654  ti_sysbios_knl_Task_Module_State_inactiveQ__O                             
8284a658  ti_sysbios_knl_Task_Module__diagsEnabled__C                               
8284a65c  ti_sysbios_knl_Task_Module__diagsIncluded__C                              
8284a660  ti_sysbios_knl_Task_Module__diagsMask__C                                  
8284a7a6  ti_sysbios_knl_Task_Module__id__C                                         
8284a7a8  ti_sysbios_knl_Task_Module__loggerDefined__C                              
8284a664  ti_sysbios_knl_Task_Module__loggerFxn2__C                                 
8284a668  ti_sysbios_knl_Task_Module__loggerFxn4__C                                 
8284a66c  ti_sysbios_knl_Task_Module__loggerObj__C                                  
8284f360  ti_sysbios_knl_Task_Module__root__V                                       
8284ef70  ti_sysbios_knl_Task_Module__state__V                                      
8281ba60  ti_sysbios_knl_Task_Module_startup__E                                     
82849f30  ti_sysbios_knl_Task_Object__DESC__C                                       
828496b0  ti_sysbios_knl_Task_Object__PARAMS__C                                     
8284a670  ti_sysbios_knl_Task_Object__count__C                                      
82831a80  ti_sysbios_knl_Task_Object__get__S                                        
8284ee70  ti_sysbios_knl_Task_Object__table__V                                      
82832ee0  ti_sysbios_knl_Task_SupportProxy_Module__startupDone__S                   
82832f00  ti_sysbios_knl_Task_SupportProxy_checkStack__E                            
82832f20  ti_sysbios_knl_Task_SupportProxy_getStackAlignment__E                     
828303a0  ti_sysbios_knl_Task_SupportProxy_start__E                                 
8282e340  ti_sysbios_knl_Task_SupportProxy_swap__E                                  
8284a674  ti_sysbios_knl_Task_allBlockedFunc__C                                     
8282c4a0  ti_sysbios_knl_Task_allBlockedFunction__I                                 
82827a00  ti_sysbios_knl_Task_blockI__E                                             
828232a0  ti_sysbios_knl_Task_checkStacks__E                                        
8282c560  ti_sysbios_knl_Task_create                                                
8284a678  ti_sysbios_knl_Task_defaultStackHeap__C                                   
8284a67c  ti_sysbios_knl_Task_defaultStackSize__C                                   
82833460  ti_sysbios_knl_Task_disable__E                                            
82830940  ti_sysbios_knl_Task_enter__I                                              
82825800  ti_sysbios_knl_Task_exit__E                                               
8284a680  ti_sysbios_knl_Task_numConstructedTasks__C                                
82827b40  ti_sysbios_knl_Task_postInit__I                                           
8282f2c0  ti_sysbios_knl_Task_restore__E                                            
82824d20  ti_sysbios_knl_Task_schedule__I                                           
82818520  ti_sysbios_knl_Task_setPri__E                                             
82831ac0  ti_sysbios_knl_Task_sleepTimeout__I                                       
82817420  ti_sysbios_knl_Task_sleep__E                                              
82825980  ti_sysbios_knl_Task_startCore__E                                          
82833480  ti_sysbios_knl_Task_startup__E                                            
828297c0  ti_sysbios_knl_Task_unblockI__E                                           
82831b00  ti_sysbios_syncs_SyncSem_Handle__label__S                                 
828334a0  ti_sysbios_syncs_SyncSem_Instance_finalize__E                             
82825b00  ti_sysbios_syncs_SyncSem_Instance_init__E                                 
82849b9c  ti_sysbios_syncs_SyncSem_Module__FXNS__C                                  
8284a684  ti_sysbios_syncs_SyncSem_Module__diagsEnabled__C                          
8284a688  ti_sysbios_syncs_SyncSem_Module__diagsIncluded__C                         
8284a68c  ti_sysbios_syncs_SyncSem_Module__diagsMask__C                             
8284a7aa  ti_sysbios_syncs_SyncSem_Module__id__C                                    
8284f368  ti_sysbios_syncs_SyncSem_Module__root__V                                  
82849f50  ti_sysbios_syncs_SyncSem_Object__DESC__C                                  
82849ff0  ti_sysbios_syncs_SyncSem_Object__PARAMS__C                                
8282c620  ti_sysbios_syncs_SyncSem_Object__create__S                                
828309a0  ti_sysbios_syncs_SyncSem_Object__delete__S                                
8282c6e0  ti_sysbios_syncs_SyncSem_create                                           
828334c0  ti_sysbios_syncs_SyncSem_delete                                           
828334e0  ti_sysbios_syncs_SyncSem_query__E                                         
82833500  ti_sysbios_syncs_SyncSem_signal__E                                        
8282f340  ti_sysbios_syncs_SyncSem_wait__E                                          
8284a690  ti_sysbios_timers_timer64_Timer_A_notAvailable__C                         
8284a694  ti_sysbios_timers_timer64_Timer_E_cannotSupport__C                        
8284e700  ti_sysbios_timers_timer64_Timer_Module_State_0_device__A                  
8284ec18  ti_sysbios_timers_timer64_Timer_Module_State_0_gctrl__A                   
8284ec98  ti_sysbios_timers_timer64_Timer_Module_State_0_handles__A                 
8284ed18  ti_sysbios_timers_timer64_Timer_Module_State_0_intFreqs__A                
8284a698  ti_sysbios_timers_timer64_Timer_Module__diagsEnabled__C                   
8284a69c  ti_sysbios_timers_timer64_Timer_Module__diagsIncluded__C                  
8284a6a0  ti_sysbios_timers_timer64_Timer_Module__diagsMask__C                      
8284a7ac  ti_sysbios_timers_timer64_Timer_Module__id__C                             
82833520  ti_sysbios_timers_timer64_Timer_Module__startupDone__F                    
82833520  ti_sysbios_timers_timer64_Timer_Module__startupDone__S                    
8284f198  ti_sysbios_timers_timer64_Timer_Module__state__V                          
8280e320  ti_sysbios_timers_timer64_Timer_Module_startup__E                         
8284ef20  ti_sysbios_timers_timer64_Timer_Object__table__V                          
82833000  ti_sysbios_timers_timer64_Timer_TimerSupportProxy_enable__E               
8284a6a4  ti_sysbios_timers_timer64_Timer_anyMaskHigh__C                            
8284a6a8  ti_sysbios_timers_timer64_Timer_anyMask__C                                
8281b140  ti_sysbios_timers_timer64_Timer_deviceConfig__I                           
8284a6ac  ti_sysbios_timers_timer64_Timer_freqDivisor__C                            
82823460  ti_sysbios_timers_timer64_Timer_getFreq__E                                
82833540  ti_sysbios_timers_timer64_Timer_getMaxTicks__E                            
828298c0  ti_sysbios_timers_timer64_Timer_initDevice__I                             
828493e1  ti_sysbios_timers_timer64_Timer_localTimerBaseId__C                       
8284a6b0  ti_sysbios_timers_timer64_Timer_numLocalTimers__C                         
8284a6b4  ti_sysbios_timers_timer64_Timer_numTimerDevices__C                        
82820a00  ti_sysbios_timers_timer64_Timer_setPeriodMicroSecs__E                     
82823620  ti_sysbios_timers_timer64_Timer_start__E                                  
8284a7ae  ti_sysbios_timers_timer64_Timer_startupNeeded__C                          
8282b020  ti_sysbios_timers_timer64_Timer_startup__E                                
8282d8a0  ti_sysbios_timers_timer64_Timer_stop__E                                   
8284a7b0  ti_sysbios_timers_timer64_Timer_useTimer64pRegMap__C                      
8284a6b8  ti_sysbios_xdcruntime_GateThreadSupport_Instance_State_gate__O            
82833560  ti_sysbios_xdcruntime_GateThreadSupport_Instance_finalize__E              
82833580  ti_sysbios_xdcruntime_GateThreadSupport_Instance_init__E                  
8284f370  ti_sysbios_xdcruntime_GateThreadSupport_Module__root__V                   
82849f70  ti_sysbios_xdcruntime_GateThreadSupport_Object__DESC__C                   
8284a220  ti_sysbios_xdcruntime_GateThreadSupport_Object__PARAMS__C                 
82830a00  ti_sysbios_xdcruntime_GateThreadSupport_Object__delete__S                 
8282f3c0  ti_sysbios_xdcruntime_GateThreadSupport_create                            
828335a0  ti_sysbios_xdcruntime_GateThreadSupport_enter__E                          
828299c0  ti_sysbios_xdcruntime_GateThreadSupport_leave__E                          
828331e0  ti_sysbios_xdcruntime_GateThreadSupport_query__E                          
00806138  totalGetPktNum                                                            
00806100  totalSendPktNum                                                           
8284f870  txChHnd                                                                   
8284f874  txQueHnd                                                                  
82806894  waitAllSrioPortsOperational                                               
82831b40  wcslen                                                                    
82816498  writeBbReg                                                                
82816600  writeReadIndex                                                            
8284a6bc  xdc_runtime_Assert_E_assertFailed__C                                      
8282c860  xdc_runtime_Assert_raise__I                                               
8284a6c0  xdc_runtime_Core_A_initializedParams__C                                   
8284a6c4  xdc_runtime_Core_Module__diagsEnabled__C                                  
8284a6c8  xdc_runtime_Core_Module__diagsIncluded__C                                 
8284a6cc  xdc_runtime_Core_Module__diagsMask__C                                     
8284a7b2  xdc_runtime_Core_Module__id__C                                            
8282f440  xdc_runtime_Core_assignLabel__I                                           
8282d940  xdc_runtime_Core_assignParams__I                                          
82824ec0  xdc_runtime_Core_constructObject__I                                       
8281ff40  xdc_runtime_Core_createObject__I                                          
82827c80  xdc_runtime_Core_deleteObject__I                                          
8284a6d0  xdc_runtime_Error_E_memory__C                                             
8284f110  xdc_runtime_Error_IgnoreBlock                                             
8284a6d4  xdc_runtime_Error_Module__diagsEnabled__C                                 
8284a6d8  xdc_runtime_Error_Module__diagsIncluded__C                                
8284a6dc  xdc_runtime_Error_Module__diagsMask__C                                    
8284a7b4  xdc_runtime_Error_Module__loggerDefined__C                                
8284a6e0  xdc_runtime_Error_Module__loggerFxn8__C                                   
8284a6e4  xdc_runtime_Error_Module__loggerObj__C                                    
8284f3ae  xdc_runtime_Error_Module__state__V                                        
82831b80  xdc_runtime_Error_check__E                                                
828335c0  xdc_runtime_Error_getSite__E                                              
82831bc0  xdc_runtime_Error_init__E                                                 
8284a7b6  xdc_runtime_Error_maxDepth__C                                             
82820c20  xdc_runtime_Error_policyDefault__E                                        
8284a6e8  xdc_runtime_Error_policyFxn__C                                            
8284a6ec  xdc_runtime_Error_policy__C                                               
82829ac0  xdc_runtime_Error_print__E                                                
8284a6f0  xdc_runtime_Error_raiseHook__C                                            
828335e0  xdc_runtime_Error_raiseX__E                                               
8282c920  xdc_runtime_Error_setX__E                                                 
82831c00  xdc_runtime_GateNull_Handle__label__S                                     
82849bc0  xdc_runtime_GateNull_Module__FXNS__C                                      
8284f378  xdc_runtime_GateNull_Module__root__V                                      
82849f90  xdc_runtime_GateNull_Object__DESC__C                                      
8284a238  xdc_runtime_GateNull_Object__PARAMS__C                                    
82831c40  xdc_runtime_GateNull_Object__create__S                                    
82831c80  xdc_runtime_GateNull_Object__delete__S                                    
8284f3e0  xdc_runtime_GateNull_Object__table__V                                     
82833600  xdc_runtime_GateNull_enter__E                                             
82833620  xdc_runtime_GateNull_leave__E                                             
82833640  xdc_runtime_GateNull_query__E                                             
82833660  xdc_runtime_Gate_enterSystem__E                                           
82833680  xdc_runtime_Gate_leaveSystem__E                                           
8284a6f4  xdc_runtime_IFilterLogger_Interface__BASE__C                              
8284a6f8  xdc_runtime_IGateProvider_Interface__BASE__C                              
8284a6fc  xdc_runtime_IHeap_Interface__BASE__C                                      
8284a700  xdc_runtime_ILogger_Interface__BASE__C                                    
8284a704  xdc_runtime_IModule_Interface__BASE__C                                    
8284a708  xdc_runtime_Log_L_error__C                                                
8284a70c  xdc_runtime_LoggerBuf_E_badLevel__C                                       
82831cc0  xdc_runtime_LoggerBuf_Handle__label__S                                    
828447a8  xdc_runtime_LoggerBuf_Instance_State_0_entryArr__A                        
82831d00  xdc_runtime_LoggerBuf_Instance_finalize__E                                
8282f4c0  xdc_runtime_LoggerBuf_Instance_init__E                                    
82831680  xdc_runtime_LoggerBuf_Module_GateProxy_Handle__label__S                   
828336e0  xdc_runtime_LoggerBuf_Module_GateProxy_enter__E                           
82833700  xdc_runtime_LoggerBuf_Module_GateProxy_leave__E                           
828331a0  xdc_runtime_LoggerBuf_Module_GateProxy_query__E                           
82849734  xdc_runtime_LoggerBuf_Module__FXNS__C                                     
8284a710  xdc_runtime_LoggerBuf_Module__gateObj__C                                  
8284a7b8  xdc_runtime_LoggerBuf_Module__id__C                                       
8284f380  xdc_runtime_LoggerBuf_Module__root__V                                     
8284f3a8  xdc_runtime_LoggerBuf_Module__state__V                                    
8282f540  xdc_runtime_LoggerBuf_Module_startup__E                                   
82849fb0  xdc_runtime_LoggerBuf_Object__DESC__C                                     
828499a0  xdc_runtime_LoggerBuf_Object__PARAMS__C                                   
8284a714  xdc_runtime_LoggerBuf_Object__count__C                                    
8282c9e0  xdc_runtime_LoggerBuf_Object__create__S                                   
82830a60  xdc_runtime_LoggerBuf_Object__delete__S                                   
82831d40  xdc_runtime_LoggerBuf_Object__get__S                                      
8284f0a8  xdc_runtime_LoggerBuf_Object__table__V                                    
82832fe0  xdc_runtime_LoggerBuf_TimestampProxy_get64__E                             
82833720  xdc_runtime_LoggerBuf_disable__E                                          
82833740  xdc_runtime_LoggerBuf_enable__E                                           
8284a7ba  xdc_runtime_LoggerBuf_filterByLevel__C                                    
8282f5c0  xdc_runtime_LoggerBuf_filterOutEvent__I                                   
82828da0  xdc_runtime_LoggerBuf_getFilterLevel__E                                   
82830ac0  xdc_runtime_LoggerBuf_reset__E                                            
82827dc0  xdc_runtime_LoggerBuf_setFilterLevel__E                                   
8284a718  xdc_runtime_LoggerBuf_statusLogger__C                                     
82831d80  xdc_runtime_LoggerBuf_write0__E                                           
82831dc0  xdc_runtime_LoggerBuf_write1__E                                           
82831e00  xdc_runtime_LoggerBuf_write2__E                                           
828237e0  xdc_runtime_LoggerBuf_write4__E                                           
8281d9a0  xdc_runtime_LoggerBuf_write8__E                                           
82831680  xdc_runtime_Main_Module_GateProxy_Handle__label__S                        
828331a0  xdc_runtime_Main_Module_GateProxy_query__E                                
82831900  xdc_runtime_Memory_HeapProxy_Handle__label__S                             
828336a0  xdc_runtime_Memory_HeapProxy_alloc__E                                     
828336c0  xdc_runtime_Memory_HeapProxy_free__E                                      
8284a7bc  xdc_runtime_Memory_Module__id__C                                          
8284f27c  xdc_runtime_Memory_Module__state__V                                       
82829bc0  xdc_runtime_Memory_alloc__E                                               
82833760  xdc_runtime_Memory_calloc__E                                              
8284a71c  xdc_runtime_Memory_defaultHeapInstance__C                                 
82833780  xdc_runtime_Memory_free__E                                                
828337a0  xdc_runtime_Memory_getMaxDefaultTypeAlign__E                              
82830b20  xdc_runtime_Memory_valloc__E                                              
8284f388  xdc_runtime_Registry_Module__state__V                                     
82831e40  xdc_runtime_Registry_findById__E                                          
828337c0  xdc_runtime_Startup_Module__startupDone__S                                
8284f390  xdc_runtime_Startup_Module__state__V                                      
00000001  xdc_runtime_Startup__EXECFXN__C                                           
00000001  xdc_runtime_Startup__RESETFXN__C                                          
8284a720  xdc_runtime_Startup_execImpl__C                                           
82829cc0  xdc_runtime_Startup_exec__E                                               
828337e0  xdc_runtime_Startup_exec__I                                               
8284a2a0  xdc_runtime_Startup_firstFxns__A                                          
8284a2a8  xdc_runtime_Startup_firstFxns__C                                          
8284a2b0  xdc_runtime_Startup_lastFxns__C                                           
8284a724  xdc_runtime_Startup_maxPasses__C                                          
8281a0c0  xdc_runtime_Startup_reset__I                                              
82833800  xdc_runtime_Startup_rtsDone__E                                            
82849be8  xdc_runtime_Startup_sfxnRts__A                                            
8284a728  xdc_runtime_Startup_sfxnRts__C                                            
82849668  xdc_runtime_Startup_sfxnTab__A                                            
8284a72c  xdc_runtime_Startup_sfxnTab__C                                            
8281f860  xdc_runtime_Startup_startMods__I                                          
828449a8  xdc_runtime_SysMin_Module_State_0_outbuf__A                               
8284f28c  xdc_runtime_SysMin_Module__state__V                                       
82831e80  xdc_runtime_SysMin_Module_startup__E                                      
8282caa0  xdc_runtime_SysMin_abort__E                                               
8284a730  xdc_runtime_SysMin_bufSize__C                                             
82831ec0  xdc_runtime_SysMin_exit__E                                                
8284a7be  xdc_runtime_SysMin_flushAtExit__C                                         
8282cb60  xdc_runtime_SysMin_flush__E                                               
8284a734  xdc_runtime_SysMin_outputFunc__C                                          
8282f640  xdc_runtime_SysMin_output__I                                              
8282d9e0  xdc_runtime_SysMin_putch__E                                               
82833820  xdc_runtime_SysMin_ready__E                                               
82831680  xdc_runtime_System_Module_GateProxy_Handle__label__S                      
82833840  xdc_runtime_System_Module_GateProxy_enter__E                              
82833860  xdc_runtime_System_Module_GateProxy_leave__E                              
828331a0  xdc_runtime_System_Module_GateProxy_query__E                              
8284f248  xdc_runtime_System_Module_State_0_atexitHandlers__A                       
8284a738  xdc_runtime_System_Module__gateObj__C                                     
8284f398  xdc_runtime_System_Module__state__V                                       
82833880  xdc_runtime_System_Module_startup__E                                      
8282caa0  xdc_runtime_System_SupportProxy_abort__E                                  
82831ec0  xdc_runtime_System_SupportProxy_exit__E                                   
8282cb60  xdc_runtime_System_SupportProxy_flush__E                                  
8282d9e0  xdc_runtime_System_SupportProxy_putch__E                                  
82833820  xdc_runtime_System_SupportProxy_ready__E                                  
8284a73c  xdc_runtime_System_abortFxn__C                                            
82832520  xdc_runtime_System_abortStd__E                                            
82831f00  xdc_runtime_System_abort__E                                               
82831f40  xdc_runtime_System_aprintf__E                                             
8282f740  xdc_runtime_System_aprintf_va__E                                          
8282f740  xdc_runtime_System_aprintf_va__F                                          
8282f6c0  xdc_runtime_System_atexit__E                                              
8282f740  xdc_runtime_System_avprintf__E                                            
8280b640  xdc_runtime_System_doPrint__I                                             
8284a740  xdc_runtime_System_exitFxn__C                                             
8282a220  xdc_runtime_System_exitStd__E                                             
82831f80  xdc_runtime_System_exit__E                                                
8284a744  xdc_runtime_System_extendFxn__C                                           
8282cb60  xdc_runtime_System_flush__E                                               
8282da80  xdc_runtime_System_formatNum__I                                           
8284a748  xdc_runtime_System_maxAtexitHandlers__C                                   
82825060  xdc_runtime_System_printfExtend__I                                        
82831fc0  xdc_runtime_System_printf__E                                              
8282f840  xdc_runtime_System_printf_va__E                                           
8282f840  xdc_runtime_System_printf_va__F                                           
8282f7c0  xdc_runtime_System_processAtExit__E                                       
8282db20  xdc_runtime_System_putchar__I                                             
828338a0  xdc_runtime_System_snprintf_va__E                                         
828338a0  xdc_runtime_System_snprintf_va__F                                         
8282f840  xdc_runtime_System_vprintf__E                                             
828338a0  xdc_runtime_System_vsnprintf__E                                           
8284a7c0  xdc_runtime_Text_charCnt__C                                               
82844cc8  xdc_runtime_Text_charTab__A                                               
8284a74c  xdc_runtime_Text_charTab__C                                               
82830b80  xdc_runtime_Text_cordText__E                                              
8284a7c2  xdc_runtime_Text_isLoaded__C                                              
8284a750  xdc_runtime_Text_nameEmpty__C                                             
8284a754  xdc_runtime_Text_nameStatic__C                                            
8284a758  xdc_runtime_Text_nameUnknown__C                                           
82848d88  xdc_runtime_Text_nodeTab__A                                               
8284a75c  xdc_runtime_Text_nodeTab__C                                               
8282dbc0  xdc_runtime_Text_printVisFxn__I                                           
82826360  xdc_runtime_Text_putMod__E                                                
828229c0  xdc_runtime_Text_putSite__E                                               
8284a7c4  xdc_runtime_Text_registryModsLastId__C                                    
828338c0  xdc_runtime_Text_ropeText__E                                              
8284a7c6  xdc_runtime_Text_unnamedModsLastId__C                                     
8282b100  xdc_runtime_Text_visitRope2__I                                            
8284a760  xdc_runtime_Text_visitRopeFxn__C                                          
828338e0  xdc_runtime_Text_visitRope__I                                             
8282dc60  xdc_runtime_Text_xprintf__I                                               
82832000  xdc_runtime_knl_GateThread_Handle__label__S                               
82833900  xdc_runtime_knl_GateThread_Instance_finalize__E                           
82832040  xdc_runtime_knl_GateThread_Instance_init__E                               
82849c0c  xdc_runtime_knl_GateThread_Module__FXNS__C                                
8284f3a0  xdc_runtime_knl_GateThread_Module__root__V                                
82833920  xdc_runtime_knl_GateThread_Module__startupDone__S                         
82849fd0  xdc_runtime_knl_GateThread_Object__DESC__C                                
8284a250  xdc_runtime_knl_GateThread_Object__PARAMS__C                              
8282dd00  xdc_runtime_knl_GateThread_Object__create__S                              
82830be0  xdc_runtime_knl_GateThread_Object__delete__S                              
82833940  xdc_runtime_knl_GateThread_Proxy_create                                   
82833960  xdc_runtime_knl_GateThread_Proxy_delete                                   
82833980  xdc_runtime_knl_GateThread_Proxy_enter__E                                 
828339a0  xdc_runtime_knl_GateThread_Proxy_leave__E                                 
828331e0  xdc_runtime_knl_GateThread_Proxy_query__E                                 
8282dda0  xdc_runtime_knl_GateThread_create                                         
828339c0  xdc_runtime_knl_GateThread_enter__E                                       
828339e0  xdc_runtime_knl_GateThread_leave__E                                       
828331e0  xdc_runtime_knl_GateThread_query__E                                       
8284a764  xdc_runtime_knl_ISync_Interface__BASE__C                                  


GLOBAL SYMBOLS: SORTED BY Symbol Address 

address   name                                                                      
-------   ----                                                                      
00000000  _argsize                                                                  
00000000  ti_sysbios_family_c66_Cache_l2Size                                        
00000001  xdc_runtime_Startup__EXECFXN__C                                           
00000001  xdc_runtime_Startup__RESETFXN__C                                          
00004000  __TI_STACK_SIZE                                                           
00008000  ti_sysbios_family_c66_Cache_l1dSize                                       
00008000  ti_sysbios_family_c66_Cache_l1pSize                                       
00800000  hostDesc                                                                  
00802000  rxDataBuff                                                                
00806000  rxbuf                                                                     
00806100  totalSendPktNum                                                           
00806138  totalGetPktNum                                                            
00806170  ps_info                                                                   
00806188  fpga0EerorPktCount                                                        
0080618c  fpga0ReadIndex                                                            
00806190  fpga1EerorPktCount                                                        
00806194  fpga1ReadIndex                                                            
00806198  _stack                                                                    
0080a198  __TI_STACK_END                                                            
0c204080  qmssGroupControl                                                          
0c204180  qmssGObj                                                                  
0c206880  qmssGObjIsValid                                                           
0c206900  cppiObject                                                                
0c207880  gSRIODriverMCB                                                            
82800800  __ASM__                                                                   
82800860  __ISA__                                                                   
82800878  __PLAT__                                                                  
82800898  __TARG__                                                                  
828008c0  __TRDR__                                                                  
828024e0  srioInit                                                                  
82802618  SrioDevice_init                                                           
82802cd0  myDIOIsr                                                                  
82802d10  createControlSocket                                                       
82802e10  srioSendData                                                              
82802f00  __TI_printfi                                                              
82804ee0  Qmss_insertMemoryRegionSubSys                                             
82806280  displaySrioLanesStatus                                                    
8280644c  setSrioLanes                                                              
82806648  getPllValue                                                               
82806704  setEnableSrioPllRxTx                                                      
82806894  waitAllSrioPortsOperational                                               
828071f4  sendDataToCoreN                                                           
82807404  getDataFromCoreN                                                          
82807700  ti_sdo_ipc_GateMP_Instance_init__E                                        
828087b0  ipcInit                                                                   
82808810  cppiInit                                                                  
82809b00  Qmss_initSubSys                                                           
8280a6d8  biosMalloc                                                                
8280a718  biosFree                                                                  
8280a748  Osal_dataBufferInitMemory                                                 
8280a7f0  Osal_DataBufferMalloc                                                     
8280a8b4  Osal_DataBufferFree                                                       
8280a94c  Osal_MultiCoreEnter                                                       
8280a968  Osal_MultiCoreExit                                                        
8280a980  Osal_SingleCoreEnter                                                      
8280a9a4  Osal_SingleCoreExit                                                       
8280a9b8  Osal_CacheInvalidate                                                      
8280a9f4  Osal_CacheWriteback                                                       
8280aa2c  Osal_srioBeginDescriptorAccess                                            
8280aa44  Osal_srioEndDescriptorAccess                                              
8280aa64  Osal_srioBeginMemAccess                                                   
8280aa98  Osal_srioCreateSem                                                        
8280aaac  Osal_srioDataBufferFree                                                   
8280ab44  Osal_srioDataBufferMalloc                                                 
8280ac08  Osal_srioDeleteSem                                                        
8280ac14  Osal_srioEndMemAccess                                                     
8280ac4c  Osal_srioEnterMultipleCoreCriticalSection                                 
8280ac68  Osal_srioEnterSingleCoreCriticalSection                                   
8280ac8c  Osal_srioExitMultipleCoreCriticalSection                                  
8280aca4  Osal_srioExitSingleCoreCriticalSection                                    
8280acc8  Osal_srioFree                                                             
8280acf4  Osal_srioLog                                                              
8280ad0c  Osal_srioMalloc                                                           
8280ad44  Osal_srioPendSem                                                          
8280ad54  Osal_srioPostSem                                                          
8280b640  xdc_runtime_System_doPrint__I                                             
8280bec0  ti_sysbios_family_c64p_Exception_handler__I                               
8280c640  MessageQ_put                                                              
8280cd80  Srio_processReceivedBD                                                    
8280d4c0  ti_sysbios_knl_Semaphore_pend__E                                          
8280dc00  Cppi_configureRxFlow                                                      
8280e320  ti_sysbios_timers_timer64_Timer_Module_startup__E                         
8280ec8c  Osal_cppiMalloc                                                           
8280ecc8  Osal_cppiFree                                                             
8280ecf8  Osal_cppiCsEnter                                                          
8280ed14  Osal_cppiCsExit                                                           
8280ed2c  Osal_cppiLog                                                              
8280ed48  Osal_cppiBeginMemAccess                                                   
8280ed84  Osal_cppiEndMemAccess                                                     
8280edb4  Osal_qmssMalloc                                                           
8280ede8  Osal_qmssFree                                                             
8280ee14  Osal_qmssCsEnter                                                          
8280ee30  Osal_qmssCsExit                                                           
8280ee48  Osal_qmssAccCsEnter                                                       
8280ee50  Osal_qmssAccCsExit                                                        
8280ee68  Osal_qmssMtCsEnter                                                        
8280ee70  Osal_qmssMtCsExit                                                         
8280ee84  Osal_qmssLog                                                              
8280ee98  Osal_qmssBeginMemAccess                                                   
8280eed4  Osal_qmssEndMemAccess                                                     
8280ef0c  Osal_rmMalloc                                                             
8280ef40  Osal_rmFree                                                               
8280ef6c  Osal_rmCsEnter                                                            
8280ef74  Osal_rmCsExit                                                             
8280ef88  Osal_rmMtCsEnter                                                          
8280efa0  Osal_rmMtCsExit                                                           
8280efb4  Osal_rmBeginMemAccess                                                     
8280eff0  Osal_rmEndMemAccess                                                       
8280f028  Osal_rmTaskBlockCreate                                                    
8280f054  Osal_rmTaskBlock                                                          
8280f068  Osal_rmTaskUnblock                                                        
8280f074  Osal_rmTaskBlockDelete                                                    
8280f088  Osal_rmLog                                                                
8280f0e0  Ipc_attach                                                                
8280fd60  Srio_sockSend_DIO                                                         
82810380  ti_sdo_ipc_heaps_HeapMemMP_alloc__E                                       
828109a0  ti_sysbios_heaps_HeapMem_allocUnprotected__E                              
82810fc0  Cppi_txChannelOpenWithHwCfg                                               
828115c0  __c6xabi_divd                                                             
82811cb0  taskFxn                                                                   
82812140  main                                                                      
828121c0  ti_sdo_ipc_GateMP_setRegion0Reserved__E                                   
828121c0  ti_sdo_ipc_GateMP_setRegion0Reserved__F                                   
828127c0  ti_sdo_ipc_transports_TransportShm_Instance_init__E                       
82812dc0  ti_sysbios_heaps_HeapMem_freeUnprotected__E                               
82813380  ti_sdo_ipc_ListMP_Instance_init__E                                        
82813920  ti_sdo_ipc_nsremote_NameServerRemoteNotify_Instance_init__E               
82813ec0  ti_sdo_ipc_GateMP_Instance_finalize__E                                    
82814420  Cppi_rxChannelOpen                                                        
82814960  ti_sdo_ipc_heaps_HeapMemMP_free__E                                        
82814ea0  Srio_start                                                                
828153a0  ti_sysbios_knl_Task_Instance_finalize__E                                  
828158a0  ti_sdo_ipc_heaps_HeapMemMP_Instance_init__E                               
82815d60  Cppi_initDescriptorSubSys                                                 
828162f0  getBbData                                                                 
82816434  sendDataToBb                                                              
82816498  writeBbReg                                                                
828164f4  configSrioParameterToFPGA                                                 
82816600  writeReadIndex                                                            
828166a0  Cppi_init                                                                 
82816b20  NameServer_add                                                            
82816fa0  ti_sysbios_gates_GateMutexPri_enter__E                                    
82817420  ti_sysbios_knl_Task_sleep__E                                              
82817880  Srio_sockBind_DIO                                                         
82818100  Notify_sendEvent                                                          
82818520  ti_sysbios_knl_Task_setPri__E                                             
82818940  Notify_registerEventSingle                                                
82818d40  Srio_sockOpen                                                             
82819140  ti_sdo_ipc_nsremote_NameServerRemoteNotify_get__E                         
82819140  ti_sdo_ipc_nsremote_NameServerRemoteNotify_get__F                         
82819540  Notify_unregisterEventSingle                                              
82819920  ti_sdo_ipc_MessageQ_Instance_init__E                                      
82819d00  ti_sysbios_knl_Task_Instance_init__E                                      
8281a0c0  ti_sysbios_family_c66_Cache_startup__I                                    
8281a0c0  xdc_runtime_Startup_reset__I                                              
8281a460  Srio_initCfg                                                              
8281a7a0  ti_sdo_ipc_gates_GatePeterson_Instance_init__E                            
8281aae0  ti_sysbios_family_c66_tci66xx_CpIntc_Module_startup__E                    
8281ae20  Cppi_open                                                                 
8281b140  ti_sysbios_timers_timer64_Timer_deviceConfig__I                           
8281b460  ti_sdo_ipc_Notify_Instance_init__E                                        
8281b760  ti_sysbios_knl_Swi_runLoop__I                                             
8281ba60  ti_sysbios_knl_Task_Module_startup__E                                     
8281bd60  ListMP_getHead                                                            
8281c040  Qmss_internalRmStartIndex                                                 
8281c320  Srio_sockBind_TYPE11                                                      
8281c600  Srio_sockSend_TYPE9                                                       
8281c8e0  ti_sdo_ipc_SharedRegion_reserveMemory__E                                  
8281c8e0  ti_sdo_ipc_SharedRegion_reserveMemory__F                                  
8281cbc0  ti_sysbios_heaps_HeapMem_Instance_init__E                                 
8281cea0  Srio_sockSend_TYPE11                                                      
8281d420  ti_sdo_ipc_heaps_HeapMemMP_postInit__I                                    
8281d6e0  ti_sysbios_knl_Clock_workFunc__E                                          
8281d9a0  xdc_runtime_LoggerBuf_write8__E                                           
8281dc60  Srio_sockBind_TYPE9                                                       
8281e1a0  ti_sdo_ipc_MessageQ_registerTransport__E                                  
8281e1a0  ti_sdo_ipc_MessageQ_registerTransport__F                                  
8281e440  ti_sdo_ipc_MessageQ_unregisterTransport__E                                
8281e440  ti_sdo_ipc_MessageQ_unregisterTransport__F                                
8281e6e0  ti_sdo_utils_NameServer_registerRemoteDriver__E                           
8281e980  ti_sdo_utils_NameServer_unregisterRemoteDriver__E                         
8281ec20  Qmss_internalQueueClose                                                   
8281eea0  __c6xabi_divf                                                             
8281f120  ti_sdo_utils_NameServer_isRegistered__E                                   
8281f3a0  ti_sysbios_family_c64p_Hwi_dispatchCore__I                                
8281f600  ti_sysbios_knl_Semaphore_post__E                                          
8281f860  xdc_runtime_Startup_startMods__I                                          
8281fac0  __c6xabi_divull                                                           
8281fd00  ti_sysbios_family_c64p_Exception_internalHandler__I                       
8281ff40  xdc_runtime_Core_createObject__I                                          
82820180  ListMP_putTail                                                            
828203a0  SharedRegion_getPtr                                                       
828205c0  SharedRegion_getSRPtr                                                     
828207e0  ti_sysbios_knl_Swi_run__I                                                 
82820a00  ti_sysbios_timers_timer64_Timer_setPeriodMicroSecs__E                     
82820c20  xdc_runtime_Error_policyDefault__E                                        
82820e40  GateMP_openByAddr                                                         
82821040  HeapMemMP_sharedMemReq                                                    
82821240  Ipc_start                                                                 
82821440  SharedRegion_getEntry                                                     
82821640  Srio_dioCompletionIsr                                                     
82821840  Srio_rxCompletionIsr                                                      
82821a40  ti_sysbios_family_c64p_Hwi_dispatchAlways                                 
82821c40  cppi_internal_heap_add                                                    
82821e40  ti_sdo_ipc_SharedRegion_start__E                                          
82821e40  ti_sdo_ipc_SharedRegion_start__F                                          
82822040  ti_sdo_ipc_nsremote_NameServerRemoteNotify_swiFxnRequest__I               
82822240  GateMP_sharedMemReq                                                       
82822600  ti_sysbios_family_c64p_EventCombiner_dispatchPlug__E                      
828227e0  ti_sysbios_gates_GateMutex_enter__E                                       
828229c0  xdc_runtime_Text_putSite__E                                               
82822ba0  __c6xabi_divul                                                            
82822f20  ti_sdo_ipc_Ipc_procSyncStart__I                                           
828230e0  ti_sysbios_family_c66_tci66xx_CpIntc_dispatch__E                          
828232a0  ti_sysbios_knl_Task_checkStacks__E                                        
82823460  ti_sysbios_timers_timer64_Timer_getFreq__E                                
82823620  ti_sysbios_timers_timer64_Timer_start__E                                  
828237e0  xdc_runtime_LoggerBuf_write4__E                                           
828239a0  GateMP_enter                                                              
82823b40  GateMP_leave                                                              
82823ce0  NameServer_getLocal                                                       
82823e80  Qmss_cfgAccumulatorCh                                                     
82824020  frexp                                                                     
82824020  frexpl                                                                    
828241c0  ldexp                                                                     
828241c0  ldexpl                                                                    
828241c0  scalbn                                                                    
828241c0  scalbnl                                                                   
82824360  ti_sdo_ipc_transports_TransportShm_Instance_finalize__E                   
82824500  ti_sdo_ipc_transports_TransportShm_openByAddr__E                          
828246a0  ti_sdo_ipc_transports_TransportShm_put__E                                 
82824840  ti_sysbios_family_c64p_EventCombiner_enableEvent__E                       
828249e0  ti_sysbios_family_c66_Cache_block__I                                      
82824b80  ti_sysbios_family_c66_Cache_getL2InitSize__I                              
82824d20  ti_sysbios_knl_Task_schedule__I                                           
82824ec0  xdc_runtime_Core_constructObject__I                                       
82825060  xdc_runtime_System_printfExtend__I                                        
82825200  NameServer_getHandle                                                      
82825380  ti_sysbios_family_c64p_Exception_dispatch__E                              
82825500  ti_sdo_ipc_GateMP_attach__E                                               
82825500  ti_sdo_ipc_GateMP_attach__F                                               
82825680  ti_sysbios_knl_Swi_Instance_init__E                                       
82825800  ti_sysbios_knl_Task_exit__E                                               
82825980  ti_sysbios_knl_Task_startCore__E                                          
82825b00  ti_sysbios_syncs_SyncSem_Instance_init__E                                 
82825c80  Qmss_startSubSysCfg                                                       
82825de0  ti_sdo_ipc_GateMP_openRegion0Reserved__E                                  
82825de0  ti_sdo_ipc_GateMP_openRegion0Reserved__F                                  
82825f40  ti_sdo_ipc_MessageQ_Instance_finalize__E                                  
828260a0  ti_sysbios_family_c64p_Hwi_Module_startup__E                              
82826200  ti_sysbios_knl_Swi_post__E                                                
82826360  xdc_runtime_Text_putMod__E                                                
828264c0  ListMP_remove                                                             
82826600  ListMP_sharedMemReq                                                       
82826740  MessageQ_create                                                           
82826880  Notify_intLineRegistered                                                  
828269c0  Qmss_rmServiceGroups                                                      
82826b00  SharedRegion_getCacheLineSize                                             
82826c40  SharedRegion_getHeap                                                      
82826d80  SharedRegion_isCacheEnabled                                               
82826ec0  Srio_rmService                                                            
82827140  ti_sdo_ipc_GateMP_createLocal__E                                          
82827140  ti_sdo_ipc_GateMP_createLocal__F                                          
82827280  ti_sdo_ipc_GateMP_getFreeResource__I                                      
828273c0  ti_sdo_ipc_gates_GatePeterson_enter__E                                    
82827500  ti_sdo_ipc_nsremote_NameServerRemoteNotify_attach__E                      
82827500  ti_sdo_utils_NameServer_SetupProxy_attach__E                              
82827640  ti_sdo_ipc_nsremote_NameServerRemoteNotify_cbFxn__I                       
82827780  ti_sysbios_gates_GateSwi_enter__E                                         
828278c0  ti_sysbios_knl_Semaphore_Instance_init__E                                 
82827a00  ti_sysbios_knl_Task_blockI__E                                             
82827b40  ti_sysbios_knl_Task_postInit__I                                           
82827c80  xdc_runtime_Core_deleteObject__I                                          
82827dc0  xdc_runtime_LoggerBuf_setFilterLevel__E                                   
82827f00  CSL_chipReadReg                                                           
82828020  GateMP_close                                                              
82828140  Qmss_getMemoryRegionCfg                                                   
82828260  Qmss_openAccumulatorChSubSys                                              
82828380  Qmss_rmService                                                            
828284a0  _auto_init_elf                                                            
82828800  ti_sdo_ipc_Notify_Module_startup__E                                       
82828920  ti_sdo_ipc_Notify_create                                                  
82828a40  ti_sdo_ipc_gates_GateHWSem_Instance_init__E                               
82828b60  ti_sdo_utils_NameServer_removeLocal__I                                    
82828c80  ti_sysbios_knl_Swi_restoreHwi__E                                          
82828da0  xdc_runtime_LoggerBuf_getFilterLevel__E                                   
828290c0  atoi                                                                      
828291c0  ti_sdo_ipc_Ipc_procSyncFinish__I                                          
828292c0  ti_sdo_ipc_Notify_exec__E                                                 
828292c0  ti_sdo_ipc_Notify_exec__F                                                 
828293c0  ti_sdo_ipc_SharedRegion_attach__E                                         
828293c0  ti_sdo_ipc_SharedRegion_attach__F                                         
828294c0  ti_sdo_ipc_gates_GateHWSem_enter__E                                       
828295c0  ti_sdo_ipc_heaps_HeapMemMP_getStats__E                                    
828296c0  ti_sysbios_gates_GateMutexPri_leave__E                                    
828297c0  ti_sysbios_knl_Task_unblockI__E                                           
828298c0  ti_sysbios_timers_timer64_Timer_initDevice__I                             
828299c0  ti_sysbios_xdcruntime_GateThreadSupport_leave__E                          
82829ac0  xdc_runtime_Error_print__E                                                
82829bc0  xdc_runtime_Memory_alloc__E                                               
82829cc0  xdc_runtime_Startup_exec__E                                               
82829dc0  HOSTwrite                                                                 
82829ea0  HeapMemMP_openByAddr                                                      
82829f80  ListMP_openByAddr                                                         
8282a060  MessageQ_Params_init__S                                                   
8282a220  exit                                                                      
8282a220  xdc_runtime_System_exitStd__E                                             
8282a300  ltoa                                                                      
8282a3e0  memset                                                                    
8282a4c0  ti_sdo_ipc_GateMP_start__E                                                
8282a4c0  ti_sdo_ipc_GateMP_start__F                                                
8282a5a0  ti_sdo_ipc_ListMP_Instance_finalize__E                                    
8282a680  ti_sdo_ipc_MessageQ_Module_startup__E                                     
8282a760  ti_sdo_ipc_Notify_Instance_finalize__E                                    
8282a840  ti_sdo_ipc_SharedRegion_clearReservedMemory__E                            
8282a840  ti_sdo_ipc_SharedRegion_clearReservedMemory__F                            
8282a920  ti_sdo_ipc_gates_GateMPSupportNull_enter__E                               
8282aa00  ti_sdo_ipc_gates_GateMPSupportNull_leave__E                               
8282aae0  ti_sdo_ipc_heaps_HeapMemMP_Instance_finalize__E                           
8282abc0  ti_sdo_ipc_nsremote_NameServerRemoteNotify_Instance_finalize__E           
8282aca0  ti_sdo_ipc_MessageQ_SetupTransportProxy_attach__E                         
8282aca0  ti_sdo_ipc_transports_TransportShmSetup_attach__E                         
8282ad80  ti_sdo_utils_NameServer_findLocal__I                                      
8282ae60  ti_sysbios_heaps_HeapMem_alloc__E                                         
8282af40  ti_sysbios_knl_Swi_Instance_finalize__E                                   
8282b020  ti_sysbios_knl_Clock_TimerProxy_startup__E                                
8282b020  ti_sysbios_timers_timer64_Timer_startup__E                                
8282b100  xdc_runtime_Text_visitRope2__I                                            
8282b1e0  Qmss_getMemRegQueueHandleSubSys                                           
8282b2a0  Qmss_setEoiVector                                                         
8282b360  SharedRegion_getId                                                        
8282b660  __c6xabi_divu                                                             
8282b660  __divu                                                                    
8282b720  cppi_list_cat                                                             
8282b7e0  ti_sdo_ipc_GateMP_create                                                  
8282b8a0  ti_sdo_ipc_GateMP_getRegion0ReservedSize__E                               
8282b8a0  ti_sdo_ipc_GateMP_getRegion0ReservedSize__F                               
8282b960  ti_sdo_ipc_ListMP_create                                                  
8282ba20  ti_sdo_ipc_MessageQ_create                                                
8282bae0  ti_sdo_ipc_MessageQ_grow__I                                               
8282bba0  ti_sdo_ipc_gates_GatePeterson_Object__create__S                           
8282bc60  ti_sdo_ipc_gates_GatePeterson_create                                      
8282bd20  ti_sdo_ipc_heaps_HeapMemMP_Object__create__S                              
8282bde0  ti_sdo_ipc_heaps_HeapMemMP_create                                         
8282bea0  ti_sdo_ipc_nsremote_NameServerRemoteNotify_Object__create__S              
8282bf60  ti_sdo_ipc_nsremote_NameServerRemoteNotify_create                         
8282c020  ti_sdo_ipc_transports_TransportShm_Object__create__S                      
8282c0e0  ti_sdo_ipc_transports_TransportShm_create                                 
8282c1a0  ti_sysbios_gates_GateAll_leave__E                                         
8282c260  ti_sysbios_heaps_HeapMem_getStats__E                                      
8282c320  ti_sysbios_knl_Clock_logTick__E                                           
8282c3e0  ti_sysbios_knl_Swi_schedule__I                                            
8282c4a0  ti_sysbios_knl_Task_allBlockedFunction__I                                 
8282c560  ti_sysbios_knl_Task_create                                                
8282c620  ti_sysbios_syncs_SyncSem_Object__create__S                                
8282c6e0  ti_sysbios_syncs_SyncSem_create                                           
8282c7a0  __TI_tls_init                                                             
8282c860  xdc_runtime_Assert_raise__I                                               
8282c920  xdc_runtime_Error_setX__E                                                 
8282c9e0  xdc_runtime_LoggerBuf_Object__create__S                                   
8282caa0  xdc_runtime_SysMin_abort__E                                               
8282caa0  xdc_runtime_System_SupportProxy_abort__E                                  
8282cb60  xdc_runtime_SysMin_flush__E                                               
8282cb60  xdc_runtime_System_SupportProxy_flush__E                                  
8282cb60  xdc_runtime_System_flush__E                                               
8282cc20  Cppi_channelEnable                                                        
8282ccc0  Cppi_setCpdmaLoopback                                                     
8282cd60  Qmss_queueOpenSubSys                                                      
8282ce00  __c6xabi_fltullf                                                          
8282cea0  __c6xabi_remu                                                             
8282cea0  __remu                                                                    
8282cf40  _c_int00                                                                  
8282d080  memcpy                                                                    
8282d120  ti_sdo_ipc_gates_GatePeterson_leave__E                                    
8282d1c0  ti_sdo_ipc_gates_GatePeterson_postInit__I                                 
8282d260  ti_sdo_ipc_nsremote_NameServerRemoteNotify_detach__E                      
8282d260  ti_sdo_utils_NameServer_SetupProxy_detach__E                              
8282d300  ti_sdo_ipc_transports_TransportShm_sharedMemReq__E                        
8282d3a0  ti_sdo_utils_NameServer_Module_startup__E                                 
8282d440  ti_sdo_utils_NameServer_postInit__I                                       
8282d4e0  ti_sysbios_family_c64p_Exception_Module_startup__E                        
8282d580  ti_sysbios_family_c64p_Hwi_dispatchC__I                                   
8282d620  ti_sysbios_family_c64p_Hwi_getStackInfo__E                                
8282d620  ti_sysbios_hal_Hwi_HwiProxy_getStackInfo__E                               
8282d620  ti_sysbios_hal_Hwi_getStackInfo__E                                        
8282d6c0  ti_sysbios_family_c66_tci66xx_CpIntc_mapSysIntToHostInt__E                
8282d760  ti_sysbios_gates_GateSwi_leave__E                                         
8282d800  ti_sysbios_knl_Swi_construct                                              
8282d8a0  ti_sysbios_timers_timer64_Timer_stop__E                                   
8282d940  xdc_runtime_Core_assignParams__I                                          
8282d9e0  xdc_runtime_SysMin_putch__E                                               
8282d9e0  xdc_runtime_System_SupportProxy_putch__E                                  
8282da80  xdc_runtime_System_formatNum__I                                           
8282db20  xdc_runtime_System_putchar__I                                             
8282dbc0  xdc_runtime_Text_printVisFxn__I                                           
8282dc60  xdc_runtime_Text_xprintf__I                                               
8282dd00  xdc_runtime_knl_GateThread_Object__create__S                              
8282dda0  xdc_runtime_knl_GateThread_create                                         
8282de40  HeapMemMP_restore                                                         
8282dec0  ListMP_create                                                             
8282df40  Qmss_queueOpen                                                            
8282dfc0  Srio_freeRxDrvBuffer                                                      
8282e040  Srio_sockBind                                                             
8282e0c0  Srio_sockSend                                                             
8282e140  __TI_readmsg                                                              
8282e1c0  __c6xabi_fixdu                                                            
8282e240  __c6xabi_llshl                                                            
8282e340  ti_sysbios_family_c62_TaskSupport_swap__E                                 
8282e340  ti_sysbios_knl_Task_SupportProxy_swap__E                                  
8282e3c0  cppi_internal_heap_cache_begin                                            
8282e440  cppi_internal_heap_malloc                                                 
8282e4c0  cppi_list_add                                                             
8282e540  cppi_list_remove                                                          
8282e5c0  sysInit                                                                   
8282e640  snprintf                                                                  
8282e6c0  ti_sdo_ipc_Ipc_getMasterAddr__I                                           
8282e740  ti_sdo_ipc_gates_GateHWSem_Module_startup__E                              
8282e7c0  ti_sdo_ipc_gates_GateHWSem_Object__create__S                              
8282e840  ti_sdo_ipc_gates_GateHWSem_create                                         
8282e8c0  ti_sdo_ipc_gates_GateMPSupportNull_Object__create__S                      
8282e940  ti_sdo_ipc_gates_GateMPSupportNull_create                                 
8282e9c0  ti_sdo_ipc_transports_TransportShm_swiFxn__I                              
8282ea40  ti_sysbios_BIOS_atExitFunc__I                                             
8282eac0  ti_sysbios_BIOS_registerRTSLock__I                                        
8282eb40  ti_sysbios_family_c66_tci66xx_CpIntc_getEventId__E                        
8282ebc0  ti_sysbios_gates_GateAll_Object__create__S                                
8282ec40  ti_sysbios_gates_GateHwi_Object__create__S                                
8282ecc0  ti_sysbios_gates_GateMutexPri_Object__create__S                           
8282ed40  ti_sysbios_gates_GateMutex_Object__create__S                              
8282edc0  ti_sysbios_gates_GateSwi_Object__create__S                                
8282ee40  ti_sysbios_hal_Hwi_checkStack                                             
8282eec0  ti_sysbios_hal_Hwi_initStack                                              
8282ef40  ti_sysbios_heaps_HeapMem_Object__create__S                                
8282efc0  ti_sysbios_heaps_HeapMem_init__I                                          
8282f040  ti_sysbios_knl_Clock_doTick__I                                            
8282f0c0  ti_sysbios_knl_Idle_run__E                                                
8282f140  ti_sysbios_knl_Semaphore_create                                           
8282f1c0  ti_sysbios_knl_Semaphore_pendTimeout__I                                   
8282f240  ti_sysbios_knl_Swi_startup__E                                             
8282f2c0  ti_sysbios_knl_Task_restore__E                                            
8282f340  ti_sysbios_syncs_SyncSem_wait__E                                          
8282f3c0  ti_sysbios_xdcruntime_GateThreadSupport_create                            
8282f440  xdc_runtime_Core_assignLabel__I                                           
8282f4c0  xdc_runtime_LoggerBuf_Instance_init__E                                    
8282f540  xdc_runtime_LoggerBuf_Module_startup__E                                   
8282f5c0  xdc_runtime_LoggerBuf_filterOutEvent__I                                   
8282f640  xdc_runtime_SysMin_output__I                                              
8282f6c0  xdc_runtime_System_atexit__E                                              
8282f740  xdc_runtime_System_aprintf_va__E                                          
8282f740  xdc_runtime_System_aprintf_va__F                                          
8282f740  xdc_runtime_System_avprintf__E                                            
8282f7c0  xdc_runtime_System_processAtExit__E                                       
8282f840  xdc_runtime_System_printf_va__E                                           
8282f840  xdc_runtime_System_printf_va__F                                           
8282f840  xdc_runtime_System_vprintf__E                                             
8282f8c0  HeapMemMP_create                                                          
8282f980  Qmss_ackInterrupt                                                         
8282f9e0  Qmss_programAccumulator                                                   
8282fa40  Qmss_setQueueThreshold                                                    
8282faa0  Srio_listCat                                                              
8282fb00  __TI_frcmpyd_div                                                          
8282fb60  __TI_writemsg                                                             
8282fbb8  C$$IO$$                                                                   
8282fbc0  __c6xabi_llshru                                                           
8282fc20  _subcull                                                                  
8282fc80  ti_sysbios_family_c64p_Hwi_switchAndDispatch__I                           
8282fce0  ti_sysbios_family_xxx_Hwi_switchAndRunFunc                                
8282fd40  cppi_list_cache_invalidate                                                
8282fda0  memccpy                                                                   
8282fe00  sprintf                                                                   
8282fe60  ti_sdo_ipc_GateMP_Object__delete__S                                       
8282fec0  ti_sdo_ipc_Ipc_getSlaveAddr__I                                            
8282ff20  ti_sdo_ipc_Ipc_reservedSizePerProc__I                                     
8282ff80  ti_sdo_ipc_ListMP_Object__delete__S                                       
8282ffe0  ti_sdo_ipc_ListMP_elemClear__I                                            
82830040  ti_sdo_ipc_gates_GatePeterson_Object__delete__S                           
828300a0  ti_sdo_ipc_GateMP_RemoteCustom1Proxy_sharedMemReq__E                      
828300a0  ti_sdo_ipc_gates_GatePeterson_sharedMemReq__E                             
82830100  ti_sdo_ipc_heaps_HeapMemMP_Object__delete__S                              
82830160  ti_sdo_ipc_nsremote_NameServerRemoteNotify_Object__delete__S              
828301c0  ti_sdo_ipc_transports_TransportShm_Object__delete__S                      
82830220  ti_sdo_utils_List_construct                                               
82830280  ti_sysbios_BIOS_errorRaiseHook__I                                         
828302e0  ti_sysbios_BIOS_removeRTSLock__I                                          
82830340  ti_sysbios_BIOS_startFunc__I                                              
828303a0  ti_sysbios_family_c62_TaskSupport_start__E                                
828303a0  ti_sysbios_knl_Task_SupportProxy_start__E                                 
82830400  ti_sysbios_family_c64p_EventCombiner_Module_startup__E                    
82830460  ti_sysbios_family_c64p_EventCombiner_unused__E                            
828304c0  ti_sysbios_family_c66_Cache_Module_startup__E                             
82830520  ti_sysbios_family_c66_tci66xx_CpIntc_unused__E                            
82830580  ti_sysbios_gates_GateAll_enter__E                                         
828305e0  ti_sysbios_gates_GateMutexPri_Object__delete__S                           
82830640  ti_sysbios_gates_GateMutexPri_construct                                   
828306a0  ti_sysbios_gates_GateMutex_Object__delete__S                              
82830700  ti_sysbios_heaps_HeapMem_free__E                                          
82830760  ti_sysbios_knl_Clock_Module_startup__E                                    
828307c0  ti_sysbios_knl_Queue_construct                                            
82830820  ti_sysbios_knl_Semaphore_Object__delete__S                                
82830880  ti_sysbios_knl_Semaphore_construct                                        
828308e0  ti_sysbios_knl_Swi_Module_startup__E                                      
82830940  ti_sysbios_knl_Task_enter__I                                              
828309a0  ti_sysbios_syncs_SyncSem_Object__delete__S                                
82830a00  ti_sysbios_xdcruntime_GateThreadSupport_Object__delete__S                 
82830a60  xdc_runtime_LoggerBuf_Object__delete__S                                   
82830ac0  xdc_runtime_LoggerBuf_reset__E                                            
82830b20  xdc_runtime_Memory_valloc__E                                              
82830b80  xdc_runtime_Text_cordText__E                                              
82830be0  xdc_runtime_knl_GateThread_Object__delete__S                              
82830c40  GateMP_Params_init                                                        
82830c80  HeapMemMP_Params_init                                                     
82830cc0  Notify_attach                                                             
82830d00  Notify_sharedMemReq                                                       
82830d40  Qmss_getMemRegDescSizeSubSys                                              
82830d80  Qmss_internalVirtToPhy                                                    
82830dc0  Qmss_queueClose                                                           
82830e00  Qmss_start                                                                
82830e40  Srio_listAdd                                                              
82830e80  Srio_listRemove                                                           
82830ec0  __c6xabi_isinf                                                            
82830f40  __c6xabi_strasgi_64plus                                                   
82830f40  __strasgi_64plus                                                          
82830f80  _args_main                                                                
82831040  ti_sysbios_family_c62_TaskSupport_buildTaskStack                          
82831080  l2_global_address                                                         
828310c0  ti_sdo_ipc_Ipc_getRegion0ReservedSize__I                                  
82831100  ti_sdo_ipc_GateMP_RemoteSystemProxy_Handle__label__S                      
82831100  ti_sdo_ipc_gates_GateHWSem_Handle__label__S                               
82831140  ti_sdo_ipc_gates_GateHWSem_Object__delete__S                              
82831180  ti_sdo_ipc_gates_GateHWSem_leave__E                                       
828311c0  ti_sdo_ipc_GateMP_RemoteCustom2Proxy_Handle__label__S                     
828311c0  ti_sdo_ipc_gates_GateMPSupportNull_Handle__label__S                       
82831200  ti_sdo_ipc_gates_GateMPSupportNull_Object__delete__S                      
82831240  ti_sdo_ipc_GateMP_RemoteCustom1Proxy_Handle__label__S                     
82831240  ti_sdo_ipc_gates_GatePeterson_Handle__label__S                            
82831280  ti_sdo_ipc_gates_GatePeterson_Instance_finalize__E                        
828312c0  ti_sdo_ipc_heaps_HeapMemMP_Handle__label__S                               
82831300  ti_sdo_ipc_nsremote_NameServerRemoteNotify_Handle__label__S               
82831300  ti_sdo_utils_NameServer_SetupProxy_Handle__label__S                       
82831340  ti_sdo_ipc_nsremote_NameServerRemoteNotify_swiFxnResponse__I              
82831380  ti_sdo_ipc_MessageQ_SetupTransportProxy_sharedMemReq__E                   
82831380  ti_sdo_ipc_transports_TransportShmSetup_sharedMemReq__E                   
828313c0  ti_sdo_ipc_transports_TransportShm_Handle__label__S                       
82831400  ti_sdo_utils_List_dequeue__E                                              
82831440  ti_sdo_utils_NameServer_Object__get__S                                    
82831480  ti_sysbios_BIOS_exitFunc__I                                               
828314c0  ti_sysbios_BIOS_rtsLock__I                                                
82831500  ti_sysbios_BIOS_rtsUnlock__I                                              
82831540  ti_sysbios_family_c64p_Hwi_disableInterrupt__E                            
82831540  ti_sysbios_hal_Hwi_HwiProxy_disableInterrupt__E                           
82831540  ti_sysbios_hal_Hwi_disableInterrupt__E                                    
82831580  ti_sysbios_family_c64p_Hwi_enableInterrupt__E                             
82831580  ti_sysbios_hal_Hwi_HwiProxy_enableInterrupt__E                            
82831580  ti_sysbios_hal_Hwi_enableInterrupt__E                                     
828315c0  ti_sysbios_family_c66_tci66xx_CpIntc_dispatchPlug__E                      
82831600  ti_sysbios_gates_GateAll_Handle__label__S                                 
82831640  ti_sysbios_gates_GateAll_Object__delete__S                                
82831680  ti_sysbios_gates_GateHwi_Handle__label__S                                 
82831680  xdc_runtime_LoggerBuf_Module_GateProxy_Handle__label__S                   
82831680  xdc_runtime_Main_Module_GateProxy_Handle__label__S                        
82831680  xdc_runtime_System_Module_GateProxy_Handle__label__S                      
828316c0  ti_sysbios_gates_GateHwi_Object__delete__S                                
82831700  ti_sysbios_gates_GateMutexPri_Handle__label__S                            
82831740  ti_sysbios_gates_GateMutexPri_Instance_init__E                            
82831780  ti_sysbios_gates_GateMutexPri_destruct                                    
828317c0  ti_sysbios_BIOS_RtsGateProxy_Handle__label__S                             
828317c0  ti_sysbios_gates_GateMutex_Handle__label__S                               
828317c0  ti_sysbios_heaps_HeapMem_Module_GateProxy_Handle__label__S                
82831800  ti_sysbios_gates_GateMutex_Instance_init__E                               
82831840  ti_sysbios_gates_GateMutex_leave__E                                       
82831880  ti_sdo_ipc_Notify_Module_GateProxy_Handle__label__S                       
82831880  ti_sysbios_gates_GateSwi_Handle__label__S                                 
828318c0  ti_sysbios_gates_GateSwi_Object__delete__S                                
82831900  ti_sysbios_heaps_HeapMem_Handle__label__S                                 
82831900  xdc_runtime_Memory_HeapProxy_Handle__label__S                             
82831940  ti_sysbios_heaps_HeapMem_Object__delete__S                                
82831980  ti_sysbios_heaps_HeapMem_Object__get__S                                   
828319c0  ti_sysbios_knl_Semaphore_destruct                                         
82831a00  ti_sysbios_knl_Swi_Object__get__S                                         
82831a40  ti_sysbios_knl_Swi_destruct                                               
82831a80  ti_sysbios_knl_Task_Object__get__S                                        
82831ac0  ti_sysbios_knl_Task_sleepTimeout__I                                       
82831b00  ti_sysbios_syncs_SyncSem_Handle__label__S                                 
82831b40  wcslen                                                                    
82831b80  xdc_runtime_Error_check__E                                                
82831bc0  xdc_runtime_Error_init__E                                                 
82831c00  xdc_runtime_GateNull_Handle__label__S                                     
82831c40  xdc_runtime_GateNull_Object__create__S                                    
82831c80  xdc_runtime_GateNull_Object__delete__S                                    
82831cc0  xdc_runtime_LoggerBuf_Handle__label__S                                    
82831d00  xdc_runtime_LoggerBuf_Instance_finalize__E                                
82831d40  xdc_runtime_LoggerBuf_Object__get__S                                      
82831d80  xdc_runtime_LoggerBuf_write0__E                                           
82831dc0  xdc_runtime_LoggerBuf_write1__E                                           
82831e00  xdc_runtime_LoggerBuf_write2__E                                           
82831e40  xdc_runtime_Registry_findById__E                                          
82831e80  xdc_runtime_SysMin_Module_startup__E                                      
82831ec0  xdc_runtime_SysMin_exit__E                                                
82831ec0  xdc_runtime_System_SupportProxy_exit__E                                   
82831f00  xdc_runtime_System_abort__E                                               
82831f40  xdc_runtime_System_aprintf__E                                             
82831f80  xdc_runtime_System_exit__E                                                
82831fc0  xdc_runtime_System_printf__E                                              
82832000  xdc_runtime_knl_GateThread_Handle__label__S                               
82832040  xdc_runtime_knl_GateThread_Instance_init__E                               
82832080  CSL_SRIO_Open                                                             
828320a0  Cppi_getChannelNumber                                                     
828320c0  Cppi_getFlowId                                                            
828320e0  Cppi_initDescriptor                                                       
82832100  Cppi_txChannelOpen                                                        
82832120  GateMP_delete                                                             
82832140  GateMP_getDefaultRemote                                                   
828321a0  ListMP_Params_init                                                        
828321c0  ListMP_close                                                              
828321e0  ListMP_delete                                                             
82832200  MultiProc_getBaseIdOfCluster                                              
82832220  MultiProc_self                                                            
82832240  NameServer_addUInt32                                                      
82832260  NameServer_getLocalUInt32                                                 
82832280  NameServer_removeEntry                                                    
828322a0  Notify_numIntLines                                                        
828322c0  Qmss_getQueueHandle                                                       
828322e0  Qmss_getQueueNumber                                                       
82832300  Qmss_init                                                                 
82832320  Qmss_insertMemoryRegion                                                   
82832340  SharedRegion_invalidSRPtr                                                 
82832360  Srio_init                                                                 
82832380  Srio_listGetHead                                                          
828323a0  Srio_listGetNext                                                          
828323c0  _GateMP_virtToPhys                                                        
828323e0  __c6xabi_errno_addr                                                       
82832400  __c6xabi_pop_rts                                                          
82832400  __pop_rts                                                                 
82832420  __c6xabi_push_rts                                                         
82832420  __push_rts                                                                
82832440  _nop                                                                      
82832480  _register_lock                                                            
828324a0  _register_synch_api                                                       
828324c0  _register_unlock                                                          
828324e0  _signbit                                                                  
82832500  ti_sysbios_family_c62_TaskSupport_glue                                    
82832520  C$$EXIT                                                                   
82832520  abort                                                                     
82832520  xdc_runtime_System_abortStd__E                                            
82832540  copysign                                                                  
82832540  copysignl                                                                 
82832560  cppi_list_get_head                                                        
82832580  cppi_list_get_next                                                        
828325a0  CSL_tscEnable                                                             
828325a8  CSL_tscRead                                                               
828325c0  __TI_decompress_none                                                      
828325e0  __TI_decompress_rle24                                                     
82832600  ti_sdo_ipc_GateMP_Params__init__S                                         
82832620  ti_sdo_ipc_GateMP_RemoteCustom1Proxy_Proxy__abstract__S                   
82832640  ti_sdo_ipc_GateMP_RemoteCustom1Proxy_Proxy__delegate__S                   
82832660  ti_sdo_ipc_GateMP_RemoteCustom1Proxy_create                               
82832680  ti_sdo_ipc_GateMP_RemoteCustom1Proxy_delete                               
828326a0  ti_sdo_ipc_GateMP_RemoteCustom2Proxy_Proxy__abstract__S                   
828326c0  ti_sdo_ipc_GateMP_RemoteCustom2Proxy_Proxy__delegate__S                   
828326e0  ti_sdo_ipc_GateMP_RemoteCustom2Proxy_create                               
82832700  ti_sdo_ipc_GateMP_RemoteCustom2Proxy_delete                               
82832720  ti_sdo_ipc_GateMP_RemoteSystemProxy_Proxy__abstract__S                    
82832740  ti_sdo_ipc_GateMP_RemoteSystemProxy_Proxy__delegate__S                    
82832760  ti_sdo_ipc_GateMP_RemoteSystemProxy_create                                
82832780  ti_sdo_ipc_GateMP_RemoteSystemProxy_delete                                
828327a0  ti_sdo_ipc_GateMP_delete                                                  
828327c0  ti_sdo_ipc_GateMP_getSharedAddr__E                                        
828327c0  ti_sdo_ipc_GateMP_getSharedAddr__F                                        
828327e0  ti_sdo_ipc_GateMP_setDefaultRemote__E                                     
828327e0  ti_sdo_ipc_GateMP_setDefaultRemote__F                                     
82832800  ti_sdo_ipc_ListMP_Params__init__S                                         
82832820  ti_sdo_ipc_ListMP_delete                                                  
82832840  ti_sdo_ipc_MessageQ_Object__get__S                                        
82832860  ti_sdo_ipc_MessageQ_Params__init__S                                       
82832880  ti_sdo_ipc_Notify_Module_GateProxy_enter__E                               
828328a0  ti_sdo_ipc_Notify_Module_GateProxy_leave__E                               
828328c0  ti_sdo_ipc_GateMP_RemoteSystemProxy_Params__init__S                       
828328c0  ti_sdo_ipc_gates_GateHWSem_Params__init__S                                
828328e0  ti_sdo_ipc_GateMP_RemoteSystemProxy_getReservedMask__E                    
828328e0  ti_sdo_ipc_gates_GateHWSem_getReservedMask__E                             
82832900  ti_sdo_ipc_GateMP_RemoteSystemProxy_query__E                              
82832900  ti_sdo_ipc_gates_GateHWSem_query__E                                       
82832920  ti_sdo_ipc_GateMP_RemoteSystemProxy_sharedMemReq__E                       
82832920  ti_sdo_ipc_gates_GateHWSem_sharedMemReq__E                                
82832940  ti_sdo_ipc_gates_GateMPSupportNull_Instance_init__E                       
82832960  ti_sdo_ipc_GateMP_RemoteCustom2Proxy_Params__init__S                      
82832960  ti_sdo_ipc_gates_GateMPSupportNull_Params__init__S                        
82832980  ti_sdo_ipc_GateMP_RemoteCustom2Proxy_getReservedMask__E                   
82832980  ti_sdo_ipc_gates_GateMPSupportNull_getReservedMask__E                     
828329a0  ti_sdo_ipc_GateMP_RemoteCustom2Proxy_query__E                             
828329a0  ti_sdo_ipc_gates_GateMPSupportNull_query__E                               
828329c0  ti_sdo_ipc_GateMP_RemoteCustom2Proxy_sharedMemReq__E                      
828329c0  ti_sdo_ipc_gates_GateMPSupportNull_sharedMemReq__E                        
828329e0  ti_sdo_ipc_GateMP_RemoteCustom1Proxy_Params__init__S                      
828329e0  ti_sdo_ipc_gates_GatePeterson_Params__init__S                             
82832a00  ti_sdo_ipc_GateMP_RemoteCustom1Proxy_getReservedMask__E                   
82832a00  ti_sdo_ipc_gates_GatePeterson_getReservedMask__E                          
82832a20  ti_sdo_ipc_GateMP_RemoteCustom1Proxy_query__E                             
82832a20  ti_sdo_ipc_gates_GatePeterson_query__E                                    
82832a40  ti_sdo_ipc_heaps_HeapMemMP_Params__init__S                                
82832a60  ti_sdo_ipc_heaps_HeapMemMP_isBlocking__E                                  
82832a80  ti_sdo_ipc_Notify_SetupProxy_attach__E                                    
82832a80  ti_sdo_ipc_notifyDrivers_NotifySetupNull_attach__E                        
82832aa0  ti_sdo_ipc_Notify_SetupProxy_numIntLines__E                               
82832aa0  ti_sdo_ipc_notifyDrivers_NotifySetupNull_numIntLines__E                   
82832ac0  ti_sdo_ipc_Notify_SetupProxy_sharedMemReq__E                              
82832ac0  ti_sdo_ipc_notifyDrivers_NotifySetupNull_sharedMemReq__E                  
82832ae0  ti_sdo_ipc_nsremote_NameServerRemoteNotify_Object__first__S               
82832b00  ti_sdo_ipc_nsremote_NameServerRemoteNotify_Object__next__S                
82832b20  ti_sdo_ipc_nsremote_NameServerRemoteNotify_Params__init__S                
82832b20  ti_sdo_utils_NameServer_SetupProxy_Params__init__S                        
82832b40  ti_sdo_ipc_nsremote_NameServerRemoteNotify_delete                         
82832b60  ti_sdo_ipc_nsremote_NameServerRemoteNotify_sharedMemReq__E                
82832b60  ti_sdo_utils_NameServer_SetupProxy_sharedMemReq__E                        
82832b80  ti_sdo_ipc_MessageQ_SetupTransportProxy_isRegistered__E                   
82832b80  ti_sdo_ipc_transports_TransportShmSetup_isRegistered__E                   
82832ba0  ti_sdo_ipc_transports_TransportShm_Params__init__S                        
82832bc0  ti_sdo_ipc_transports_TransportShm_control__E                             
82832be0  ti_sdo_ipc_transports_TransportShm_getStatus__E                           
82832c00  ti_sdo_ipc_transports_TransportShm_notifyFxn__I                           
82832c20  ti_sdo_ipc_transports_TransportShm_setErrFxn__E                           
82832c40  ti_sdo_utils_List_Instance_init__E                                        
82832c60  ti_sdo_utils_List_Object__get__S                                          
82832c80  ti_sdo_utils_List_destruct                                                
82832ca0  ti_sdo_utils_List_enqueueHead__E                                          
82832cc0  ti_sdo_utils_List_enqueue__E                                              
82832ce0  ti_sdo_utils_List_get__E                                                  
82832d00  ti_sdo_utils_List_next__E                                                 
82832d20  ti_sdo_utils_List_putHead__E                                              
82832d40  ti_sdo_utils_List_put__E                                                  
82832d60  ti_sdo_utils_List_remove__E                                               
82832d80  ti_sdo_utils_MultiProc_getClusterId__E                                    
82832d80  ti_sdo_utils_MultiProc_getClusterId__F                                    
82832da0  ti_sdo_utils_NameServer_Module__startupDone__F                            
82832da0  ti_sdo_utils_NameServer_Module__startupDone__S                            
82832dc0  ti_sdo_utils_NameServer_Object__first__S                                  
82832de0  ti_sdo_utils_NameServer_Object__next__S                                   
82832e00  ti_sysbios_BIOS_RtsGateProxy_enter__E                                     
82832e20  ti_sysbios_BIOS_RtsGateProxy_leave__E                                     
82832e40  ti_sysbios_BIOS_exit__E                                                   
82832e60  ti_sysbios_BIOS_linkedWithIncorrectBootLibrary__E                         
82832e80  ti_sysbios_BIOS_nullFunc__I                                               
82832ea0  ti_sysbios_BIOS_setThreadType__E                                          
82832ec0  ti_sysbios_BIOS_start__E                                                  
82832ee0  ti_sysbios_family_c62_TaskSupport_Module__startupDone__S                  
82832ee0  ti_sysbios_knl_Task_SupportProxy_Module__startupDone__S                   
82832f00  ti_sysbios_family_c62_TaskSupport_checkStack__E                           
82832f00  ti_sysbios_knl_Task_SupportProxy_checkStack__E                            
82832f20  ti_sysbios_family_c62_TaskSupport_getStackAlignment__E                    
82832f20  ti_sysbios_knl_Task_SupportProxy_getStackAlignment__E                     
82832f40  ti_sysbios_family_c64p_Hwi_Module__startupDone__F                         
82832f40  ti_sysbios_family_c64p_Hwi_Module__startupDone__S                         
82832f40  ti_sysbios_hal_Hwi_HwiProxy_Module__startupDone__S                        
82832f60  ti_sysbios_family_c64p_Hwi_clearInterrupt__E                              
82832f60  ti_sysbios_hal_Hwi_HwiProxy_clearInterrupt__E                             
82832f60  ti_sysbios_hal_Hwi_clearInterrupt__E                                      
82832f80  ti_sysbios_family_c64p_Hwi_startup__E                                     
82832f80  ti_sysbios_hal_Hwi_HwiProxy_startup__E                                    
82832f80  ti_sysbios_hal_Hwi_startup__E                                             
82832fa0  ti_sysbios_family_c64p_Hwi_switchFromBootStack__E                         
82832fa0  ti_sysbios_hal_Hwi_HwiProxy_switchFromBootStack__E                        
82832fa0  ti_sysbios_hal_Hwi_switchFromBootStack__E                                 
82832fc0  ti_sysbios_family_c64p_TimestampProvider_Module_startup__E                
82832fe0  ti_sysbios_family_c64p_TimestampProvider_get64__E                         
82832fe0  xdc_runtime_LoggerBuf_TimestampProxy_get64__E                             
82833000  ti_sysbios_family_c64p_tci6488_TimerSupport_enable__E                     
82833000  ti_sysbios_timers_timer64_Timer_TimerSupportProxy_enable__E               
82833020  ti_sysbios_family_c66_Cache_RTSSynchInv__I                                
82833040  ti_sysbios_family_c66_Cache_RTSSynchWbInv__I                              
82833060  ti_sysbios_family_c66_Cache_RTSSynchWb__I                                 
82833080  ti_sysbios_family_c66_Cache_inv__E                                        
82833080  ti_sysbios_hal_Cache_CacheProxy_inv__E                                    
82833080  ti_sysbios_hal_Cache_inv__E                                               
828330a0  ti_sysbios_family_c66_Cache_wait__E                                       
828330a0  ti_sysbios_hal_Cache_CacheProxy_wait__E                                   
828330a0  ti_sysbios_hal_Cache_wait__E                                              
828330c0  ti_sysbios_family_c66_Cache_wbInv__E                                      
828330c0  ti_sysbios_hal_Cache_CacheProxy_wbInv__E                                  
828330c0  ti_sysbios_hal_Cache_wbInv__E                                             
828330e0  ti_sysbios_family_c66_tci66xx_CpIntc_enableHostInt__E                     
82833100  ti_sysbios_gates_GateAll_Instance_init__E                                 
82833120  ti_sysbios_gates_GateAll_query__E                                         
82833140  ti_sysbios_gates_GateHwi_Instance_init__E                                 
82833160  ti_sysbios_gates_GateHwi_enter__E                                         
82833180  ti_sysbios_gates_GateHwi_leave__E                                         
828331a0  ti_sysbios_gates_GateHwi_query__E                                         
828331a0  xdc_runtime_LoggerBuf_Module_GateProxy_query__E                           
828331a0  xdc_runtime_Main_Module_GateProxy_query__E                                
828331a0  xdc_runtime_System_Module_GateProxy_query__E                              
828331c0  ti_sysbios_gates_GateMutexPri_Instance_finalize__E                        
828331e0  ti_sysbios_gates_GateMutexPri_query__E                                    
828331e0  ti_sysbios_xdcruntime_GateThreadSupport_query__E                          
828331e0  xdc_runtime_knl_GateThread_Proxy_query__E                                 
828331e0  xdc_runtime_knl_GateThread_query__E                                       
82833200  ti_sysbios_gates_GateMutex_Instance_finalize__E                           
82833220  ti_sysbios_BIOS_RtsGateProxy_query__E                                     
82833220  ti_sysbios_gates_GateMutex_query__E                                       
82833220  ti_sysbios_heaps_HeapMem_Module_GateProxy_query__E                        
82833240  ti_sysbios_gates_GateSwi_Instance_init__E                                 
82833260  ti_sdo_ipc_Notify_Module_GateProxy_query__E                               
82833260  ti_sysbios_gates_GateSwi_query__E                                         
82833280  ti_sysbios_hal_Hwi_Module_startup__E                                      
828332a0  ti_sysbios_heaps_HeapMem_Module_GateProxy_enter__E                        
828332c0  ti_sysbios_heaps_HeapMem_Module_GateProxy_leave__E                        
828332e0  ti_sysbios_heaps_HeapMem_isBlocking__E                                    
82833300  ti_sysbios_knl_Clock_TimerProxy_getMaxTicks__E                            
82833320  ti_sysbios_knl_Idle_loop__E                                               
82833340  ti_sysbios_knl_Queue_Instance_init__E                                     
82833360  ti_sysbios_knl_Queue_Object__get__S                                       
82833380  ti_sysbios_knl_Queue_destruct                                             
828333a0  ti_sysbios_knl_Queue_empty__E                                             
828333c0  ti_sysbios_knl_Semaphore_Instance_finalize__E                             
828333e0  ti_sysbios_knl_Semaphore_Params__init__S                                  
82833400  ti_sysbios_knl_Semaphore_delete                                           
82833420  ti_sysbios_knl_Swi_Params__init__S                                        
82833440  ti_sysbios_knl_Swi_disable__E                                             
82833460  ti_sysbios_knl_Task_disable__E                                            
82833480  ti_sysbios_knl_Task_startup__E                                            
828334a0  ti_sysbios_syncs_SyncSem_Instance_finalize__E                             
828334c0  ti_sysbios_syncs_SyncSem_delete                                           
828334e0  ti_sysbios_syncs_SyncSem_query__E                                         
82833500  ti_sysbios_syncs_SyncSem_signal__E                                        
82833520  ti_sysbios_knl_Clock_TimerProxy_Module__startupDone__S                    
82833520  ti_sysbios_timers_timer64_Timer_Module__startupDone__F                    
82833520  ti_sysbios_timers_timer64_Timer_Module__startupDone__S                    
82833540  ti_sysbios_timers_timer64_Timer_getMaxTicks__E                            
82833560  ti_sysbios_xdcruntime_GateThreadSupport_Instance_finalize__E              
82833580  ti_sysbios_xdcruntime_GateThreadSupport_Instance_init__E                  
828335a0  ti_sysbios_xdcruntime_GateThreadSupport_enter__E                          
828335c0  xdc_runtime_Error_getSite__E                                              
828335e0  xdc_runtime_Error_raiseX__E                                               
82833600  xdc_runtime_GateNull_enter__E                                             
82833620  xdc_runtime_GateNull_leave__E                                             
82833640  xdc_runtime_GateNull_query__E                                             
82833660  xdc_runtime_Gate_enterSystem__E                                           
82833680  xdc_runtime_Gate_leaveSystem__E                                           
828336a0  xdc_runtime_Memory_HeapProxy_alloc__E                                     
828336c0  xdc_runtime_Memory_HeapProxy_free__E                                      
828336e0  xdc_runtime_LoggerBuf_Module_GateProxy_enter__E                           
82833700  xdc_runtime_LoggerBuf_Module_GateProxy_leave__E                           
82833720  xdc_runtime_LoggerBuf_disable__E                                          
82833740  xdc_runtime_LoggerBuf_enable__E                                           
82833760  xdc_runtime_Memory_calloc__E                                              
82833780  xdc_runtime_Memory_free__E                                                
828337a0  xdc_runtime_Memory_getMaxDefaultTypeAlign__E                              
828337c0  xdc_runtime_Startup_Module__startupDone__S                                
828337e0  xdc_runtime_Startup_exec__I                                               
82833800  xdc_runtime_Startup_rtsDone__E                                            
82833820  xdc_runtime_SysMin_ready__E                                               
82833820  xdc_runtime_System_SupportProxy_ready__E                                  
82833840  xdc_runtime_System_Module_GateProxy_enter__E                              
82833860  xdc_runtime_System_Module_GateProxy_leave__E                              
82833880  xdc_runtime_System_Module_startup__E                                      
828338a0  xdc_runtime_System_snprintf_va__E                                         
828338a0  xdc_runtime_System_snprintf_va__F                                         
828338a0  xdc_runtime_System_vsnprintf__E                                           
828338c0  xdc_runtime_Text_ropeText__E                                              
828338e0  xdc_runtime_Text_visitRope__I                                             
82833900  xdc_runtime_knl_GateThread_Instance_finalize__E                           
82833920  xdc_runtime_knl_GateThread_Module__startupDone__S                         
82833940  xdc_runtime_knl_GateThread_Proxy_create                                   
82833960  xdc_runtime_knl_GateThread_Proxy_delete                                   
82833980  xdc_runtime_knl_GateThread_Proxy_enter__E                                 
828339a0  xdc_runtime_knl_GateThread_Proxy_leave__E                                 
828339c0  xdc_runtime_knl_GateThread_enter__E                                       
828339e0  xdc_runtime_knl_GateThread_leave__E                                       
82833a00  ti_sysbios_heaps_HeapMem_Instance_State_0_buf__A                          
82840200  ti_sysbios_knl_Task_Instance_State_0_stack__A                             
82844200  qmssLObj                                                                  
828447a8  xdc_runtime_LoggerBuf_Instance_State_0_entryArr__A                        
828449a8  xdc_runtime_SysMin_Module_State_0_outbuf__A                               
82844ba8  gDataBufferMemMgr                                                         
82844c98  rxQueHnd                                                                  
82844cb8  parmbuf                                                                   
82844cc0  qmssLObjIsValid                                                           
82844cc8  xdc_runtime_Text_charTab__A                                               
82847a6e  ti_sdo_ipc_GateMP_Module__id__C                                           
82848720  ti_sysbios_family_c66_Cache_marvalues__C                                  
82848d88  xdc_runtime_Text_nodeTab__A                                               
82849084  ti_sdo_ipc_GateMP_A_invalidClose__C                                       
82849088  ti_sysbios_family_c66_tci66xx_CpIntc_sysIntToHostInt__A                   
828492e0  _ctypes_                                                                  
828493e1  ti_sysbios_timers_timer64_Timer_localTimerBaseId__C                       
828493e2  ti_sdo_ipc_GateMP_Module__loggerDefined__C                                
82849664  ti_sdo_ipc_GateMP_A_invalidDelete__C                                      
82849668  xdc_runtime_Startup_sfxnTab__A                                            
828496b0  ti_sysbios_knl_Task_Object__PARAMS__C                                     
82849734  xdc_runtime_LoggerBuf_Module__FXNS__C                                     
82849770  ti_sdo_ipc_GateMP_Object__PARAMS__C                                       
828497a4  ti_sdo_ipc_heaps_HeapMemMP_Object__PARAMS__C                              
82849800  ti_sdo_ipc_ListMP_Object__PARAMS__C                                       
8284982c  ti_sdo_ipc_gates_GateHWSem_Module__FXNS__C                                
82849858  ti_sdo_ipc_gates_GateMPSupportNull_Module__FXNS__C                        
82849884  ti_sdo_ipc_gates_GatePeterson_Module__FXNS__C                             
828498b0  ti_sdo_ipc_heaps_HeapMemMP_Module__FXNS__C                                
828498d8  ti_sdo_ipc_nsremote_NameServerRemoteNotify_Module__FXNS__C                
82849900  ti_sdo_ipc_transports_TransportShm_Module__FXNS__C                        
82849928  ti_sdo_ipc_transports_TransportShm_Object__PARAMS__C                      
82849950  ti_sysbios_heaps_HeapMem_Module__FXNS__C                                  
82849978  ti_sysbios_knl_Swi_Object__PARAMS__C                                      
828499a0  xdc_runtime_LoggerBuf_Object__PARAMS__C                                   
82849a34  ti_sdo_ipc_gates_GateHWSem_Object__PARAMS__C                              
82849a58  ti_sdo_ipc_gates_GateMPSupportNull_Object__PARAMS__C                      
82849a7c  ti_sdo_ipc_gates_GatePeterson_Object__PARAMS__C                           
82849aa0  ti_sysbios_gates_GateAll_Module__FXNS__C                                  
82849ac4  ti_sysbios_gates_GateHwi_Module__FXNS__C                                  
82849ae8  ti_sysbios_gates_GateMutexPri_Module__FXNS__C                             
82849b0c  ti_sysbios_gates_GateMutex_Module__FXNS__C                                
82849b30  ti_sysbios_gates_GateSwi_Module__FXNS__C                                  
82849b54  ti_sysbios_heaps_HeapMem_Object__PARAMS__C                                
82849b78  ti_sysbios_knl_Semaphore_Object__PARAMS__C                                
82849b9c  ti_sysbios_syncs_SyncSem_Module__FXNS__C                                  
82849bc0  xdc_runtime_GateNull_Module__FXNS__C                                      
82849be4  ti_sdo_ipc_GateMP_E_gateUnavailable__C                                    
82849be8  xdc_runtime_Startup_sfxnRts__A                                            
82849c0c  xdc_runtime_knl_GateThread_Module__FXNS__C                                
82849c30  rxQueNum                                                                  
82849c50  ti_sdo_ipc_GateMP_Object__DESC__C                                         
82849c70  ti_sdo_ipc_ListMP_Object__DESC__C                                         
82849c90  ti_sdo_ipc_MessageQ_Object__DESC__C                                       
82849cb0  ti_sdo_ipc_MessageQ_Object__PARAMS__C                                     
82849cd0  ti_sdo_ipc_Notify_Object__DESC__C                                         
82849cf0  ti_sdo_ipc_gates_GateHWSem_Object__DESC__C                                
82849d10  ti_sdo_ipc_gates_GateMPSupportNull_Object__DESC__C                        
82849d30  ti_sdo_ipc_gates_GatePeterson_Object__DESC__C                             
82849d50  ti_sdo_ipc_heaps_HeapMemMP_Object__DESC__C                                
82849d70  ti_sdo_ipc_nsremote_NameServerRemoteNotify_Object__DESC__C                
82849d90  ti_sdo_ipc_nsremote_NameServerRemoteNotify_Object__PARAMS__C              
82849db0  ti_sdo_ipc_transports_TransportShm_Object__DESC__C                        
82849dd0  ti_sdo_utils_List_Object__DESC__C                                         
82849df0  ti_sysbios_family_c66_tci66xx_CpIntc_hostIntToEventId__A                  
82849e10  ti_sysbios_gates_GateAll_Object__DESC__C                                  
82849e30  ti_sysbios_gates_GateHwi_Object__DESC__C                                  
82849e50  ti_sysbios_gates_GateMutexPri_Object__DESC__C                             
82849e70  ti_sysbios_gates_GateMutex_Object__DESC__C                                
82849e90  ti_sysbios_gates_GateSwi_Object__DESC__C                                  
82849eb0  ti_sysbios_heaps_HeapMem_Object__DESC__C                                  
82849ed0  ti_sysbios_knl_Queue_Object__DESC__C                                      
82849ef0  ti_sysbios_knl_Semaphore_Object__DESC__C                                  
82849f10  ti_sysbios_knl_Swi_Object__DESC__C                                        
82849f30  ti_sysbios_knl_Task_Object__DESC__C                                       
82849f50  ti_sysbios_syncs_SyncSem_Object__DESC__C                                  
82849f70  ti_sysbios_xdcruntime_GateThreadSupport_Object__DESC__C                   
82849f90  xdc_runtime_GateNull_Object__DESC__C                                      
82849fb0  xdc_runtime_LoggerBuf_Object__DESC__C                                     
82849fd0  xdc_runtime_knl_GateThread_Object__DESC__C                                
82849ff0  ti_sysbios_syncs_SyncSem_Object__PARAMS__C                                
8284a00c  ti_sdo_ipc_GateMP_E_localGate__C                                          
8284a010  ti_sysbios_family_c66_tci66xx_CpIntc_eventId__A                           
8284a02a  ti_sdo_ipc_Ipc_Module__id__C                                              
8284a02c  ti_sdo_ipc_GateMP_LM_create__C                                            
8284a030  ti_sysbios_family_c66_tci66xx_CpIntc_hostIntToEventId_0__A                
8284a04a  ti_sdo_ipc_Ipc_generateSlaveDataForHost__C                                
8284a04c  ti_sdo_ipc_GateMP_LM_delete__C                                            
8284a050  ti_sysbios_family_c66_tci66xx_CpIntc_hostIntToEventId_1__A                
8284a06a  ti_sdo_ipc_ListMP_Module__id__C                                           
8284a06c  ti_sdo_ipc_GateMP_LM_enter__C                                             
8284a070  ti_sysbios_family_c66_tci66xx_CpIntc_hostIntToEventId_2__A                
8284a08a  ti_sdo_ipc_MessageQ_Module__id__C                                         
8284a08c  ti_sdo_ipc_GateMP_LM_leave__C                                             
8284a090  ti_sysbios_family_c66_tci66xx_CpIntc_hostIntToEventId_3__A                
8284a0aa  ti_sdo_ipc_MessageQ_Module__loggerDefined__C                              
8284a0ac  ti_sdo_ipc_GateMP_LM_open__C                                              
8284a0b0  ti_sysbios_family_c66_tci66xx_CpIntc_hostIntToEventId_4__A                
8284a0ca  ti_sdo_ipc_Notify_Module__id__C                                           
8284a0cc  ti_sdo_ipc_GateMP_Module__diagsEnabled__C                                 
8284a0d0  ti_sysbios_family_c66_tci66xx_CpIntc_hostIntToEventId_5__A                
8284a0ea  ti_sdo_ipc_Notify_numLines__C                                             
8284a0ec  ti_sdo_ipc_GateMP_Module__diagsIncluded__C                                
8284a0f0  ti_sysbios_family_c66_tci66xx_CpIntc_hostIntToEventId_6__A                
8284a10a  ti_sdo_ipc_Notify_reservedEvents__C                                       
8284a10c  ti_sdo_ipc_GateMP_Module__diagsMask__C                                    
8284a110  ti_sysbios_family_c66_tci66xx_CpIntc_hostIntToEventId_7__A                
8284a12a  ti_sdo_ipc_SharedRegion_Module__id__C                                     
8284a12c  ti_sdo_ipc_GateMP_Module__loggerFxn2__C                                   
8284a160  ti_sdo_ipc_Notify_Object__PARAMS__C                                       
8284a178  ti_sdo_utils_List_Object__PARAMS__C                                       
8284a190  ti_sysbios_gates_GateAll_Object__PARAMS__C                                
8284a1a8  ti_sysbios_gates_GateHwi_Object__PARAMS__C                                
8284a1c0  ti_sysbios_gates_GateMutexPri_Object__PARAMS__C                           
8284a1d8  ti_sysbios_gates_GateMutex_Object__PARAMS__C                              
8284a1f0  ti_sysbios_gates_GateSwi_Object__PARAMS__C                                
8284a208  ti_sysbios_knl_Queue_Object__PARAMS__C                                    
8284a220  ti_sysbios_xdcruntime_GateThreadSupport_Object__PARAMS__C                 
8284a238  xdc_runtime_GateNull_Object__PARAMS__C                                    
8284a250  xdc_runtime_knl_GateThread_Object__PARAMS__C                              
8284a268  flowIdNum                                                                 
8284a278  ti_sysbios_family_c64p_EventCombiner_EVTMASK__C                           
8284a288  qmssQueueFree                                                             
8284a290  qmssQueueFreeSize                                                         
8284a298  ti_sysbios_knl_Idle_funcList__C                                           
8284a2a0  xdc_runtime_Startup_firstFxns__A                                          
8284a2a8  xdc_runtime_Startup_firstFxns__C                                          
8284a2b0  xdc_runtime_Startup_lastFxns__C                                           
8284a2b8  ti_sdo_ipc_GateMP_Module__loggerFxn4__C                                   
8284a2bc  ti_sdo_ipc_GateMP_Module__loggerObj__C                                    
8284a2c0  ti_sdo_ipc_Ipc_A_addrNotCacheAligned__C                                   
8284a2c4  ti_sdo_ipc_Ipc_A_addrNotInSharedRegion__C                                 
8284a2c8  ti_sdo_ipc_Ipc_A_internal__C                                              
8284a2cc  ti_sdo_ipc_Ipc_A_invArgument__C                                           
8284a2d0  ti_sdo_ipc_Ipc_A_invParam__C                                              
8284a2d4  ti_sdo_ipc_Ipc_A_nullArgument__C                                          
8284a2d8  ti_sdo_ipc_Ipc_A_nullPointer__C                                           
8284a2dc  ti_sdo_ipc_Ipc_E_internal__C                                              
8284a2e0  ti_sdo_ipc_Ipc_E_nameFailed__C                                            
8284a2e4  ti_sdo_ipc_Ipc_E_versionMismatch__C                                       
8284a2e8  ti_sdo_ipc_Ipc_Module__diagsEnabled__C                                    
8284a2ec  ti_sdo_ipc_Ipc_Module__diagsIncluded__C                                   
8284a2f0  ti_sdo_ipc_Ipc_Module__diagsMask__C                                       
8284a2f4  ti_sdo_ipc_Ipc_numUserFxns__C                                             
8284a2f8  ti_sdo_ipc_Ipc_procSync__C                                                
8284a2fc  ti_sdo_ipc_Ipc_userFxns__C                                                
8284a300  ti_sdo_ipc_ListMP_Module__diagsEnabled__C                                 
8284a304  ti_sdo_ipc_ListMP_Module__diagsIncluded__C                                
8284a308  ti_sdo_ipc_ListMP_Module__diagsMask__C                                    
8284a30c  ti_sdo_ipc_MessageQ_A_invalidMsg__C                                       
8284a310  ti_sdo_ipc_MessageQ_A_invalidObj__C                                       
8284a314  ti_sdo_ipc_MessageQ_A_invalidQueueId__C                                   
8284a318  ti_sdo_ipc_MessageQ_A_procIdInvalid__C                                    
8284a31c  ti_sdo_ipc_MessageQ_A_unregisteredTransport__C                            
8284a320  ti_sdo_ipc_MessageQ_E_indexNotAvailable__C                                
8284a324  ti_sdo_ipc_MessageQ_E_maxReached__C                                       
8284a328  ti_sdo_ipc_MessageQ_E_nameFailed__C                                       
8284a32c  ti_sdo_ipc_MessageQ_Instance_State_highList__O                            
8284a330  ti_sdo_ipc_MessageQ_Instance_State_normalList__O                          
8284a334  ti_sdo_ipc_MessageQ_LM_putLocal__C                                        
8284a338  ti_sdo_ipc_MessageQ_Module__diagsEnabled__C                               
8284a33c  ti_sdo_ipc_MessageQ_Module__diagsIncluded__C                              
8284a340  ti_sdo_ipc_MessageQ_Module__diagsMask__C                                  
8284a344  ti_sdo_ipc_MessageQ_Module__loggerFxn4__C                                 
8284a348  ti_sdo_ipc_MessageQ_Module__loggerObj__C                                  
8284a34c  ti_sdo_ipc_MessageQ_Object__count__C                                      
8284a350  ti_sdo_ipc_MessageQ_Object__heap__C                                       
8284a354  ti_sdo_ipc_MessageQ_maxRuntimeEntries__C                                  
8284a358  ti_sdo_ipc_MessageQ_numReservedEntries__C                                 
8284a35c  ti_sdo_ipc_Notify_A_alreadyRegistered__C                                  
8284a360  ti_sdo_ipc_Notify_A_internal__C                                           
8284a364  ti_sdo_ipc_Notify_A_invArgument__C                                        
8284a368  ti_sdo_ipc_Notify_A_notRegistered__C                                      
8284a36c  ti_sdo_ipc_Notify_A_reservedEvent__C                                      
8284a370  ti_sdo_ipc_Notify_Module__diagsEnabled__C                                 
8284a374  ti_sdo_ipc_Notify_Module__diagsIncluded__C                                
8284a378  ti_sdo_ipc_Notify_Module__diagsMask__C                                    
8284a37c  ti_sdo_ipc_Notify_Module__gateObj__C                                      
8284a380  ti_sdo_ipc_Notify_Object__heap__C                                         
8284a384  ti_sdo_ipc_Notify_numEvents__C                                            
8284a388  ti_sdo_ipc_SharedRegion_A_addrOutOfRange__C                               
8284a38c  ti_sdo_ipc_SharedRegion_A_idTooLarge__C                                   
8284a390  ti_sdo_ipc_SharedRegion_A_noHeap__C                                       
8284a394  ti_sdo_ipc_SharedRegion_A_region0Invalid__C                               
8284a398  ti_sdo_ipc_SharedRegion_A_regionInvalid__C                                
8284a39c  ti_sdo_ipc_SharedRegion_A_reserveTooMuch__C                               
8284a3a0  ti_sdo_ipc_SharedRegion_INVALIDSRPTR__C                                   
8284a3a4  ti_sdo_ipc_SharedRegion_Module__diagsEnabled__C                           
8284a3a8  ti_sdo_ipc_SharedRegion_Module__diagsIncluded__C                          
8284a3ac  ti_sdo_ipc_SharedRegion_Module__diagsMask__C                              
8284a3b0  ti_sdo_ipc_SharedRegion_numOffsetBits__C                                  
8284a3b4  ti_sdo_ipc_SharedRegion_offsetMask__C                                     
8284a3b8  ti_sdo_ipc_gates_GateHWSem_A_invSemNum__C                                 
8284a3bc  ti_sdo_ipc_gates_GateHWSem_Module__diagsEnabled__C                        
8284a3c0  ti_sdo_ipc_gates_GateHWSem_Module__diagsIncluded__C                       
8284a3c4  ti_sdo_ipc_gates_GateHWSem_Module__diagsMask__C                           
8284a3c8  ti_sdo_ipc_gates_GateHWSem_baseAddr__C                                    
8284a3cc  ti_sdo_ipc_gates_GateHWSem_numSems__C                                     
8284a3d0  ti_sdo_ipc_gates_GateHWSem_reservedMaskArr__A                             
8284a3d4  ti_sdo_ipc_gates_GateHWSem_reservedMaskArr__C                             
8284a3d8  ti_sdo_ipc_gates_GateMPSupportNull_A_invalidAction__C                     
8284a3dc  ti_sdo_ipc_gates_GateMPSupportNull_Module__diagsEnabled__C                
8284a3e0  ti_sdo_ipc_gates_GateMPSupportNull_Module__diagsIncluded__C               
8284a3e4  ti_sdo_ipc_gates_GateMPSupportNull_Module__diagsMask__C                   
8284a3e8  ti_sdo_ipc_gates_GateMPSupportNull_action__C                              
8284a3ec  ti_sdo_ipc_gates_GatePeterson_E_gateRemotelyOpened__C                     
8284a3f0  ti_sdo_ipc_gates_GatePeterson_Module__diagsEnabled__C                     
8284a3f4  ti_sdo_ipc_gates_GatePeterson_Module__diagsIncluded__C                    
8284a3f8  ti_sdo_ipc_gates_GatePeterson_Module__diagsMask__C                        
8284a3fc  ti_sdo_ipc_gates_GatePeterson_numInstances__C                             
8284a400  ti_sdo_ipc_heaps_HeapMemMP_A_align__C                                     
8284a404  ti_sdo_ipc_heaps_HeapMemMP_A_heapSize__C                                  
8284a408  ti_sdo_ipc_heaps_HeapMemMP_A_invalidFree__C                               
8284a40c  ti_sdo_ipc_heaps_HeapMemMP_A_zeroBlock__C                                 
8284a410  ti_sdo_ipc_heaps_HeapMemMP_E_memory__C                                    
8284a414  ti_sdo_ipc_heaps_HeapMemMP_Module__diagsEnabled__C                        
8284a418  ti_sdo_ipc_heaps_HeapMemMP_Module__diagsIncluded__C                       
8284a41c  ti_sdo_ipc_heaps_HeapMemMP_Module__diagsMask__C                           
8284a420  ti_sdo_ipc_interfaces_IGateMPSupport_Interface__BASE__C                   
8284a424  ti_sdo_ipc_interfaces_IMessageQTransport_Interface__BASE__C               
8284a428  ti_sdo_ipc_interfaces_INetworkTransport_Interface__BASE__C                
8284a42c  ti_sdo_ipc_interfaces_ITransport_Interface__BASE__C                       
8284a430  ti_sdo_ipc_nsremote_NameServerRemoteNotify_A_invalidValueLen__C           
8284a434  ti_sdo_ipc_nsremote_NameServerRemoteNotify_A_messageSize__C               
8284a438  ti_sdo_ipc_nsremote_NameServerRemoteNotify_Instance_State_semMultiBlock__O
8284a43c  ti_sdo_ipc_nsremote_NameServerRemoteNotify_Instance_State_semRemoteWait__O
8284a440  ti_sdo_ipc_nsremote_NameServerRemoteNotify_Instance_State_swiRequest__O   
8284a444  ti_sdo_ipc_nsremote_NameServerRemoteNotify_Instance_State_swiResponse__O  
8284a448  ti_sdo_ipc_nsremote_NameServerRemoteNotify_Module__diagsEnabled__C        
8284a44c  ti_sdo_ipc_nsremote_NameServerRemoteNotify_Module__diagsIncluded__C       
8284a450  ti_sdo_ipc_nsremote_NameServerRemoteNotify_Module__diagsMask__C           
8284a454  ti_sdo_ipc_nsremote_NameServerRemoteNotify_notifyEventId__C               
8284a458  ti_sdo_ipc_nsremote_NameServerRemoteNotify_timeout__C                     
8284a45c  ti_sdo_ipc_transports_TransportShmSetup_priority__C                       
8284a460  ti_sdo_ipc_transports_TransportShm_Instance_State_swiObj__O               
8284a464  ti_sdo_ipc_transports_TransportShm_Module__diagsEnabled__C                
8284a468  ti_sdo_ipc_transports_TransportShm_Module__diagsIncluded__C               
8284a46c  ti_sdo_ipc_transports_TransportShm_Module__diagsMask__C                   
8284a470  ti_sdo_utils_INameServerRemote_Interface__BASE__C                         
8284a474  ti_sdo_utils_MultiProc_A_invalidMultiProcId__C                            
8284a478  ti_sdo_utils_MultiProc_procAddrMode__C                                    
8284a47c  ti_sdo_utils_NameServer_A_invArgument__C                                  
8284a480  ti_sdo_utils_NameServer_A_invalidLen__C                                   
8284a484  ti_sdo_utils_NameServer_E_entryExists__C                                  
8284a488  ti_sdo_utils_NameServer_E_maxReached__C                                   
8284a48c  ti_sdo_utils_NameServer_Instance_State_freeList__O                        
8284a490  ti_sdo_utils_NameServer_Instance_State_nameList__O                        
8284a494  ti_sdo_utils_NameServer_Module__diagsEnabled__C                           
8284a498  ti_sdo_utils_NameServer_Module__diagsIncluded__C                          
8284a49c  ti_sdo_utils_NameServer_Module__diagsMask__C                              
8284a4a0  ti_sdo_utils_NameServer_Object__count__C                                  
8284a4a4  ti_sysbios_family_c62_TaskSupport_stackAlignment__C                       
8284a4a8  ti_sysbios_family_c64p_EventCombiner_A_invalidEventId__C                  
8284a4ac  ti_sysbios_family_c64p_EventCombiner_EVTRegs__C                           
8284a4b0  ti_sysbios_family_c64p_EventCombiner_E_unpluggedEvent__C                  
8284a4b4  ti_sysbios_family_c64p_EventCombiner_Module__diagsEnabled__C              
8284a4b8  ti_sysbios_family_c64p_EventCombiner_Module__diagsIncluded__C             
8284a4bc  ti_sysbios_family_c64p_EventCombiner_Module__diagsMask__C                 
8284a4c0  ti_sysbios_family_c64p_Exception_E_exceptionMax__C                        
8284a4c4  ti_sysbios_family_c64p_Exception_exceptionHook__C                         
8284a4c8  ti_sysbios_family_c64p_Exception_externalHook__C                          
8284a4cc  ti_sysbios_family_c64p_Exception_internalHook__C                          
8284a4d0  ti_sysbios_family_c64p_Exception_nmiHook__C                               
8284a4d4  ti_sysbios_family_c64p_Hwi_INTRMUX1Address__C                             
8284a4d8  ti_sysbios_family_c64p_Hwi_LD_end__C                                      
8284a4dc  ti_sysbios_family_c64p_Hwi_LM_begin__C                                    
8284a4e0  ti_sysbios_family_c64p_Hwi_Module__diagsEnabled__C                        
8284a4e4  ti_sysbios_family_c64p_Hwi_Module__diagsIncluded__C                       
8284a4e8  ti_sysbios_family_c64p_Hwi_Module__diagsMask__C                           
8284a4ec  ti_sysbios_family_c64p_Hwi_Module__loggerFxn1__C                          
8284a4f0  ti_sysbios_family_c64p_Hwi_Module__loggerFxn8__C                          
8284a4f4  ti_sysbios_family_c64p_Hwi_Module__loggerObj__C                           
8284a4f8  ti_sysbios_family_c66_Cache_E_invalidL1CacheSize__C                       
8284a4fc  ti_sysbios_family_c66_Cache_E_invalidL2CacheSize__C                       
8284a500  ti_sysbios_family_c66_Cache_atomicBlockSize__C                            
8284a504  ti_sysbios_family_c66_tci66xx_CpIntc_E_unpluggedSysInt__C                 
8284a508  ti_sysbios_family_c66_tci66xx_CpIntc_eventId__C                           
8284a50c  ti_sysbios_family_c66_tci66xx_CpIntc_hostIntToEventId__C                  
8284a510  ti_sysbios_family_c66_tci66xx_CpIntc_numEvents__C                         
8284a514  ti_sysbios_family_c66_tci66xx_CpIntc_numStatusRegs__C                     
8284a518  ti_sysbios_family_c66_tci66xx_CpIntc_numSysInts__C                        
8284a51c  ti_sysbios_family_c66_tci66xx_CpIntc_sysIntToHostInt__C                   
8284a520  ti_sysbios_gates_GateMutexPri_A_badContext__C                             
8284a524  ti_sysbios_gates_GateMutexPri_A_enterTaskDisabled__C                      
8284a528  ti_sysbios_gates_GateMutexPri_Instance_State_pendQ__O                     
8284a52c  ti_sysbios_gates_GateMutexPri_Module__diagsEnabled__C                     
8284a530  ti_sysbios_gates_GateMutexPri_Module__diagsIncluded__C                    
8284a534  ti_sysbios_gates_GateMutexPri_Module__diagsMask__C                        
8284a538  ti_sysbios_gates_GateMutex_A_badContext__C                                
8284a53c  ti_sysbios_gates_GateMutex_Instance_State_sem__O                          
8284a540  ti_sysbios_gates_GateMutex_Module__diagsEnabled__C                        
8284a544  ti_sysbios_gates_GateMutex_Module__diagsIncluded__C                       
8284a548  ti_sysbios_gates_GateMutex_Module__diagsMask__C                           
8284a54c  ti_sysbios_gates_GateSwi_A_badContext__C                                  
8284a550  ti_sysbios_gates_GateSwi_Module__diagsEnabled__C                          
8284a554  ti_sysbios_gates_GateSwi_Module__diagsIncluded__C                         
8284a558  ti_sysbios_gates_GateSwi_Module__diagsMask__C                             
8284a55c  ti_sysbios_hal_Hwi_E_stackOverflow__C                                     
8284a560  ti_sysbios_heaps_HeapMem_A_align__C                                       
8284a564  ti_sysbios_heaps_HeapMem_A_heapSize__C                                    
8284a568  ti_sysbios_heaps_HeapMem_A_invalidFree__C                                 
8284a56c  ti_sysbios_heaps_HeapMem_A_zeroBlock__C                                   
8284a570  ti_sysbios_heaps_HeapMem_E_memory__C                                      
8284a574  ti_sysbios_heaps_HeapMem_Module__diagsEnabled__C                          
8284a578  ti_sysbios_heaps_HeapMem_Module__diagsIncluded__C                         
8284a57c  ti_sysbios_heaps_HeapMem_Module__diagsMask__C                             
8284a580  ti_sysbios_heaps_HeapMem_Module__gateObj__C                               
8284a584  ti_sysbios_heaps_HeapMem_Object__count__C                                 
8284a588  ti_sysbios_heaps_HeapMem_reqAlign__C                                      
8284a58c  ti_sysbios_knl_Clock_LM_begin__C                                          
8284a590  ti_sysbios_knl_Clock_LM_tick__C                                           
8284a594  ti_sysbios_knl_Clock_LW_delayed__C                                        
8284a598  ti_sysbios_knl_Clock_Module_State_clockQ__O                               
8284a59c  ti_sysbios_knl_Clock_Module__diagsEnabled__C                              
8284a5a0  ti_sysbios_knl_Clock_Module__diagsIncluded__C                             
8284a5a4  ti_sysbios_knl_Clock_Module__diagsMask__C                                 
8284a5a8  ti_sysbios_knl_Clock_Module__loggerFxn1__C                                
8284a5ac  ti_sysbios_knl_Clock_Module__loggerFxn2__C                                
8284a5b0  ti_sysbios_knl_Clock_Module__loggerObj__C                                 
8284a5b4  ti_sysbios_knl_Clock_tickPeriod__C                                        
8284a5b8  ti_sysbios_knl_Idle_funcList__A                                           
8284a5bc  ti_sysbios_knl_Semaphore_A_badContext__C                                  
8284a5c0  ti_sysbios_knl_Semaphore_A_noEvents__C                                    
8284a5c4  ti_sysbios_knl_Semaphore_A_overflow__C                                    
8284a5c8  ti_sysbios_knl_Semaphore_A_pendTaskDisabled__C                            
8284a5cc  ti_sysbios_knl_Semaphore_Instance_State_pendQ__O                          
8284a5d0  ti_sysbios_knl_Semaphore_LM_pend__C                                       
8284a5d4  ti_sysbios_knl_Semaphore_LM_post__C                                       
8284a5d8  ti_sysbios_knl_Semaphore_Module__diagsEnabled__C                          
8284a5dc  ti_sysbios_knl_Semaphore_Module__diagsIncluded__C                         
8284a5e0  ti_sysbios_knl_Semaphore_Module__diagsMask__C                             
8284a5e4  ti_sysbios_knl_Semaphore_Module__loggerFxn2__C                            
8284a5e8  ti_sysbios_knl_Semaphore_Module__loggerFxn4__C                            
8284a5ec  ti_sysbios_knl_Semaphore_Module__loggerObj__C                             
8284a5f0  ti_sysbios_knl_Swi_A_badPriority__C                                       
8284a5f4  ti_sysbios_knl_Swi_LD_end__C                                              
8284a5f8  ti_sysbios_knl_Swi_LM_begin__C                                            
8284a5fc  ti_sysbios_knl_Swi_LM_post__C                                             
8284a600  ti_sysbios_knl_Swi_Module__diagsEnabled__C                                
8284a604  ti_sysbios_knl_Swi_Module__diagsIncluded__C                               
8284a608  ti_sysbios_knl_Swi_Module__diagsMask__C                                   
8284a60c  ti_sysbios_knl_Swi_Module__loggerFxn1__C                                  
8284a610  ti_sysbios_knl_Swi_Module__loggerFxn4__C                                  
8284a614  ti_sysbios_knl_Swi_Module__loggerObj__C                                   
8284a618  ti_sysbios_knl_Swi_Object__count__C                                       
8284a61c  ti_sysbios_knl_Task_A_badPriority__C                                      
8284a620  ti_sysbios_knl_Task_A_badTaskState__C                                     
8284a624  ti_sysbios_knl_Task_A_badThreadType__C                                    
8284a628  ti_sysbios_knl_Task_A_badTimeout__C                                       
8284a62c  ti_sysbios_knl_Task_A_noPendElem__C                                       
8284a630  ti_sysbios_knl_Task_A_sleepTaskDisabled__C                                
8284a634  ti_sysbios_knl_Task_E_spOutOfBounds__C                                    
8284a638  ti_sysbios_knl_Task_E_stackOverflow__C                                    
8284a63c  ti_sysbios_knl_Task_LD_block__C                                           
8284a640  ti_sysbios_knl_Task_LD_exit__C                                            
8284a644  ti_sysbios_knl_Task_LD_ready__C                                           
8284a648  ti_sysbios_knl_Task_LM_setPri__C                                          
8284a64c  ti_sysbios_knl_Task_LM_sleep__C                                           
8284a650  ti_sysbios_knl_Task_LM_switch__C                                          
8284a654  ti_sysbios_knl_Task_Module_State_inactiveQ__O                             
8284a658  ti_sysbios_knl_Task_Module__diagsEnabled__C                               
8284a65c  ti_sysbios_knl_Task_Module__diagsIncluded__C                              
8284a660  ti_sysbios_knl_Task_Module__diagsMask__C                                  
8284a664  ti_sysbios_knl_Task_Module__loggerFxn2__C                                 
8284a668  ti_sysbios_knl_Task_Module__loggerFxn4__C                                 
8284a66c  ti_sysbios_knl_Task_Module__loggerObj__C                                  
8284a670  ti_sysbios_knl_Task_Object__count__C                                      
8284a674  ti_sysbios_knl_Task_allBlockedFunc__C                                     
8284a678  ti_sysbios_knl_Task_defaultStackHeap__C                                   
8284a67c  ti_sysbios_knl_Task_defaultStackSize__C                                   
8284a680  ti_sysbios_knl_Task_numConstructedTasks__C                                
8284a684  ti_sysbios_syncs_SyncSem_Module__diagsEnabled__C                          
8284a688  ti_sysbios_syncs_SyncSem_Module__diagsIncluded__C                         
8284a68c  ti_sysbios_syncs_SyncSem_Module__diagsMask__C                             
8284a690  ti_sysbios_timers_timer64_Timer_A_notAvailable__C                         
8284a694  ti_sysbios_timers_timer64_Timer_E_cannotSupport__C                        
8284a698  ti_sysbios_timers_timer64_Timer_Module__diagsEnabled__C                   
8284a69c  ti_sysbios_timers_timer64_Timer_Module__diagsIncluded__C                  
8284a6a0  ti_sysbios_timers_timer64_Timer_Module__diagsMask__C                      
8284a6a4  ti_sysbios_timers_timer64_Timer_anyMaskHigh__C                            
8284a6a8  ti_sysbios_timers_timer64_Timer_anyMask__C                                
8284a6ac  ti_sysbios_timers_timer64_Timer_freqDivisor__C                            
8284a6b0  ti_sysbios_timers_timer64_Timer_numLocalTimers__C                         
8284a6b4  ti_sysbios_timers_timer64_Timer_numTimerDevices__C                        
8284a6b8  ti_sysbios_xdcruntime_GateThreadSupport_Instance_State_gate__O            
8284a6bc  xdc_runtime_Assert_E_assertFailed__C                                      
8284a6c0  xdc_runtime_Core_A_initializedParams__C                                   
8284a6c4  xdc_runtime_Core_Module__diagsEnabled__C                                  
8284a6c8  xdc_runtime_Core_Module__diagsIncluded__C                                 
8284a6cc  xdc_runtime_Core_Module__diagsMask__C                                     
8284a6d0  xdc_runtime_Error_E_memory__C                                             
8284a6d4  xdc_runtime_Error_Module__diagsEnabled__C                                 
8284a6d8  xdc_runtime_Error_Module__diagsIncluded__C                                
8284a6dc  xdc_runtime_Error_Module__diagsMask__C                                    
8284a6e0  xdc_runtime_Error_Module__loggerFxn8__C                                   
8284a6e4  xdc_runtime_Error_Module__loggerObj__C                                    
8284a6e8  xdc_runtime_Error_policyFxn__C                                            
8284a6ec  xdc_runtime_Error_policy__C                                               
8284a6f0  xdc_runtime_Error_raiseHook__C                                            
8284a6f4  xdc_runtime_IFilterLogger_Interface__BASE__C                              
8284a6f8  xdc_runtime_IGateProvider_Interface__BASE__C                              
8284a6fc  xdc_runtime_IHeap_Interface__BASE__C                                      
8284a700  xdc_runtime_ILogger_Interface__BASE__C                                    
8284a704  xdc_runtime_IModule_Interface__BASE__C                                    
8284a708  xdc_runtime_Log_L_error__C                                                
8284a70c  xdc_runtime_LoggerBuf_E_badLevel__C                                       
8284a710  xdc_runtime_LoggerBuf_Module__gateObj__C                                  
8284a714  xdc_runtime_LoggerBuf_Object__count__C                                    
8284a718  xdc_runtime_LoggerBuf_statusLogger__C                                     
8284a71c  xdc_runtime_Memory_defaultHeapInstance__C                                 
8284a720  xdc_runtime_Startup_execImpl__C                                           
8284a724  xdc_runtime_Startup_maxPasses__C                                          
8284a728  xdc_runtime_Startup_sfxnRts__C                                            
8284a72c  xdc_runtime_Startup_sfxnTab__C                                            
8284a730  xdc_runtime_SysMin_bufSize__C                                             
8284a734  xdc_runtime_SysMin_outputFunc__C                                          
8284a738  xdc_runtime_System_Module__gateObj__C                                     
8284a73c  xdc_runtime_System_abortFxn__C                                            
8284a740  xdc_runtime_System_exitFxn__C                                             
8284a744  xdc_runtime_System_extendFxn__C                                           
8284a748  xdc_runtime_System_maxAtexitHandlers__C                                   
8284a74c  xdc_runtime_Text_charTab__C                                               
8284a750  xdc_runtime_Text_nameEmpty__C                                             
8284a754  xdc_runtime_Text_nameStatic__C                                            
8284a758  xdc_runtime_Text_nameUnknown__C                                           
8284a75c  xdc_runtime_Text_nodeTab__C                                               
8284a760  xdc_runtime_Text_visitRopeFxn__C                                          
8284a764  xdc_runtime_knl_ISync_Interface__BASE__C                                  
8284a768  ti_sdo_ipc_SharedRegion_numEntries__C                                     
8284a76a  ti_sdo_ipc_SharedRegion_translate__C                                      
8284a76c  ti_sdo_ipc_gates_GateHWSem_Module__id__C                                  
8284a76e  ti_sdo_ipc_gates_GateMPSupportNull_Module__id__C                          
8284a770  ti_sdo_ipc_gates_GatePeterson_Module__id__C                               
8284a772  ti_sdo_ipc_heaps_HeapMemMP_Module__id__C                                  
8284a774  ti_sdo_ipc_nsremote_NameServerRemoteNotify_Module__id__C                  
8284a776  ti_sdo_ipc_transports_TransportShm_Module__id__C                          
8284a778  ti_sdo_ipc_transports_TransportShm_notifyEventId__C                       
8284a77a  ti_sdo_utils_MultiProc_numProcessors__C                                   
8284a77c  ti_sdo_utils_MultiProc_numProcsInCluster__C                               
8284a77e  ti_sdo_utils_NameServer_Module__id__C                                     
8284a780  ti_sysbios_family_c64p_EventCombiner_Module__id__C                        
8284a782  ti_sysbios_family_c64p_Exception_Module__id__C                            
8284a784  ti_sysbios_family_c64p_Exception_useInternalBuffer__C                     
8284a786  ti_sysbios_family_c64p_Hwi_Module__id__C                                  
8284a788  ti_sysbios_family_c64p_Hwi_Module__loggerDefined__C                       
8284a78a  ti_sysbios_family_c66_Cache_Module__id__C                                 
8284a78c  ti_sysbios_family_c66_Cache_registerRTSSynch__C                           
8284a78e  ti_sysbios_family_c66_tci66xx_CpIntc_Module__id__C                        
8284a790  ti_sysbios_gates_GateMutexPri_Module__id__C                               
8284a792  ti_sysbios_gates_GateMutex_Module__id__C                                  
8284a794  ti_sysbios_gates_GateSwi_Module__id__C                                    
8284a796  ti_sysbios_hal_Hwi_Module__id__C                                          
8284a798  ti_sysbios_heaps_HeapMem_Module__id__C                                    
8284a79a  ti_sysbios_knl_Clock_Module__id__C                                        
8284a79c  ti_sysbios_knl_Clock_Module__loggerDefined__C                             
8284a79e  ti_sysbios_knl_Semaphore_Module__id__C                                    
8284a7a0  ti_sysbios_knl_Semaphore_Module__loggerDefined__C                         
8284a7a2  ti_sysbios_knl_Swi_Module__id__C                                          
8284a7a4  ti_sysbios_knl_Swi_Module__loggerDefined__C                               
8284a7a6  ti_sysbios_knl_Task_Module__id__C                                         
8284a7a8  ti_sysbios_knl_Task_Module__loggerDefined__C                              
8284a7aa  ti_sysbios_syncs_SyncSem_Module__id__C                                    
8284a7ac  ti_sysbios_timers_timer64_Timer_Module__id__C                             
8284a7ae  ti_sysbios_timers_timer64_Timer_startupNeeded__C                          
8284a7b0  ti_sysbios_timers_timer64_Timer_useTimer64pRegMap__C                      
8284a7b2  xdc_runtime_Core_Module__id__C                                            
8284a7b4  xdc_runtime_Error_Module__loggerDefined__C                                
8284a7b6  xdc_runtime_Error_maxDepth__C                                             
8284a7b8  xdc_runtime_LoggerBuf_Module__id__C                                       
8284a7ba  xdc_runtime_LoggerBuf_filterByLevel__C                                    
8284a7bc  xdc_runtime_Memory_Module__id__C                                          
8284a7be  xdc_runtime_SysMin_flushAtExit__C                                         
8284a7c0  xdc_runtime_Text_charCnt__C                                               
8284a7c2  xdc_runtime_Text_isLoaded__C                                              
8284a7c4  xdc_runtime_Text_registryModsLastId__C                                    
8284a7c6  xdc_runtime_Text_unnamedModsLastId__C                                     
8284a7c8  data                                                                      
8284c7c8  cppiGblCPDMACfgParams                                                     
8284d1a0  ti_sdo_ipc_GateMP_Module_State_0_remoteCustom1Gates__A                    
8284d9a0  ti_sysbios_family_c66_tci66xx_CpIntc_Module_State_0_dispatchTab__A        
8284dea0  ti_sysbios_family_c64p_EventCombiner_Module__state__V                     
8284e2a0  qmssGblCfgParams                                                          
8284e570  GlobalQmGroup0                                                            
8284e6fc  _lock                                                                     
8284e700  ti_sysbios_timers_timer64_Timer_Module_State_0_device__A                  
8284e880  ti_sdo_utils_NameServer_Object__table__V                                  
8284e970  ti_sysbios_family_c66_tci66xx_CpIntc_Module_State_0_hostIntToSysInt__A    
8284ea08  ti_sdo_ipc_SharedRegion_Module_State_0_regions__A                         
8284ea98  ti_sdo_ipc_GateMP_Module_State_0_remoteSystemGates__A                     
8284eb18  ti_sysbios_knl_Swi_Module_State_0_readyQ__A                               
8284eb98  ti_sysbios_knl_Task_Module_State_0_readyQ__A                              
8284ec18  ti_sysbios_timers_timer64_Timer_Module_State_0_gctrl__A                   
8284ec98  ti_sysbios_timers_timer64_Timer_Module_State_0_handles__A                 
8284ed18  ti_sysbios_timers_timer64_Timer_Module_State_0_intFreqs__A                
8284ed98  ti_sysbios_family_c64p_Hwi_Module__state__V                               
8284ee04  ti_sdo_ipc_MessageQ_Module__state__V                                      
8284ee6c  _unlock                                                                   
8284ee70  ti_sysbios_knl_Task_Object__table__V                                      
8284eecc  ti_sdo_ipc_GateMP_Module__state__V                                        
8284ef1c  __errno                                                                   
8284ef1c  errno                                                                     
8284ef20  ti_sysbios_timers_timer64_Timer_Object__table__V                          
8284ef70  ti_sysbios_knl_Task_Module__state__V                                      
8284efb8  ti_sysbios_gates_GateMutex_Object__table__V                               
8284eff8  ti_sysbios_family_c64p_Exception_Module__state__V                         
8284f028  ti_sysbios_knl_Swi_Object__table__V                                       
8284f058  ti_sysbios_knl_Clock_Module__state__V                                     
8284f084  ti_sysbios_BIOS_Module__state__V                                          
8284f0a8  xdc_runtime_LoggerBuf_Object__table__V                                    
8284f0cc  ti_sdo_ipc_ListMP_Module__state__V                                        
8284f0d0  Qmss_highEoiVector                                                        
8284f0f0  ti_sdo_ipc_MessageQ_Module_State_0_heaps__A                               
8284f110  xdc_runtime_Error_IgnoreBlock                                             
8284f130  ti_sysbios_knl_Swi_Module__state__V                                       
8284f14c  ti_sdo_ipc_SharedRegion_Module__state__V                                  
8284f150  ti_sysbios_family_c64p_Hwi_Object__table__V                               
8284f168  ti_sysbios_gates_GateMutexPri_Object__table__V                            
8284f180  ti_sysbios_heaps_HeapMem_Object__table__V                                 
8284f198  ti_sysbios_timers_timer64_Timer_Module__state__V                          
8284f1b0  cppiGblCfgParams                                                          
8284f1c4  cppiLObj                                                                  
8284f1d8  ti_sdo_ipc_Ipc_Module_State_0_procEntry__A                                
8284f1ec  ti_sdo_ipc_heaps_HeapMemMP_Module__state__V                               
8284f1f0  ti_sysbios_family_c66_tci66xx_CpIntc_Module_State_0_initSIER__A           
8284f204  ti_sdo_ipc_transports_TransportShmSetup_Module__state__V                  
8284f208  Qmss_lowEoiVector                                                         
8284f218  ti_sysbios_family_c66_tci66xx_CpIntc_Module_State_0_controller__A         
8284f228  ti_sysbios_family_c66_tci66xx_CpIntc_Module__state__V                     
8284f238  ti_sysbios_gates_GateAll_Object__table__V                                 
8284f248  xdc_runtime_System_Module_State_0_atexitHandlers__A                       
8284f258  __TI_cleanup_ptr                                                          
8284f25c  __TI_dtors_ptr                                                            
8284f260  __TI_enable_exit_profile_output                                           
8284f264  ti_sdo_ipc_Ipc_Module__state__V                                           
8284f270  ti_sdo_utils_NameServer_Module__state__V                                  
8284f27c  xdc_runtime_Memory_Module__state__V                                       
8284f280  ti_sysbios_gates_GateSwi_Object__table__V                                 
8284f28c  xdc_runtime_SysMin_Module__state__V                                       
8284f298  ti_sdo_ipc_GateMP_Module__root__V                                         
8284f2a0  ti_sdo_ipc_ListMP_Module__root__V                                         
8284f2a8  ti_sdo_ipc_MessageQ_Module_State_0_transports__A                          
8284f2b0  ti_sdo_ipc_MessageQ_Module__root__V                                       
8284f2b8  ti_sdo_ipc_Notify_Module__root__V                                         
8284f2c0  ti_sdo_ipc_Notify_Module__state__V                                        
8284f2c8  ti_sdo_ipc_gates_GateHWSem_Module__root__V                                
8284f2d0  ti_sdo_ipc_gates_GateMPSupportNull_Module__root__V                        
8284f2d8  ti_sdo_ipc_gates_GatePeterson_Module__root__V                             
8284f2e0  ti_sdo_ipc_heaps_HeapMemMP_Module__root__V                                
8284f2e8  ti_sdo_ipc_nsremote_NameServerRemoteNotify_Module__root__V                
8284f2f0  ti_sdo_ipc_transports_TransportShm_Module__root__V                        
8284f2f8  ti_sdo_utils_List_Module__root__V                                         
8284f300  ti_sdo_utils_MultiProc_Module__state__V                                   
8284f308  ti_sdo_utils_NameServer_Module__root__V                                   
8284f310  ti_sysbios_gates_GateAll_Module__root__V                                  
8284f318  ti_sysbios_gates_GateHwi_Module__root__V                                  
8284f320  ti_sysbios_gates_GateMutexPri_Module__root__V                             
8284f328  ti_sysbios_gates_GateMutex_Module__root__V                                
8284f330  ti_sysbios_gates_GateSwi_Module__root__V                                  
8284f338  ti_sysbios_hal_Hwi_Object__table__V                                       
8284f340  ti_sysbios_heaps_HeapMem_Module__root__V                                  
8284f348  ti_sysbios_knl_Queue_Module__root__V                                      
8284f350  ti_sysbios_knl_Semaphore_Module__root__V                                  
8284f358  ti_sysbios_knl_Swi_Module__root__V                                        
8284f360  ti_sysbios_knl_Task_Module__root__V                                       
8284f368  ti_sysbios_syncs_SyncSem_Module__root__V                                  
8284f370  ti_sysbios_xdcruntime_GateThreadSupport_Module__root__V                   
8284f378  xdc_runtime_GateNull_Module__root__V                                      
8284f380  xdc_runtime_LoggerBuf_Module__root__V                                     
8284f388  xdc_runtime_Registry_Module__state__V                                     
8284f390  xdc_runtime_Startup_Module__state__V                                      
8284f398  xdc_runtime_System_Module__state__V                                       
8284f3a0  xdc_runtime_knl_GateThread_Module__root__V                                
8284f3a8  xdc_runtime_LoggerBuf_Module__state__V                                    
8284f3ae  xdc_runtime_Error_Module__state__V                                        
8284f3b0  ti_sdo_ipc_Notify_Module_State_0_notifyHandles_0__A                       
8284f3b8  ti_sdo_ipc_Notify_Module_State_0_notifyHandles__A                         
8284f3c0  ti_sdo_ipc_transports_TransportShmSetup_Module_State_0_handles__A         
8284f3c8  ti_sdo_utils_NameServer_Module_State_0_nsRemoteHandle__A                  
8284f3d0  ti_sysbios_gates_GateHwi_Object__table__V                                 
8284f3d8  ti_sysbios_knl_Task_Module_State_0_idleTask__A                            
8284f3e0  xdc_runtime_GateNull_Object__table__V                                     
8284f3e8  Qmss_cdmaEoiVector                                                        
8284f3f0  ti_sdo_utils_MultiProc_Module_State_0_clusterProcList__A                  
8284f400  ti_sysbios_family_c64p_Hwi0                                               
8284f400  ti_sysbios_family_c64p_Hwi_int0                                           
8284f420  ti_sysbios_family_c64p_Hwi_int1                                           
8284f440  ti_sysbios_family_c64p_Hwi_int2                                           
8284f460  ti_sysbios_family_c64p_Hwi_int3                                           
8284f480  ti_sysbios_family_c64p_Hwi_int4                                           
8284f4a0  ti_sysbios_family_c64p_Hwi_int5                                           
8284f4c0  ti_sysbios_family_c64p_Hwi_int6                                           
8284f4e0  ti_sysbios_family_c64p_Hwi_int7                                           
8284f500  ti_sysbios_family_c64p_Hwi_int8                                           
8284f520  ti_sysbios_family_c64p_Hwi_int9                                           
8284f540  ti_sysbios_family_c64p_Hwi_int10                                          
8284f560  ti_sysbios_family_c64p_Hwi_int11                                          
8284f580  ti_sysbios_family_c64p_Hwi_int12                                          
8284f5a0  ti_sysbios_family_c64p_Hwi_int13                                          
8284f5c0  ti_sysbios_family_c64p_Hwi_int14                                          
8284f5e0  ti_sysbios_family_c64p_Hwi_int15                                          
8284f738  __CIOBUF_                                                                 
8284f858  Ipc_sr0MemorySetup                                                        
8284f858  __TI_STATIC_BASE                                                          
8284f85c  cppiHnd                                                                   
8284f860  freeQueHnd                                                                
8284f864  hAppManagedSrioDrv                                                        
8284f868  rxChHnd                                                                   
8284f86c  rx_flowhnd                                                                
8284f870  txChHnd                                                                   
8284f874  txQueHnd                                                                  
8284f878  srio_device_ID1                                                           
8284f87c  srio_device_ID2                                                           
8284f880  srio_device_ID3                                                           
8284f884  srio_work_mode                                                            
8284f888  srio_refClockMhz                                                          
8284f88c  srio_laneSpeedGbps                                                        
8284f890  srio_lanesMode                                                            
8284f894  srio_isBoardToBoard                                                       
8284f898  srio_usePolledMode                                                        
8284f89c  fpga0ControlSocket                                                        
8284f8a0  fpga1ControlSocket                                                        
8284f8a4  qmssMallocCounter                                                         
8284f8a8  qmssFreeCounter                                                           
8284f8ac  cppiMallocCounter                                                         
8284f8b0  cppiFreeCounter                                                           
8284f8b4  rmMallocCounter                                                           
8284f8b8  rmFreeCounter                                                             
8284f8c0  dataLen                                                                   
8284f8c8  TEST_TIME                                                                 
8284f8d0  gDataBufferMemMgrMaxSize                                                  
8284f8d4  malloc_counter                                                            
8284f8d8  free_counter                                                              
8284f8dc  core_name                                                                 
8284f8e0  core_id                                                                   
82851194  __TI_Handler_Table_Base                                                   
8285119c  __TI_Handler_Table_Limit                                                  
828511a0  __TI_CINIT_Base                                                           
828511e8  __TI_CINIT_Limit                                                          
ffffffff  __TI_pprof_out_hndl                                                       
ffffffff  __TI_prof_data_size                                                       
ffffffff  __TI_prof_data_start                                                      
ffffffff  __binit__                                                                 
ffffffff  __c_args__                                                                
ffffffff  binit                                                                     
UNDEFED   __TI_INITARRAY_Base                                                       
UNDEFED   __TI_INITARRAY_Limit                                                      
UNDEFED   __TI_TLS_INIT_Base                                                        
UNDEFED   __TI_TLS_INIT_Limit                                                       

[1514 symbols]
