******************************************************************************
               TMS320C6x Linker PC v8.3.2                      
******************************************************************************
>> Linked Fri Aug  9 16:55:47 2019

OUTPUT FILE NAME:   <5G_Yaffs2.out>
ENTRY POINT SYMBOL: "_c_int00"  address: 828b96c0


MEMORY CONFIGURATION

         name            origin    length      used     unused   attr    fill
----------------------  --------  ---------  --------  --------  ----  --------
  L2SRAM                00800000   00080000  00080000  00000000  RW X
  MSMCSRAM              0c000000   00400000  00000000  00400000  RW X
  SRIO                  80000000   02800800  00000000  02800800  RW X
  DDR                   82800800   017fd800  000c472e  017390d2  RW X
  CORE1DDR              84000000   04000000  00000000  04000000  RW X


SEGMENT ALLOCATION MAP

run origin  load origin   length   init length attrs members
----------  ----------- ---------- ----------- ----- -------
00800000    00800000    00080000   00000000    rw-
  00800000    00800000    00080000   00000000    rw- .stack
82800800    82800800    0008a6ac   00000000    rw-
  82800800    82800800    0008a6ac   00000000    rw- .far
8288aeb0    8288aeb0    00000010   00000010    r--
  8288aeb0    8288aeb0    00000010   00000010    r-- .const.1
8288aec0    8288aec0    00037836   00037836    r-x
  8288aec0    8288aec0    000322a0   000322a0    r-x .text
  828bd160    828bd160    00005596   00005596    r-- .const.2
828c26f8    828c26f8    00001cac   00000000    rw-
  828c26f8    828c26f8    000011a0   00000000    rw- platform_lib
  828c3898    828c3898    00000b0c   00000000    rw- .fardata
828c43a4    828c43a4    00000058   00000058    r--
  828c43a4    828c43a4    00000058   00000058    r-- .switch.1
828c4400    828c4400    00000308   00000308    r-x
  828c4400    828c4400    00000200   00000200    r-x .vecs
  828c4600    828c4600    00000108   00000108    r-- .switch.2
828c4708    828c4708    00000168   00000000    rw-
  828c4708    828c4708    00000120   00000000    rw- .cio
  828c4828    828c4828    00000020   00000000    rw- .bss
  828c4848    828c4848    00000028   00000000    rw- .neardata
828c4870    828c4870    000006c8   000006c8    r--
  828c4870    828c4870    000006c8   000006c8    r-- .cinit


SECTION ALLOCATION MAP

 output                                  attributes/
section   page    origin      length       input sections
--------  ----  ----------  ----------   ----------------
.stack     0    00800000    00080000     UNINITIALIZED
                  00800000    00000008     boot.ae66 : boot.oe66 (.stack)
                  00800008    0007fff8     --HOLE--

.bss       0    828c4828    00000020     UNINITIALIZED
                  828c4828    00000008     yaffs_tagscompat.obj (.bss)
                  828c4830    00000008     yaffsfs.obj (.bss)
                  828c4838    00000004     ti.platform.evm6678l.ae66 : cyhc5g_spi.obj (.bss)
                  828c483c    00000004     yaffs_osglue.obj (.bss)
                  828c4840    00000004     yaffs_verify.obj (.bss)
                  828c4844    00000004     (.common:yaffs_wr_attempts)

.neardata 
*          0    828c4848    00000028     UNINITIALIZED
                  828c4848    00000016     sysbios.ae66 : BIOS.obj (.neardata)
                  828c485e    00000002     --HOLE--
                  828c4860    00000008     ti.platform.evm6678l.ae66 : platform.obj (.neardata)
                  828c4868    00000004                               : cyhc5g_phy.obj (.neardata)
                  828c486c    00000004     yaffsfs.obj (.neardata)

.rodata    0    828c4870    00000000     UNINITIALIZED

.cinit     0    828c4870    000006c8     
                  828c4870    000005d5     (.cinit..fardata.load) [load image, compression = rle]
                  828c4e45    0000009f     (.cinit.platform_lib.load) [load image, compression = rle]
                  828c4ee4    0000000d     (.cinit..far.load) [load image, compression = rle]
                  828c4ef1    0000000d     (.cinit..neardata.load) [load image, compression = rle]
                  828c4efe    00000009     (.cinit..bss.load) [load image, compression = rle]
                  828c4f07    00000001     --HOLE-- [fill = 0]
                  828c4f08    00000008     (__TI_handler_table)
                  828c4f10    00000028     (__TI_cinit_table)

.init_array 
*          0    82800800    00000000     UNINITIALIZED

platform_lib 
*          0    828c26f8    000011a0     UNINITIALIZED
                  828c26f8    00000858     ti.platform.evm6678l.ae66 : platform.obj (platform_lib:uninit)
                  828c2f50    00000840                               : cyhc5g_nand.obj (platform_lib)
                  828c3790    00000108                               : platform.obj (platform_lib:init)

.vecs      0    828c4400    00000200     
                  828c4400    00000200     app_pe66.oe66 (.vecs)

xdc.meta   0    82800800    000000e0     COPY SECTION
                  82800800    000000e0     app_pe66.oe66 (xdc.meta)

.far       0    82800800    0008a6ac     UNINITIALIZED
                  82800800    00080000     (.common:ti_sysbios_heaps_HeapMem_Instance_State_0_buf__A)
                  82880800    00005000     app_pe66.oe66 (.far:taskStackSection)
                  82885800    00002b20     yaffsfs.obj (.far:yaffsfs_dsc)
                  82888320    00002000     (.common:xdc_runtime_SysMin_Module_State_0_outbuf__A)
                  8288a320    00000320     yaffsfs.obj (.far:yaffsfs_fd)
                  8288a640    00000320     yaffsfs.obj (.far:yaffsfs_inode)
                  8288a960    00000200     (.common:xdc_runtime_LoggerBuf_Instance_State_0_entryArr__A)
                  8288ab60    00000190     yaffsfs.obj (.far:yaffsfs_handle)
                  8288acf0    00000140     (.common:__TI_tmpnams)
                  8288ae30    00000044     (.common:gI2cBlock)
                  8288ae74    00000010     yaffs_tagscompat.obj (.far:spare_ff$1)
                  8288ae84    00000010     yaffs_tagscompat.obj (.far:spare_ff$3)
                  8288ae94    00000004     --HOLE--
                  8288ae98    00000008     (.common:parmbuf)
                  8288aea0    00000008     yaffsfs.obj (.far:search_contexts)
                  8288aea8    00000004     (.common:ti_sysbios_knl_Task_Instance_State_0_hookEnv__A)

.const.1   0    8288aeb0    00000010     
                  8288aeb0    00000008     ti.platform.evm6678l.ae66 : cyhc5g_nand.obj (.const)
                  8288aeb8    00000008                               : cyhc5g_spi.obj (.const)

.text      0    8288aec0    000322a0     
                  8288aec0    00009180     yaffs_guts.obj (.text)
                  82894040    000065c0     yaffsfs.obj (.text)
                  8289a600    000034c0     yaffs_yaffs2.obj (.text)
                  8289dac0    00001fe0     rts6600_elf.lib : _printfi.c.obj (.text:__TI_printfi)
                  8289faa0    00001a60     ti.platform.evm6678l.ae66 : platform.obj (.text)
                  828a1500    00001260     yaffs_verify.obj (.text)
                  828a2760    00001200     yaffs_checkptrw.obj (.text)
                  828a3960    00000c80     yaffs_yaffs1.obj (.text)
                  828a45e0    00000ba0     yaffs_tagscompat.obj (.text)
                  828a5180    00000b40     ti.platform.evm6678l.ae66 : cyhc5g_nand.obj (.text)
                  828a5cc0    000009a0                               : cyhc5g.obj (.text)
                  828a6660    00000960     yaffs_summary.obj (.text)
                  828a6fc0    000008c0     yaffs_allocator.obj (.text)
                  828a7880    00000880     ti.targets.rts6000.ae66 : System.oe66 (.text:xdc_runtime_System_doPrint__I)
                  828a8100    000007e0     ti.platform.evm6678l.ae66 : cyhc5g_i2c_eeprom.obj (.text)
                  828a88e0    000007e0     yaffs_ecc.obj (.text)
                  828a90c0    00000780     sysbios.ae66 : BIOS.obj (.text:ti_sysbios_family_c64p_Exception_handler__I)
                  828a9840    00000740                  : BIOS.obj (.text:ti_sysbios_knl_Semaphore_pend__E)
                  828a9f80    00000700                  : BIOS.obj (.text:ti_sysbios_timers_timer64_Timer_Module_startup__E)
                  828aa680    00000660     ti.platform.evm6678l.ae66 : cyhc5g_phy.obj (.text)
                  828aace0    00000640     rts6600_elf.lib : _printfi.c.obj (.text:_pconv_a)
                  828ab320    00000620     sysbios.ae66 : BIOS.obj (.text:ti_sysbios_heaps_HeapMem_allocUnprotected__E)
                  828ab940    00000620     yaffs_nameval.obj (.text)
                  828abf60    00000600     rts6600_elf.lib : divd.c.obj (.text:__c6xabi_divd)
                  828ac560    000005e0     yaffs_tagsmarshall.obj (.text)
                  828acb40    000005c0     sysbios.ae66 : BIOS.obj (.text:ti_sysbios_heaps_HeapMem_freeUnprotected__E)
                  828ad100    00000580                  : BIOS.obj (.text:ti_sysbios_knl_Task_Instance_finalize__E)
                  828ad680    000004e0     yaffs_packedtags2.obj (.text)
                  828adb60    00000460     ti.platform.evm6678l.ae66 : cyhc5g_spi.obj (.text)
                  828adfc0    00000460     sysbios.ae66 : BIOS.obj (.text:ti_sysbios_knl_Task_sleep__E)
                  828ae420    00000440     rts6600_elf.lib : _printfi.c.obj (.text:_pconv_g)
                  828ae860    00000420     sysbios.ae66 : BIOS.obj (.text:ti_sysbios_knl_Task_Instance_init__E)
                  828aec80    00000400     yaffs_endian.obj (.text)
                  828af080    000003e0     ti.platform.evm6678l.ae66 : cyhc5g_nor.obj (.text)
                  828af460    000003a0     yaffs_nand.obj (.text)
                  828af800    00000360     yaffs_bitmap.obj (.text)
                  828afb60    00000340     ti.platform.evm6678l.ae66 : cyhc5g_gpio.obj (.text)
                  828afea0    00000320     rts6600_elf.lib : fputs.c.obj (.text:fputs)
                  828b01c0    00000320     sysbios.ae66 : BIOS.obj (.text:ti_sysbios_timers_timer64_Timer_deviceConfig__I)
                  828b04e0    000002e0                  : BIOS.obj (.text:ti_sysbios_heaps_HeapMem_Instance_init__E)
                  828b07c0    000002c0     rts6600_elf.lib : _printfi.c.obj (.text:fcvt)
                  828b0a80    000002c0     sysbios.ae66 : BIOS.obj (.text:ti_sysbios_knl_Clock_workFunc__E)
                  828b0d40    000002c0     ti.targets.rts6000.ae66 : LoggerBuf.oe66 (.text:xdc_runtime_LoggerBuf_write8__E)
                  828b1000    000002a0     rts6600_elf.lib : _printfi.c.obj (.text:_pconv_e)
                  828b12a0    00000260     sysbios.ae66 : BIOS.obj (.text:ti_sysbios_family_c64p_Hwi_dispatchCore__I)
                  828b1500    00000260                  : BIOS.obj (.text:ti_sysbios_knl_Semaphore_post__E)
                  828b1760    00000260     ti.targets.rts6000.ae66 : Startup.oe66 (.text:xdc_runtime_Startup_startMods__I)
                  828b19c0    00000240     rts6600_elf.lib : imath64.c.obj (.text:__c6xabi_divull)
                  828b1c00    00000240     main.obj (.text)
                  828b1e40    00000240     rts6600_elf.lib : qsort.c.obj (.text:qsort)
                  828b2080    00000240     sysbios.ae66 : BIOS.obj (.text:ti_sysbios_family_c64p_Exception_internalHandler__I)
                  828b22c0    00000240                  : BIOS.obj (.text:ti_sysbios_knl_Task_postInit__I)
                  828b2500    00000240     ti.targets.rts6000.ae66 : Core-mem.oe66 (.text:xdc_runtime_Core_createObject__I)
                  828b2740    00000240     app_pe66.oe66 (.text:xdc_runtime_System_printfExtend__I)
                  828b2980    00000220     sysbios.ae66 : BIOS.obj (.text:ti_sysbios_knl_Swi_run__I)
                  828b2ba0    00000220                  : BIOS.obj (.text:ti_sysbios_timers_timer64_Timer_setPeriodMicroSecs__E)
                  828b2dc0    00000220     ti.targets.rts6000.ae66 : Error.oe66 (.text:xdc_runtime_Error_policyDefault__E)
                  828b2fe0    00000200     sysbios.ae66 : c64p_Hwi_disp_always.obj (.text:_ti_sysbios_family_c64p_Hwi_dispatchAlways)
                  828b31e0    000001e0     ti.platform.evm6678l.ae66 : cyhc5g_uart.obj (.text)
                  828b33c0    000001e0     sysbios.ae66 : BIOS.obj (.text:ti_sysbios_gates_GateMutex_enter__E)
                  828b35a0    000001e0     ti.targets.rts6000.ae66 : Text.oe66 (.text:xdc_runtime_Text_putSite__E)
                  828b3780    000001c0     rts6600_elf.lib : imath40.c.obj (.text:__c6xabi_divul)
                  828b3940    000001c0                     : _printfi.c.obj (.text:_ltostr)
                  828b3b00    000001c0                     : fputc.c.obj (.text:fputc)
                  828b3cc0    000001c0                     : setvbuf.c.obj (.text:setvbuf)
                  828b3e80    000001c0     sysbios.ae66 : BIOS.obj (.text:ti_sysbios_knl_Task_checkStacks__E)
                  828b4040    000001c0                  : BIOS.obj (.text:ti_sysbios_timers_timer64_Timer_getFreq__E)
                  828b4200    000001c0                  : BIOS.obj (.text:ti_sysbios_timers_timer64_Timer_start__E)
                  828b43c0    000001c0     ti.targets.rts6000.ae66 : LoggerBuf.oe66 (.text:xdc_runtime_LoggerBuf_write4__E)
                  828b4580    000001c0     yaffs_attribs.obj (.text)
                  828b4740    000001a0     rts6600_elf.lib : hostrename.c.obj (.text:HOSTrename)
                  828b48e0    000001a0                     : frexp.c.obj (.text:frexp)
                  828b4a80    000001a0                     : s_scalbn.c.obj (.text:scalbn)
                  828b4c20    000001a0     sysbios.ae66 : BIOS.obj (.text:ti_sysbios_family_c66_Cache_block__I)
                  828b4dc0    000001a0                  : BIOS.obj (.text:ti_sysbios_family_c66_Cache_getL2InitSize__I)
                  828b4f60    000001a0                  : BIOS.obj (.text:ti_sysbios_knl_Task_exit__E)
                  828b5100    000001a0                  : BIOS.obj (.text:ti_sysbios_knl_Task_schedule__I)
                  828b52a0    000001a0     ti.targets.rts6000.ae66 : Core-smem.oe66 (.text:xdc_runtime_Core_constructObject__I)
                  828b5440    00000180     sysbios.ae66 : c64p_Exception_asm.obj (.text)
                  828b55c0    00000180                  : BIOS.obj (.text:ti_sysbios_knl_Task_startCore__E)
                  828b5740    00000160                  : BIOS.obj (.text:ti_sysbios_family_c64p_Hwi_Module_startup__E)
                  828b58a0    00000160                  : BIOS.obj (.text:ti_sysbios_knl_Swi_post__E)
                  828b5a00    00000160     ti.targets.rts6000.ae66 : Text.oe66 (.text:xdc_runtime_Text_putMod__E)
                  828b5b60    00000140     sysbios.ae66 : BIOS.obj (.text:ti_sysbios_family_c66_Cache_getL1DInitSize__I)
                  828b5ca0    00000140                  : BIOS.obj (.text:ti_sysbios_family_c66_Cache_getL1PInitSize__I)
                  828b5de0    00000140                  : BIOS.obj (.text:ti_sysbios_knl_Semaphore_Instance_init__E)
                  828b5f20    00000140                  : BIOS.obj (.text:ti_sysbios_knl_Task_Module_startup__E)
                  828b6060    00000140                  : BIOS.obj (.text:ti_sysbios_knl_Task_blockI__E)
                  828b61a0    00000140     ti.targets.rts6000.ae66 : Core-mem.oe66 (.text:xdc_runtime_Core_deleteObject__I)
                  828b62e0    00000140                             : LoggerBuf.oe66 (.text:xdc_runtime_LoggerBuf_setFilterLevel__E)
                  828b6420    00000140                             : Text.oe66 (.text:xdc_runtime_Text_putLab__E)
                  828b6560    00000120     boot.ae66 : autoinit.oe66 (.text:_auto_init_elf)
                  828b6680    00000120     rts6600_elf.lib : _printfi.c.obj (.text:_pconv_f)
                  828b67a0    00000120                     : getdevice.c.obj (.text:getdevice)
                  828b68c0    00000120     sysbios.ae66 : BIOS.obj (.text:ti_sysbios_family_c66_Cache_startup__I)
                  828b69e0    00000120                  : BIOS.obj (.text:ti_sysbios_hal_SecondsClock_Module_startup__E)
                  828b6b00    00000120                  : BIOS.obj (.text:ti_sysbios_knl_Clock_start__E)
                  828b6c20    00000120                  : BIOS.obj (.text:ti_sysbios_knl_Swi_restoreHwi__E)
                  828b6d40    00000120     ti.targets.rts6000.ae66 : LoggerBuf.oe66 (.text:xdc_runtime_LoggerBuf_getFilterLevel__E)
                  828b6e60    00000100     rts6600_elf.lib : fclose.c.obj (.text:__TI_closefile)
                  828b6f60    00000100                     : copy_decompress_rle.c.obj (.text:__TI_decompress_rle_core)
                  828b7060    00000100                     : _printfi.c.obj (.text:_mcpy)
                  828b7160    00000100                     : atoi.c.obj (.text:atoi)
                  828b7260    00000100                     : fflush.c.obj (.text:fflush)
                  828b7360    00000100                     : fseek.c.obj (.text:fseek)
                  828b7460    00000100     sysbios.ae66 : BIOS.obj (.text:ti_sysbios_knl_Mailbox_Module_startup__E)
                  828b7560    00000100                  : BIOS.obj (.text:ti_sysbios_knl_Task_unblockI__E)
                  828b7660    00000100                  : BIOS.obj (.text:ti_sysbios_timers_timer64_Timer_initDevice__I)
                  828b7760    00000100     ti.targets.rts6000.ae66 : Error.oe66 (.text:xdc_runtime_Error_print__E)
                  828b7860    00000100                             : Memory.oe66 (.text:xdc_runtime_Memory_alloc__E)
                  828b7960    00000100                             : Startup.oe66 (.text:xdc_runtime_Startup_exec__E)
                  828b7a60    000000e0     rts6600_elf.lib : hostlseek.c.obj (.text:HOSTlseek)
                  828b7b40    000000e0                     : hostopen.c.obj (.text:HOSTopen)
                  828b7c20    000000e0                     : hostwrite.c.obj (.text:HOSTwrite)
                  828b7d00    000000e0                     : _io_perm.c.obj (.text:__TI_wrt_ok)
                  828b7de0    000000e0                     : close.c.obj (.text:close)
                  828b7ec0    000000e0                     : exit.c.obj (.text:exit)
                  828b7fa0    000000e0                     : ltoa.c.obj (.text:ltoa)
                  828b8080    000000e0                     : memset.c.obj (.text:memset)
                  828b8160    000000e0                     : printf.c.obj (.text:printf)
                  828b8240    000000e0     sysbios.ae66 : BIOS.obj (.text:ti_sysbios_heaps_HeapMem_alloc__E)
                  828b8320    000000e0                  : BIOS.obj (.text:ti_sysbios_knl_Swi_runLoop__I)
                  828b8400    000000e0                  : BIOS.obj (.text:ti_sysbios_timers_timer64_Timer_startup__E)
                  828b84e0    000000e0     ti.targets.rts6000.ae66 : Text.oe66 (.text:xdc_runtime_Text_visitRope2__I)
                  828b85c0    000000e0     yaffs_osglue.obj (.text)
                  828b86a0    000000c0     rts6600_elf.lib : hostread.c.obj (.text:HOSTread)
                  828b8760    000000c0                     : hostunlink.c.obj (.text:HOSTunlink)
                  828b8820    000000c0                     : fflush.c.obj (.text:__TI_doflush)
                  828b88e0    000000c0                     : divu.asm.obj (.text:__divu)
                  828b89a0    000000c0                     : remi.asm.obj (.text:__remi)
                  828b8a60    000000c0     sysbios.ae66 : BIOS.obj (.text:_pthread_cleanupFxn)
                  828b8b20    000000c0     platform_osal_function.obj (.text)
                  828b8be0    000000c0     sysbios.ae66 : BIOS.obj (.text:ti_sysbios_hal_SecondsClock_increment__I)
                  828b8ca0    000000c0                  : BIOS.obj (.text:ti_sysbios_heaps_HeapMem_getStats__E)
                  828b8d60    000000c0                  : BIOS.obj (.text:ti_sysbios_knl_Clock_logTick__E)
                  828b8e20    000000c0                  : BIOS.obj (.text:ti_sysbios_knl_Swi_schedule__I)
                  828b8ee0    000000c0                  : BIOS.obj (.text:ti_sysbios_knl_Task_allBlockedFunction__I)
                  828b8fa0    000000c0     app_pe66.oe66 (.text:ti_sysbios_knl_Task_create)
                  828b9060    000000c0     rts6600_elf.lib : tls.c.obj (.text:tls:init:__TI_tls_init)
                  828b9120    000000c0     ti.targets.rts6000.ae66 : Assert.oe66 (.text:xdc_runtime_Assert_raise__I)
                  828b91e0    000000c0                             : Error.oe66 (.text:xdc_runtime_Error_setX__E)
                  828b92a0    000000c0     app_pe66.oe66 (.text:xdc_runtime_LoggerBuf_Object__create__S)
                  828b9360    000000c0     ti.targets.rts6000.ae66 : SysMin.oe66 (.text:xdc_runtime_SysMin_abort__E)
                  828b9420    000000c0                             : SysMin.oe66 (.text:xdc_runtime_SysMin_flush__E)
                  828b94e0    000000a0     rts6600_elf.lib : hostclose.c.obj (.text:HOSTclose)
                  828b9580    000000a0                     : fopen.c.obj (.text:__TI_cleanup)
                  828b9620    000000a0                     : remu.asm.obj (.text:__remu)
                  828b96c0    000000a0     boot.ae66 : boot.oe66 (.text:_c_int00)
                  828b9760    000000a0     rts6600_elf.lib : _printfi.c.obj (.text:_ecpy)
                  828b9800    000000a0                     : getdevice.c.obj (.text:finddevice)
                  828b98a0    000000a0                     : memcpy64.asm.obj (.text:memcpy)
                  828b9940    000000a0     sysbios.ae66 : BIOS.obj (.text:ti_sysbios_family_c64p_Exception_Module_startup__E)
                  828b99e0    000000a0                  : BIOS.obj (.text:ti_sysbios_family_c64p_Hwi_dispatchC__I)
                  828b9a80    000000a0                  : BIOS.obj (.text:ti_sysbios_family_c64p_Hwi_getStackInfo__E)
                  828b9b20    000000a0                  : BIOS.obj (.text:ti_sysbios_timers_timer64_Timer_stop__E)
                  828b9bc0    000000a0     ti.targets.rts6000.ae66 : Core-params.oe66 (.text:xdc_runtime_Core_assignParams__I)
                  828b9c60    000000a0                             : SysMin.oe66 (.text:xdc_runtime_SysMin_putch__E)
                  828b9d00    000000a0                             : System.oe66 (.text:xdc_runtime_System_formatNum__I)
                  828b9da0    000000a0                             : System.oe66 (.text:xdc_runtime_System_putchar__I)
                  828b9e40    000000a0                             : Text.oe66 (.text:xdc_runtime_Text_printVisFxn__I)
                  828b9ee0    000000a0                             : Text.oe66 (.text:xdc_runtime_Text_xprintf__I)
                  828b9f80    00000080     rts6600_elf.lib : trgmsg.c.obj (.text:__TI_readmsg)
                  828ba000    00000080                     : llshift.c.obj (.text:__c6xabi_llshl)
                  828ba080    00000080     sysbios.ae66 : c62_TaskSupport_asm.obj (.text:_ti_sysbios_family_c62_TaskSupport_swap__E)
                  828ba100    00000080     rts6600_elf.lib : strcat.c.obj (.text:strcat)
                  828ba180    00000080                     : strncpy.c.obj (.text:strncpy)
                  828ba200    00000080     ti.platform.evm6678l.ae66 : cyhc5g_i2c.obj (.text)
                  828ba280    00000080     app_pe66.oe66 (.text:ti_sysbios_BIOS_atExitFunc__I)
                  828ba300    00000080     app_pe66.oe66 (.text:ti_sysbios_BIOS_registerRTSLock__I)
                  828ba380    00000080     app_pe66.oe66 (.text:ti_sysbios_gates_GateHwi_Object__create__S)
                  828ba400    00000080     app_pe66.oe66 (.text:ti_sysbios_gates_GateMutex_Object__create__S)
                  828ba480    00000080     sysbios.ae66 : BIOS.obj (.text:ti_sysbios_hal_Hwi_checkStack)
                  828ba500    00000080                  : BIOS.obj (.text:ti_sysbios_hal_Hwi_initStack)
                  828ba580    00000080     app_pe66.oe66 (.text:ti_sysbios_heaps_HeapMem_Object__create__S)
                  828ba600    00000080     sysbios.ae66 : BIOS.obj (.text:ti_sysbios_heaps_HeapMem_init__I)
                  828ba680    00000080     app_pe66.oe66 (.text:ti_sysbios_knl_Clock_doTick__I)
                  828ba700    00000080     sysbios.ae66 : BIOS.obj (.text:ti_sysbios_knl_Idle_run__E)
                  828ba780    00000080                  : BIOS.obj (.text:ti_sysbios_knl_Semaphore_pendTimeout__I)
                  828ba800    00000080                  : BIOS.obj (.text:ti_sysbios_knl_Swi_startup__E)
                  828ba880    00000080                  : BIOS.obj (.text:ti_sysbios_knl_Task_processVitalTaskFlag__I)
                  828ba900    00000080                  : BIOS.obj (.text:ti_sysbios_knl_Task_restore__E)
                  828ba980    00000080     app_pe66.oe66 (.text:ti_sysbios_rts_MemAlloc_alloc)
                  828baa00    00000080     sysbios.ae66 : BIOS.obj (.text:ti_sysbios_timers_timer64_Timer_getPeriod__E)
                  828baa80    00000080     rts6600_elf.lib : unlink.c.obj (.text:unlink)
                  828bab00    00000080     ti.targets.rts6000.ae66 : Core-label.oe66 (.text:xdc_runtime_Core_assignLabel__I)
                  828bab80    00000080                             : LoggerBuf.oe66 (.text:xdc_runtime_LoggerBuf_Instance_init__E)
                  828bac00    00000080                             : LoggerBuf.oe66 (.text:xdc_runtime_LoggerBuf_Module_startup__E)
                  828bac80    00000080                             : LoggerBuf.oe66 (.text:xdc_runtime_LoggerBuf_filterOutEvent__I)
                  828bad00    00000080     app_pe66.oe66 (.text:xdc_runtime_SysMin_output__I)
                  828bad80    00000080     ti.targets.rts6000.ae66 : System.oe66 (.text:xdc_runtime_System_atexit__E)
                  828bae00    00000080                             : System.oe66 (.text:xdc_runtime_System_avprintf__E)
                  828bae80    00000080                             : System.oe66 (.text:xdc_runtime_System_processAtExit__E)
                  828baf00    00000080                             : System.oe66 (.text:xdc_runtime_System_vprintf__E)
                  828baf80    00000080     yaffs_hweight.obj (.text)
                  828bb000    00000060     rts6600_elf.lib : frcmpyd_div.c.obj (.text:__TI_frcmpyd_div)
                  828bb060    00000060                     : trgmsg.c.obj (.text:__TI_writemsg)
                  828bb0c0    00000060                     : llshift.c.obj (.text:__c6xabi_llshru)
                  828bb120    00000060                     : imath64.c.obj (.text:_subcull)
                  828bb180    00000060     sysbios.ae66 : c64p_Hwi_asm_switch.obj (.text:_ti_sysbios_family_c64p_Hwi_switchAndDispatch__I)
                  828bb1e0    00000060                  : c64p_Hwi_asm_switch.obj (.text:_ti_sysbios_family_xxx_Hwi_switchAndRunFunc)
                  828bb240    00000060     rts6600_elf.lib : lseek.c.obj (.text:lseek)
                  828bb2a0    00000060                     : memccpy.c.obj (.text:memccpy)
                  828bb300    00000060                     : memcmp.c.obj (.text:memcmp)
                  828bb360    00000060                     : strcmp.c.obj (.text:strcmp)
                  828bb3c0    00000060                     : strcpy.c.obj (.text:strcpy)
                  828bb420    00000060                     : strncmp.c.obj (.text:strncmp)
                  828bb480    00000060     app_pe66.oe66 (.text:ti_sysbios_BIOS_errorRaiseHook__I)
                  828bb4e0    00000060     app_pe66.oe66 (.text:ti_sysbios_BIOS_removeRTSLock__I)
                  828bb540    00000060     app_pe66.oe66 (.text:ti_sysbios_BIOS_startFunc__I)
                  828bb5a0    00000060     sysbios.ae66 : BIOS.obj (.text:ti_sysbios_family_c62_TaskSupport_start__E)
                  828bb600    00000060                  : BIOS.obj (.text:ti_sysbios_family_c66_Cache_Module_startup__E)
                  828bb660    00000060     app_pe66.oe66 (.text:ti_sysbios_gates_GateMutex_Object__delete__S)
                  828bb6c0    00000060     sysbios.ae66 : BIOS.obj (.text:ti_sysbios_heaps_HeapMem_free__E)
                  828bb720    00000060                  : BIOS.obj (.text:ti_sysbios_knl_Clock_Module_startup__E)
                  828bb780    00000060     app_pe66.oe66 (.text:ti_sysbios_knl_Queue_construct)
                  828bb7e0    00000060     app_pe66.oe66 (.text:ti_sysbios_knl_Semaphore_construct)
                  828bb840    00000060     sysbios.ae66 : BIOS.obj (.text:ti_sysbios_knl_Swi_Module_startup__E)
                  828bb8a0    00000060     app_pe66.oe66 (.text:ti_sysbios_knl_Task_Object__delete__S)
                  828bb900    00000060     sysbios.ae66 : BIOS.obj (.text:ti_sysbios_knl_Task_enter__I)
                  828bb960    00000060     rts6600_elf.lib : write.c.obj (.text:write)
                  828bb9c0    00000060     app_pe66.oe66 (.text:xdc_runtime_LoggerBuf_Object__delete__S)
                  828bba20    00000060     ti.targets.rts6000.ae66 : LoggerBuf.oe66 (.text:xdc_runtime_LoggerBuf_reset__E)
                  828bba80    00000060                             : Memory.oe66 (.text:xdc_runtime_Memory_valloc__E)
                  828bbae0    00000060                             : Text.oe66 (.text:xdc_runtime_Text_cordText__E)
                  828bbb40    00000040     rts6600_elf.lib : assert.c.obj (.text:__c6xabi_abort_msg)
                  828bbb80    00000040                     : isinf.c.obj (.text:__c6xabi_isinf)
                  828bbbc0    00000040                     : _printfi.c.obj (.text:__c6xabi_isnan)
                  828bbc00    00000040                     : call_stub.asm.obj (.text:__call_stub)
                  828bbc40    00000040                     : args_main.c.obj (.text:_args_main)
                  828bbc80    00000040                     : vsprintf.c.obj (.text:_outs)
                  828bbcc0    00000040     sysbios.ae66 : c62_TaskSupport_asm.obj (.text:_ti_sysbios_family_c62_TaskSupport_buildTaskStack)
                  828bbd00    00000040     app_pe66.oe66 (.text:free)
                  828bbd40    00000040     ti.platform.evm6678l.ae66 : cyhc5g_led.obj (.text)
                  828bbd80    00000040     app_pe66.oe66 (.text:ti_sysbios_BIOS_exitFunc__I)
                  828bbdc0    00000040     app_pe66.oe66 (.text:ti_sysbios_BIOS_rtsLock__I)
                  828bbe00    00000040     app_pe66.oe66 (.text:ti_sysbios_BIOS_rtsUnlock__I)
                  828bbe40    00000040     sysbios.ae66 : BIOS.obj (.text:ti_sysbios_family_c64p_Hwi_disableInterrupt__E)
                  828bbe80    00000040                  : BIOS.obj (.text:ti_sysbios_family_c64p_Hwi_enableInterrupt__E)
                  828bbec0    00000040     app_pe66.oe66 (.text:ti_sysbios_gates_GateHwi_Handle__label__S)
                  828bbf00    00000040     app_pe66.oe66 (.text:ti_sysbios_gates_GateHwi_Object__delete__S)
                  828bbf40    00000040     app_pe66.oe66 (.text:ti_sysbios_gates_GateMutex_Handle__label__S)
                  828bbf80    00000040     sysbios.ae66 : BIOS.obj (.text:ti_sysbios_gates_GateMutex_Instance_init__E)
                  828bbfc0    00000040                  : BIOS.obj (.text:ti_sysbios_gates_GateMutex_leave__E)
                  828bc000    00000040     app_pe66.oe66 (.text:ti_sysbios_heaps_HeapMem_Handle__label__S)
                  828bc040    00000040     app_pe66.oe66 (.text:ti_sysbios_heaps_HeapMem_Object__delete__S)
                  828bc080    00000040     app_pe66.oe66 (.text:ti_sysbios_heaps_HeapMem_Object__get__S)
                  828bc0c0    00000040     app_pe66.oe66 (.text:ti_sysbios_knl_Semaphore_destruct)
                  828bc100    00000040     app_pe66.oe66 (.text:ti_sysbios_knl_Swi_Object__get__S)
                  828bc140    00000040     app_pe66.oe66 (.text:ti_sysbios_knl_Task_Object__get__S)
                  828bc180    00000040     sysbios.ae66 : BIOS.obj (.text:ti_sysbios_knl_Task_sleepTimeout__I)
                  828bc1c0    00000040     app_pe66.oe66 (.text:time)
                  828bc200    00000040     rts6600_elf.lib : vsprintf.c.obj (.text:vsprintf)
                  828bc240    00000040                     : wcslen.c.obj (.text:wcslen)
                  828bc280    00000040     ti.targets.rts6000.ae66 : Error.oe66 (.text:xdc_runtime_Error_check__E)
                  828bc2c0    00000040                             : Error.oe66 (.text:xdc_runtime_Error_init__E)
                  828bc300    00000040     app_pe66.oe66 (.text:xdc_runtime_LoggerBuf_Handle__label__S)
                  828bc340    00000040     ti.targets.rts6000.ae66 : LoggerBuf.oe66 (.text:xdc_runtime_LoggerBuf_Instance_finalize__E)
                  828bc380    00000040     app_pe66.oe66 (.text:xdc_runtime_LoggerBuf_Object__get__S)
                  828bc3c0    00000040     ti.targets.rts6000.ae66 : LoggerBuf.oe66 (.text:xdc_runtime_LoggerBuf_write0__E)
                  828bc400    00000040                             : LoggerBuf.oe66 (.text:xdc_runtime_LoggerBuf_write1__E)
                  828bc440    00000040                             : LoggerBuf.oe66 (.text:xdc_runtime_LoggerBuf_write2__E)
                  828bc480    00000040                             : Registry.oe66 (.text:xdc_runtime_Registry_findById__E)
                  828bc4c0    00000040                             : SysMin.oe66 (.text:xdc_runtime_SysMin_Module_startup__E)
                  828bc500    00000040                             : SysMin.oe66 (.text:xdc_runtime_SysMin_exit__E)
                  828bc540    00000040                             : System.oe66 (.text:xdc_runtime_System_abort__E)
                  828bc580    00000040     app_pe66.oe66 (.text:xdc_runtime_System_aprintf__E)
                  828bc5c0    00000040     ti.targets.rts6000.ae66 : System.oe66 (.text:xdc_runtime_System_exit__E)
                  828bc600    00000040     app_pe66.oe66 (.text:xdc_runtime_System_printf__E)
                  828bc640    00000020     ti.csl.ae66 : csl_gpioGetBaseAddress.oe66 (.text:CSL_GPIO_open)
                  828bc660    00000020     rts6600_elf.lib : errno.c.obj (.text:__c6xabi_errno_addr)
                  828bc680    00000020                     : push.asm.obj (.text:__pop_rts)
                  828bc6a0    00000020                     : push.asm.obj (.text:__push_rts)
                  828bc6c0    00000020                     : _lock.c.obj (.text:_nop)
                  828bc6e0    00000020                     : printf.c.obj (.text:_outc)
                  828bc700    00000020                     : vsprintf.c.obj (.text:_outc)
                  828bc720    00000020                     : printf.c.obj (.text:_outs)
                  828bc740    00000020                     : _lock.c.obj (.text:_register_lock)
                  828bc760    00000020                     : _data_synch.c.obj (.text:_register_synch_api)
                  828bc780    00000020                     : _lock.c.obj (.text:_register_unlock)
                  828bc7a0    00000020                     : signbit.c.obj (.text:_signbit)
                  828bc7c0    00000020     sysbios.ae66 : c62_TaskSupport_asm.obj (.text:_ti_sysbios_family_c62_TaskSupport_glue)
                  828bc7e0    00000020     rts6600_elf.lib : exit.c.obj (.text:abort)
                  828bc800    00000020                     : s_copysign.c.obj (.text:copysign)
                  828bc820    00000020                     : copy_decompress_none.c.obj (.text:decompress:none:__TI_decompress_none)
                  828bc840    00000020                     : copy_decompress_rle.c.obj (.text:decompress:rle24:__TI_decompress_rle24)
                  828bc860    00000020     app_pe66.oe66 (.text:ti_sysbios_BIOS_RtsGateProxy_enter__E)
                  828bc880    00000020     app_pe66.oe66 (.text:ti_sysbios_BIOS_RtsGateProxy_leave__E)
                  828bc8a0    00000020     sysbios.ae66 : BIOS.obj (.text:ti_sysbios_BIOS_exit__E)
                  828bc8c0    00000020                  : BIOS.obj (.text:ti_sysbios_BIOS_linkedWithIncorrectBootLibrary__E)
                  828bc8e0    00000020     app_pe66.oe66 (.text:ti_sysbios_BIOS_nullFunc__I)
                  828bc900    00000020     sysbios.ae66 : BIOS.obj (.text:ti_sysbios_BIOS_setThreadType__E)
                  828bc920    00000020                  : BIOS.obj (.text:ti_sysbios_BIOS_start__E)
                  828bc940    00000020     app_pe66.oe66 (.text:ti_sysbios_family_c62_TaskSupport_Module__startupDone__S)
                  828bc960    00000020     sysbios.ae66 : BIOS.obj (.text:ti_sysbios_family_c62_TaskSupport_checkStack__E)
                  828bc980    00000020                  : BIOS.obj (.text:ti_sysbios_family_c62_TaskSupport_getStackAlignment__E)
                  828bc9a0    00000020     app_pe66.oe66 (.text:ti_sysbios_family_c64p_Hwi_Module__startupDone__F)
                  828bc9c0    00000020     sysbios.ae66 : BIOS.obj (.text:ti_sysbios_family_c64p_Hwi_clearInterrupt__E)
                  828bc9e0    00000020                  : BIOS.obj (.text:ti_sysbios_family_c64p_Hwi_startup__E)
                  828bca00    00000020                  : BIOS.obj (.text:ti_sysbios_family_c64p_Hwi_switchFromBootStack__E)
                  828bca20    00000020                  : BIOS.obj (.text:ti_sysbios_family_c64p_TimestampProvider_Module_startup__E)
                  828bca40    00000020                  : BIOS.obj (.text:ti_sysbios_family_c64p_TimestampProvider_get64__E)
                  828bca60    00000020                  : BIOS.obj (.text:ti_sysbios_family_c64p_tci6488_TimerSupport_enable__E)
                  828bca80    00000020                  : BIOS.obj (.text:ti_sysbios_family_c66_Cache_RTSSynchInv__I)
                  828bcaa0    00000020                  : BIOS.obj (.text:ti_sysbios_family_c66_Cache_RTSSynchWbInv__I)
                  828bcac0    00000020                  : BIOS.obj (.text:ti_sysbios_family_c66_Cache_RTSSynchWb__I)
                  828bcae0    00000020                  : BIOS.obj (.text:ti_sysbios_family_c66_Cache_wait__E)
                  828bcb00    00000020                  : BIOS.obj (.text:ti_sysbios_gates_GateHwi_Instance_init__E)
                  828bcb20    00000020                  : BIOS.obj (.text:ti_sysbios_gates_GateHwi_enter__E)
                  828bcb40    00000020                  : BIOS.obj (.text:ti_sysbios_gates_GateHwi_leave__E)
                  828bcb60    00000020                  : BIOS.obj (.text:ti_sysbios_gates_GateHwi_query__E)
                  828bcb80    00000020                  : BIOS.obj (.text:ti_sysbios_gates_GateMutex_Instance_finalize__E)
                  828bcba0    00000020                  : BIOS.obj (.text:ti_sysbios_gates_GateMutex_query__E)
                  828bcbc0    00000020                  : BIOS.obj (.text:ti_sysbios_hal_Hwi_Module_startup__E)
                  828bcbe0    00000020                  : BIOS.obj (.text:ti_sysbios_hal_SecondsClock_get__E)
                  828bcc00    00000020     app_pe66.oe66 (.text:ti_sysbios_heaps_HeapMem_Module_GateProxy_enter__E)
                  828bcc20    00000020     app_pe66.oe66 (.text:ti_sysbios_heaps_HeapMem_Module_GateProxy_leave__E)
                  828bcc40    00000020     sysbios.ae66 : BIOS.obj (.text:ti_sysbios_heaps_HeapMem_isBlocking__E)
                  828bcc60    00000020     app_pe66.oe66 (.text:ti_sysbios_knl_Clock_Module__startupDone__F)
                  828bcc80    00000020     app_pe66.oe66 (.text:ti_sysbios_knl_Clock_TimerProxy_getFreq__E)
                  828bcca0    00000020     app_pe66.oe66 (.text:ti_sysbios_knl_Clock_TimerProxy_getMaxTicks__E)
                  828bccc0    00000020     app_pe66.oe66 (.text:ti_sysbios_knl_Clock_TimerProxy_getPeriod__E)
                  828bcce0    00000020     sysbios.ae66 : BIOS.obj (.text:ti_sysbios_knl_Idle_loop__E)
                  828bcd00    00000020     app_pe66.oe66 (.text:ti_sysbios_knl_Mailbox_Object__get__S)
                  828bcd20    00000020     sysbios.ae66 : BIOS.obj (.text:ti_sysbios_knl_Queue_Instance_init__E)
                  828bcd40    00000020     app_pe66.oe66 (.text:ti_sysbios_knl_Queue_Object__get__S)
                  828bcd60    00000020     app_pe66.oe66 (.text:ti_sysbios_knl_Queue_destruct)
                  828bcd80    00000020     sysbios.ae66 : BIOS.obj (.text:ti_sysbios_knl_Queue_empty__E)
                  828bcda0    00000020                  : BIOS.obj (.text:ti_sysbios_knl_Semaphore_Instance_finalize__E)
                  828bcdc0    00000020                  : BIOS.obj (.text:ti_sysbios_knl_Swi_disable__E)
                  828bcde0    00000020     app_pe66.oe66 (.text:ti_sysbios_knl_Task_delete)
                  828bce00    00000020     sysbios.ae66 : BIOS.obj (.text:ti_sysbios_knl_Task_disable__E)
                  828bce20    00000020                  : BIOS.obj (.text:ti_sysbios_knl_Task_startup__E)
                  828bce40    00000020                  : BIOS.obj (.text:ti_sysbios_rts_ti_ReentSupport_taskRegHook__I)
                  828bce60    00000020     app_pe66.oe66 (.text:ti_sysbios_timers_timer64_Timer_Module__startupDone__F)
                  828bce80    00000020     sysbios.ae66 : BIOS.obj (.text:ti_sysbios_timers_timer64_Timer_getMaxTicks__E)
                  828bcea0    00000020     ti.targets.rts6000.ae66 : Error.oe66 (.text:xdc_runtime_Error_getSite__E)
                  828bcec0    00000020                             : Error.oe66 (.text:xdc_runtime_Error_raiseX__E)
                  828bcee0    00000020                             : Gate.oe66 (.text:xdc_runtime_Gate_enterSystem__E)
                  828bcf00    00000020                             : Gate.oe66 (.text:xdc_runtime_Gate_leaveSystem__E)
                  828bcf20    00000020     app_pe66.oe66 (.text:xdc_runtime_IHeap_alloc)
                  828bcf40    00000020     app_pe66.oe66 (.text:xdc_runtime_IHeap_free)
                  828bcf60    00000020     app_pe66.oe66 (.text:xdc_runtime_LoggerBuf_Module_GateProxy_enter__E)
                  828bcf80    00000020     app_pe66.oe66 (.text:xdc_runtime_LoggerBuf_Module_GateProxy_leave__E)
                  828bcfa0    00000020     ti.targets.rts6000.ae66 : LoggerBuf.oe66 (.text:xdc_runtime_LoggerBuf_disable__E)
                  828bcfc0    00000020                             : LoggerBuf.oe66 (.text:xdc_runtime_LoggerBuf_enable__E)
                  828bcfe0    00000020                             : Memory.oe66 (.text:xdc_runtime_Memory_calloc__E)
                  828bd000    00000020                             : Memory.oe66 (.text:xdc_runtime_Memory_free__E)
                  828bd020    00000020                             : Memory.oe66 (.text:xdc_runtime_Memory_getMaxDefaultTypeAlign__E)
                  828bd040    00000020     app_pe66.oe66 (.text:xdc_runtime_Startup_exec__I)
                  828bd060    00000020     ti.targets.rts6000.ae66 : Startup.oe66 (.text:xdc_runtime_Startup_rtsDone__E)
                  828bd080    00000020                             : SysMin.oe66 (.text:xdc_runtime_SysMin_ready__E)
                  828bd0a0    00000020     app_pe66.oe66 (.text:xdc_runtime_System_Module_GateProxy_enter__E)
                  828bd0c0    00000020     app_pe66.oe66 (.text:xdc_runtime_System_Module_GateProxy_leave__E)
                  828bd0e0    00000020     ti.targets.rts6000.ae66 : System.oe66 (.text:xdc_runtime_System_Module_startup__E)
                  828bd100    00000020                             : System.oe66 (.text:xdc_runtime_System_vsnprintf__E)
                  828bd120    00000020                             : Text.oe66 (.text:xdc_runtime_Text_ropeText__E)
                  828bd140    00000020     app_pe66.oe66 (.text:xdc_runtime_Text_visitRope__I)

.const.2   0    828bd160    00005596     
                  828bd160    000019f8     app_pe66.oe66 (.const:xdc_runtime_Text_charTab__A)
                  828beb58    00000c54     yaffs_guts.obj (.const:.string)
                  828bf7ac    000007a8     yaffs_yaffs2.obj (.const:.string)
                  828bff54    00000678     yaffs_verify.obj (.const:.string)
                  828c05cc    000005e8     sysbios.ae66 : BIOS.obj (.const:.string)
                  828c0bb4    00000004     ti.targets.rts6000.ae66 : Assert.oe66 (.const:.string)
                  828c0bb8    00000400     app_pe66.oe66 (.const:ti_sysbios_family_c66_Cache_marvalues__C)
                  828c0fb8    000002a4     yaffs_checkptrw.obj (.const:.string)
                  828c125c    000001b0     yaffs_yaffs1.obj (.const:.string)
                  828c140c    00000158     yaffs_tagscompat.obj (.const:.string)
                  828c1564    00000104     yaffs_tagsmarshall.obj (.const:.string)
                  828c1668    00000101     rts6600_elf.lib : ctype.c.obj (.const:.string:_ctypes_)
                  828c1769    00000001     app_pe66.oe66 (.const:ti_sysbios_timers_timer64_Timer_localTimerBaseId__C)
                  828c176a    00000002     app_pe66.oe66 (.const:ti_sysbios_family_c64p_Exception_Module__id__C)
                  828c176c    00000004     ti.platform.evm6678l.ae66 : cyhc5g_gpio.obj (.const)
                  828c1770    00000100     yaffs_ecc.obj (.const:.string:column_parity_table)
                  828c1870    00000100     yaffs_hweight.obj (.const:.string:yaffs_count_bits_table)
                  828c1970    000000ec     app_pe66.oe66 (.const:xdc_runtime_Text_nodeTab__A)
                  828c1a5c    000000b4     yaffs_allocator.obj (.const:.string)
                  828c1b10    000000b0     main.obj (.const:.string)
                  828c1bc0    000000b0     yaffs_nand.obj (.const:.string)
                  828c1c70    00000090     yaffs_packedtags2.obj (.const:.string)
                  828c1d00    00000080     app_pe66.oe66 (.const:.string)
                  828c1d80    00000070     ti.platform.evm6678l.ae66 : platform.obj (.const)
                  828c1df0    00000064     yaffs_bitmap.obj (.const:.string)
                  828c1e54    0000005c     ti.platform.evm6678l.ae66 : platform.obj (.const:.string)
                  828c1eb0    0000005c     yaffs_osglue.obj (.const:.string)
                  828c1f0c    00000058     ti.targets.rts6000.ae66 : Error.oe66 (.const:.string)
                  828c1f64    00000058     yaffs_summary.obj (.const:.string)
                  828c1fbc    00000044     app_pe66.oe66 (.const:ti_sysbios_knl_Task_Object__PARAMS__C)
                  828c2000    00000040     ti.targets.rts6000.ae66 : Text.oe66 (.const:.string)
                  828c2040    0000003c     app_pe66.oe66 (.const:xdc_runtime_LoggerBuf_Module__FXNS__C)
                  828c207c    00000004     ti.platform.evm6678l.ae66 : cyhc5g_i2c_eeprom.obj (.const)
                  828c2080    00000038     app_pe66.oe66 (.const:xdc_runtime_Startup_sfxnTab__A)
                  828c20b8    0000002c     ti.targets.rts6000.ae66 : Startup.oe66 (.const:.string)
                  828c20e4    00000004     ti.platform.evm6678l.ae66 : cyhc5g_phy.obj (.const)
                  828c20e8    00000028                               : cyhc5g_nand.obj (.const:.string:rbl_eccLoc)
                  828c2110    00000028     yaffsfs.obj (.const:.string)
                  828c2138    00000028     yaffs_verify.obj (.const:block_state_name)
                  828c2160    00000028     app_pe66.oe66 (.const:ti_sysbios_heaps_HeapMem_Module__FXNS__C)
                  828c2188    00000028     app_pe66.oe66 (.const:xdc_runtime_LoggerBuf_Object__PARAMS__C)
                  828c21b0    00000024     rts6600_elf.lib : _printfi.c.obj (.const:.string)
                  828c21d4    00000024     app_pe66.oe66 (.const:ti_sysbios_gates_GateHwi_Module__FXNS__C)
                  828c21f8    00000024     app_pe66.oe66 (.const:ti_sysbios_gates_GateMutex_Module__FXNS__C)
                  828c221c    00000024     app_pe66.oe66 (.const:ti_sysbios_heaps_HeapMem_Object__PARAMS__C)
                  828c2240    00000024     app_pe66.oe66 (.const:ti_sysbios_knl_Semaphore_Object__PARAMS__C)
                  828c2264    00000020     app_pe66.oe66 (.const:ti_sysbios_gates_GateHwi_Object__DESC__C)
                  828c2284    00000020     app_pe66.oe66 (.const:ti_sysbios_gates_GateMutex_Object__DESC__C)
                  828c22a4    00000020     app_pe66.oe66 (.const:ti_sysbios_heaps_HeapMem_Object__DESC__C)
                  828c22c4    00000020     app_pe66.oe66 (.const:ti_sysbios_knl_Queue_Object__DESC__C)
                  828c22e4    00000020     app_pe66.oe66 (.const:ti_sysbios_knl_Semaphore_Object__DESC__C)
                  828c2304    00000020     app_pe66.oe66 (.const:ti_sysbios_knl_Task_Object__DESC__C)
                  828c2324    00000020     app_pe66.oe66 (.const:xdc_runtime_LoggerBuf_Object__DESC__C)
                  828c2344    0000001c     ti.platform.evm6678l.ae66 : cyhc5g_phy.obj (.const:.string)
                  828c2360    0000001c     yaffs_endian.obj (.const:.string)
                  828c237c    00000004     ti.platform.evm6678l.ae66 : cyhc5g_uart.obj (.const)
                  828c2380    0000001c     app_pe66.oe66 (.const:xdc_runtime_Startup_sfxnRts__A)
                  828c239c    00000018     ti.targets.rts6000.ae66 : System.oe66 (.const:.string)
                  828c23b4    00000018     app_pe66.oe66 (.const:ti_sysbios_gates_GateHwi_Object__PARAMS__C)
                  828c23cc    00000018     app_pe66.oe66 (.const:ti_sysbios_gates_GateMutex_Object__PARAMS__C)
                  828c23e4    00000018     app_pe66.oe66 (.const:ti_sysbios_knl_Queue_Object__PARAMS__C)
                  828c23fc    00000004     app_pe66.oe66 (.const:ti_sysbios_family_c62_TaskSupport_stackAlignment__C)
                  828c2400    00000018     app_pe66.oe66 (.const:ti_sysbios_knl_Task_hooks__A)
                  828c2418    00000014     ti.platform.evm6678l.ae66 : cyhc5g_nor.obj (.const)
                  828c242c    00000004     app_pe66.oe66 (.const:ti_sysbios_family_c64p_Exception_E_exceptionMax__C)
                  828c2430    00000008     app_pe66.oe66 (.const:ti_sysbios_knl_Idle_funcList__A)
                  828c2438    00000008     app_pe66.oe66 (.const:ti_sysbios_knl_Idle_funcList__C)
                  828c2440    00000008     app_pe66.oe66 (.const:ti_sysbios_knl_Task_hooks__C)
                  828c2448    00000008     app_pe66.oe66 (.const:xdc_runtime_Startup_firstFxns__A)
                  828c2450    00000008     app_pe66.oe66 (.const:xdc_runtime_Startup_firstFxns__C)
                  828c2458    00000008     app_pe66.oe66 (.const:xdc_runtime_Startup_lastFxns__C)
                  828c2460    00000006     main.obj (.const:.string:$P$T0$1)
                  828c2466    00000002     app_pe66.oe66 (.const:ti_sysbios_family_c64p_Exception_useInternalBuffer__C)
                  828c2468    00000004     app_pe66.oe66 (.const:ti_sysbios_family_c64p_Exception_exceptionHook__C)
                  828c246c    00000004     app_pe66.oe66 (.const:ti_sysbios_family_c64p_Exception_externalHook__C)
                  828c2470    00000004     app_pe66.oe66 (.const:ti_sysbios_family_c64p_Exception_internalHook__C)
                  828c2474    00000004     app_pe66.oe66 (.const:ti_sysbios_family_c64p_Exception_nmiHook__C)
                  828c2478    00000004     app_pe66.oe66 (.const:ti_sysbios_family_c64p_Hwi_INTRMUX1Address__C)
                  828c247c    00000004     app_pe66.oe66 (.const:ti_sysbios_family_c64p_Hwi_LD_end__C)
                  828c2480    00000004     app_pe66.oe66 (.const:ti_sysbios_family_c64p_Hwi_LM_begin__C)
                  828c2484    00000004     app_pe66.oe66 (.const:ti_sysbios_family_c64p_Hwi_Module__diagsEnabled__C)
                  828c2488    00000004     app_pe66.oe66 (.const:ti_sysbios_family_c64p_Hwi_Module__diagsIncluded__C)
                  828c248c    00000004     app_pe66.oe66 (.const:ti_sysbios_family_c64p_Hwi_Module__diagsMask__C)
                  828c2490    00000004     app_pe66.oe66 (.const:ti_sysbios_family_c64p_Hwi_Module__loggerFxn1__C)
                  828c2494    00000004     app_pe66.oe66 (.const:ti_sysbios_family_c64p_Hwi_Module__loggerFxn8__C)
                  828c2498    00000004     app_pe66.oe66 (.const:ti_sysbios_family_c64p_Hwi_Module__loggerObj__C)
                  828c249c    00000004     app_pe66.oe66 (.const:ti_sysbios_family_c66_Cache_E_invalidL1CacheSize__C)
                  828c24a0    00000004     app_pe66.oe66 (.const:ti_sysbios_family_c66_Cache_E_invalidL2CacheSize__C)
                  828c24a4    00000004     app_pe66.oe66 (.const:ti_sysbios_family_c66_Cache_atomicBlockSize__C)
                  828c24a8    00000004     app_pe66.oe66 (.const:ti_sysbios_gates_GateMutex_A_badContext__C)
                  828c24ac    00000004     app_pe66.oe66 (.const:ti_sysbios_gates_GateMutex_Instance_State_sem__O)
                  828c24b0    00000004     app_pe66.oe66 (.const:ti_sysbios_gates_GateMutex_Module__diagsEnabled__C)
                  828c24b4    00000004     app_pe66.oe66 (.const:ti_sysbios_gates_GateMutex_Module__diagsIncluded__C)
                  828c24b8    00000004     app_pe66.oe66 (.const:ti_sysbios_gates_GateMutex_Module__diagsMask__C)
                  828c24bc    00000004     app_pe66.oe66 (.const:ti_sysbios_hal_Hwi_E_stackOverflow__C)
                  828c24c0    00000004     app_pe66.oe66 (.const:ti_sysbios_hal_SecondsClock_Module_State_clock__O)
                  828c24c4    00000004     app_pe66.oe66 (.const:ti_sysbios_heaps_HeapMem_A_align__C)
                  828c24c8    00000004     app_pe66.oe66 (.const:ti_sysbios_heaps_HeapMem_A_heapSize__C)
                  828c24cc    00000004     app_pe66.oe66 (.const:ti_sysbios_heaps_HeapMem_A_invalidFree__C)
                  828c24d0    00000004     app_pe66.oe66 (.const:ti_sysbios_heaps_HeapMem_A_zeroBlock__C)
                  828c24d4    00000004     app_pe66.oe66 (.const:ti_sysbios_heaps_HeapMem_E_memory__C)
                  828c24d8    00000004     app_pe66.oe66 (.const:ti_sysbios_heaps_HeapMem_Module__diagsEnabled__C)
                  828c24dc    00000004     app_pe66.oe66 (.const:ti_sysbios_heaps_HeapMem_Module__diagsIncluded__C)
                  828c24e0    00000004     app_pe66.oe66 (.const:ti_sysbios_heaps_HeapMem_Module__diagsMask__C)
                  828c24e4    00000004     app_pe66.oe66 (.const:ti_sysbios_heaps_HeapMem_Module__gateObj__C)
                  828c24e8    00000004     app_pe66.oe66 (.const:ti_sysbios_heaps_HeapMem_Object__count__C)
                  828c24ec    00000004     app_pe66.oe66 (.const:ti_sysbios_heaps_HeapMem_reqAlign__C)
                  828c24f0    00000004     app_pe66.oe66 (.const:ti_sysbios_knl_Clock_LM_begin__C)
                  828c24f4    00000004     app_pe66.oe66 (.const:ti_sysbios_knl_Clock_LM_tick__C)
                  828c24f8    00000004     app_pe66.oe66 (.const:ti_sysbios_knl_Clock_LW_delayed__C)
                  828c24fc    00000004     app_pe66.oe66 (.const:ti_sysbios_knl_Clock_Module_State_clockQ__O)
                  828c2500    00000004     app_pe66.oe66 (.const:ti_sysbios_knl_Clock_Module__diagsEnabled__C)
                  828c2504    00000004     app_pe66.oe66 (.const:ti_sysbios_knl_Clock_Module__diagsIncluded__C)
                  828c2508    00000004     app_pe66.oe66 (.const:ti_sysbios_knl_Clock_Module__diagsMask__C)
                  828c250c    00000004     app_pe66.oe66 (.const:ti_sysbios_knl_Clock_Module__loggerFxn1__C)
                  828c2510    00000004     app_pe66.oe66 (.const:ti_sysbios_knl_Clock_Module__loggerFxn2__C)
                  828c2514    00000004     app_pe66.oe66 (.const:ti_sysbios_knl_Clock_Module__loggerObj__C)
                  828c2518    00000004     app_pe66.oe66 (.const:ti_sysbios_knl_Clock_tickPeriod__C)
                  828c251c    00000004     app_pe66.oe66 (.const:ti_sysbios_knl_Mailbox_Instance_State_freeQue__O)
                  828c2520    00000004     app_pe66.oe66 (.const:ti_sysbios_knl_Mailbox_Object__count__C)
                  828c2524    00000004     app_pe66.oe66 (.const:ti_sysbios_knl_Mailbox_maxTypeAlign__C)
                  828c2528    00000004     app_pe66.oe66 (.const:ti_sysbios_knl_Semaphore_A_badContext__C)
                  828c252c    00000004     app_pe66.oe66 (.const:ti_sysbios_knl_Semaphore_A_noEvents__C)
                  828c2530    00000004     app_pe66.oe66 (.const:ti_sysbios_knl_Semaphore_A_overflow__C)
                  828c2534    00000004     app_pe66.oe66 (.const:ti_sysbios_knl_Semaphore_A_pendTaskDisabled__C)
                  828c2538    00000004     app_pe66.oe66 (.const:ti_sysbios_knl_Semaphore_Instance_State_pendQ__O)
                  828c253c    00000004     app_pe66.oe66 (.const:ti_sysbios_knl_Semaphore_LM_pend__C)
                  828c2540    00000004     app_pe66.oe66 (.const:ti_sysbios_knl_Semaphore_LM_post__C)
                  828c2544    00000004     app_pe66.oe66 (.const:ti_sysbios_knl_Semaphore_Module__diagsEnabled__C)
                  828c2548    00000004     app_pe66.oe66 (.const:ti_sysbios_knl_Semaphore_Module__diagsIncluded__C)
                  828c254c    00000004     app_pe66.oe66 (.const:ti_sysbios_knl_Semaphore_Module__diagsMask__C)
                  828c2550    00000004     app_pe66.oe66 (.const:ti_sysbios_knl_Semaphore_Module__loggerFxn2__C)
                  828c2554    00000004     app_pe66.oe66 (.const:ti_sysbios_knl_Semaphore_Module__loggerFxn4__C)
                  828c2558    00000004     app_pe66.oe66 (.const:ti_sysbios_knl_Semaphore_Module__loggerObj__C)
                  828c255c    00000004     app_pe66.oe66 (.const:ti_sysbios_knl_Swi_LD_end__C)
                  828c2560    00000004     app_pe66.oe66 (.const:ti_sysbios_knl_Swi_LM_begin__C)
                  828c2564    00000004     app_pe66.oe66 (.const:ti_sysbios_knl_Swi_LM_post__C)
                  828c2568    00000004     app_pe66.oe66 (.const:ti_sysbios_knl_Swi_Module__diagsEnabled__C)
                  828c256c    00000004     app_pe66.oe66 (.const:ti_sysbios_knl_Swi_Module__diagsIncluded__C)
                  828c2570    00000004     app_pe66.oe66 (.const:ti_sysbios_knl_Swi_Module__diagsMask__C)
                  828c2574    00000004     app_pe66.oe66 (.const:ti_sysbios_knl_Swi_Module__loggerFxn1__C)
                  828c2578    00000004     app_pe66.oe66 (.const:ti_sysbios_knl_Swi_Module__loggerFxn4__C)
                  828c257c    00000004     app_pe66.oe66 (.const:ti_sysbios_knl_Swi_Module__loggerObj__C)
                  828c2580    00000004     app_pe66.oe66 (.const:ti_sysbios_knl_Swi_Object__count__C)
                  828c2584    00000004     app_pe66.oe66 (.const:ti_sysbios_knl_Task_A_badPriority__C)
                  828c2588    00000004     app_pe66.oe66 (.const:ti_sysbios_knl_Task_A_badTaskState__C)
                  828c258c    00000004     app_pe66.oe66 (.const:ti_sysbios_knl_Task_A_badThreadType__C)
                  828c2590    00000004     app_pe66.oe66 (.const:ti_sysbios_knl_Task_A_badTimeout__C)
                  828c2594    00000004     app_pe66.oe66 (.const:ti_sysbios_knl_Task_A_noPendElem__C)
                  828c2598    00000004     app_pe66.oe66 (.const:ti_sysbios_knl_Task_A_sleepTaskDisabled__C)
                  828c259c    00000004     app_pe66.oe66 (.const:ti_sysbios_knl_Task_E_spOutOfBounds__C)
                  828c25a0    00000004     app_pe66.oe66 (.const:ti_sysbios_knl_Task_E_stackOverflow__C)
                  828c25a4    00000004     app_pe66.oe66 (.const:ti_sysbios_knl_Task_LD_block__C)
                  828c25a8    00000004     app_pe66.oe66 (.const:ti_sysbios_knl_Task_LD_exit__C)
                  828c25ac    00000004     app_pe66.oe66 (.const:ti_sysbios_knl_Task_LD_ready__C)
                  828c25b0    00000004     app_pe66.oe66 (.const:ti_sysbios_knl_Task_LM_sleep__C)
                  828c25b4    00000004     app_pe66.oe66 (.const:ti_sysbios_knl_Task_LM_switch__C)
                  828c25b8    00000004     app_pe66.oe66 (.const:ti_sysbios_knl_Task_Module_State_inactiveQ__O)
                  828c25bc    00000004     app_pe66.oe66 (.const:ti_sysbios_knl_Task_Module__diagsEnabled__C)
                  828c25c0    00000004     app_pe66.oe66 (.const:ti_sysbios_knl_Task_Module__diagsIncluded__C)
                  828c25c4    00000004     app_pe66.oe66 (.const:ti_sysbios_knl_Task_Module__diagsMask__C)
                  828c25c8    00000004     app_pe66.oe66 (.const:ti_sysbios_knl_Task_Module__loggerFxn2__C)
                  828c25cc    00000004     app_pe66.oe66 (.const:ti_sysbios_knl_Task_Module__loggerFxn4__C)
                  828c25d0    00000004     app_pe66.oe66 (.const:ti_sysbios_knl_Task_Module__loggerObj__C)
                  828c25d4    00000004     app_pe66.oe66 (.const:ti_sysbios_knl_Task_Object__count__C)
                  828c25d8    00000004     app_pe66.oe66 (.const:ti_sysbios_knl_Task_Object__heap__C)
                  828c25dc    00000004     app_pe66.oe66 (.const:ti_sysbios_knl_Task_allBlockedFunc__C)
                  828c25e0    00000004     app_pe66.oe66 (.const:ti_sysbios_knl_Task_defaultStackHeap__C)
                  828c25e4    00000004     app_pe66.oe66 (.const:ti_sysbios_knl_Task_defaultStackSize__C)
                  828c25e8    00000004     app_pe66.oe66 (.const:ti_sysbios_knl_Task_numConstructedTasks__C)
                  828c25ec    00000004     app_pe66.oe66 (.const:ti_sysbios_timers_timer64_Timer_A_notAvailable__C)
                  828c25f0    00000004     app_pe66.oe66 (.const:ti_sysbios_timers_timer64_Timer_E_cannotSupport__C)
                  828c25f4    00000004     app_pe66.oe66 (.const:ti_sysbios_timers_timer64_Timer_Module__diagsEnabled__C)
                  828c25f8    00000004     app_pe66.oe66 (.const:ti_sysbios_timers_timer64_Timer_Module__diagsIncluded__C)
                  828c25fc    00000004     app_pe66.oe66 (.const:ti_sysbios_timers_timer64_Timer_Module__diagsMask__C)
                  828c2600    00000004     app_pe66.oe66 (.const:ti_sysbios_timers_timer64_Timer_anyMaskHigh__C)
                  828c2604    00000004     app_pe66.oe66 (.const:ti_sysbios_timers_timer64_Timer_anyMask__C)
                  828c2608    00000004     app_pe66.oe66 (.const:ti_sysbios_timers_timer64_Timer_freqDivisor__C)
                  828c260c    00000004     app_pe66.oe66 (.const:ti_sysbios_timers_timer64_Timer_numLocalTimers__C)
                  828c2610    00000004     app_pe66.oe66 (.const:ti_sysbios_timers_timer64_Timer_numTimerDevices__C)
                  828c2614    00000004     app_pe66.oe66 (.const:xdc_runtime_Assert_E_assertFailed__C)
                  828c2618    00000004     app_pe66.oe66 (.const:xdc_runtime_Core_A_initializedParams__C)
                  828c261c    00000004     app_pe66.oe66 (.const:xdc_runtime_Core_Module__diagsEnabled__C)
                  828c2620    00000004     app_pe66.oe66 (.const:xdc_runtime_Core_Module__diagsIncluded__C)
                  828c2624    00000004     app_pe66.oe66 (.const:xdc_runtime_Core_Module__diagsMask__C)
                  828c2628    00000004     app_pe66.oe66 (.const:xdc_runtime_Error_E_memory__C)
                  828c262c    00000004     app_pe66.oe66 (.const:xdc_runtime_Error_Module__diagsEnabled__C)
                  828c2630    00000004     app_pe66.oe66 (.const:xdc_runtime_Error_Module__diagsIncluded__C)
                  828c2634    00000004     app_pe66.oe66 (.const:xdc_runtime_Error_Module__diagsMask__C)
                  828c2638    00000004     app_pe66.oe66 (.const:xdc_runtime_Error_Module__loggerFxn8__C)
                  828c263c    00000004     app_pe66.oe66 (.const:xdc_runtime_Error_Module__loggerObj__C)
                  828c2640    00000004     app_pe66.oe66 (.const:xdc_runtime_Error_policyFxn__C)
                  828c2644    00000004     app_pe66.oe66 (.const:xdc_runtime_Error_policy__C)
                  828c2648    00000004     app_pe66.oe66 (.const:xdc_runtime_Error_raiseHook__C)
                  828c264c    00000004     app_pe66.oe66 (.const:xdc_runtime_IFilterLogger_Interface__BASE__C)
                  828c2650    00000004     app_pe66.oe66 (.const:xdc_runtime_IGateProvider_Interface__BASE__C)
                  828c2654    00000004     app_pe66.oe66 (.const:xdc_runtime_IHeap_Interface__BASE__C)
                  828c2658    00000004     app_pe66.oe66 (.const:xdc_runtime_ILogger_Interface__BASE__C)
                  828c265c    00000004     app_pe66.oe66 (.const:xdc_runtime_IModule_Interface__BASE__C)
                  828c2660    00000004     app_pe66.oe66 (.const:xdc_runtime_Log_L_error__C)
                  828c2664    00000004     app_pe66.oe66 (.const:xdc_runtime_LoggerBuf_E_badLevel__C)
                  828c2668    00000004     app_pe66.oe66 (.const:xdc_runtime_LoggerBuf_Module__gateObj__C)
                  828c266c    00000004     app_pe66.oe66 (.const:xdc_runtime_LoggerBuf_Object__count__C)
                  828c2670    00000004     app_pe66.oe66 (.const:xdc_runtime_LoggerBuf_statusLogger__C)
                  828c2674    00000004     app_pe66.oe66 (.const:xdc_runtime_Memory_defaultHeapInstance__C)
                  828c2678    00000004     app_pe66.oe66 (.const:xdc_runtime_Startup_execImpl__C)
                  828c267c    00000004     app_pe66.oe66 (.const:xdc_runtime_Startup_maxPasses__C)
                  828c2680    00000004     app_pe66.oe66 (.const:xdc_runtime_Startup_sfxnRts__C)
                  828c2684    00000004     app_pe66.oe66 (.const:xdc_runtime_Startup_sfxnTab__C)
                  828c2688    00000004     app_pe66.oe66 (.const:xdc_runtime_SysMin_bufSize__C)
                  828c268c    00000004     app_pe66.oe66 (.const:xdc_runtime_SysMin_outputFunc__C)
                  828c2690    00000004     app_pe66.oe66 (.const:xdc_runtime_System_Module__gateObj__C)
                  828c2694    00000004     app_pe66.oe66 (.const:xdc_runtime_System_abortFxn__C)
                  828c2698    00000004     app_pe66.oe66 (.const:xdc_runtime_System_exitFxn__C)
                  828c269c    00000004     app_pe66.oe66 (.const:xdc_runtime_System_extendFxn__C)
                  828c26a0    00000004     app_pe66.oe66 (.const:xdc_runtime_System_maxAtexitHandlers__C)
                  828c26a4    00000004     app_pe66.oe66 (.const:xdc_runtime_Text_charTab__C)
                  828c26a8    00000004     app_pe66.oe66 (.const:xdc_runtime_Text_nameEmpty__C)
                  828c26ac    00000004     app_pe66.oe66 (.const:xdc_runtime_Text_nameStatic__C)
                  828c26b0    00000004     app_pe66.oe66 (.const:xdc_runtime_Text_nameUnknown__C)
                  828c26b4    00000004     app_pe66.oe66 (.const:xdc_runtime_Text_nodeTab__C)
                  828c26b8    00000004     app_pe66.oe66 (.const:xdc_runtime_Text_visitRopeFxn__C)
                  828c26bc    00000002     app_pe66.oe66 (.const:ti_sysbios_family_c64p_Hwi_Module__id__C)
                  828c26be    00000002     app_pe66.oe66 (.const:ti_sysbios_family_c64p_Hwi_Module__loggerDefined__C)
                  828c26c0    00000002     app_pe66.oe66 (.const:ti_sysbios_family_c66_Cache_Module__id__C)
                  828c26c2    00000002     app_pe66.oe66 (.const:ti_sysbios_family_c66_Cache_registerRTSSynch__C)
                  828c26c4    00000002     app_pe66.oe66 (.const:ti_sysbios_gates_GateMutex_Module__id__C)
                  828c26c6    00000002     app_pe66.oe66 (.const:ti_sysbios_hal_Hwi_Module__id__C)
                  828c26c8    00000002     app_pe66.oe66 (.const:ti_sysbios_heaps_HeapMem_Module__id__C)
                  828c26ca    00000002     app_pe66.oe66 (.const:ti_sysbios_knl_Clock_Module__id__C)
                  828c26cc    00000002     app_pe66.oe66 (.const:ti_sysbios_knl_Clock_Module__loggerDefined__C)
                  828c26ce    00000002     app_pe66.oe66 (.const:ti_sysbios_knl_Semaphore_Module__id__C)
                  828c26d0    00000002     app_pe66.oe66 (.const:ti_sysbios_knl_Semaphore_Module__loggerDefined__C)
                  828c26d2    00000002     app_pe66.oe66 (.const:ti_sysbios_knl_Swi_Module__id__C)
                  828c26d4    00000002     app_pe66.oe66 (.const:ti_sysbios_knl_Swi_Module__loggerDefined__C)
                  828c26d6    00000002     app_pe66.oe66 (.const:ti_sysbios_knl_Task_Module__id__C)
                  828c26d8    00000002     app_pe66.oe66 (.const:ti_sysbios_knl_Task_Module__loggerDefined__C)
                  828c26da    00000002     app_pe66.oe66 (.const:ti_sysbios_timers_timer64_Timer_Module__id__C)
                  828c26dc    00000002     app_pe66.oe66 (.const:ti_sysbios_timers_timer64_Timer_startupNeeded__C)
                  828c26de    00000002     app_pe66.oe66 (.const:ti_sysbios_timers_timer64_Timer_useTimer64pRegMap__C)
                  828c26e0    00000002     app_pe66.oe66 (.const:xdc_runtime_Core_Module__id__C)
                  828c26e2    00000002     app_pe66.oe66 (.const:xdc_runtime_Error_Module__loggerDefined__C)
                  828c26e4    00000002     app_pe66.oe66 (.const:xdc_runtime_Error_maxDepth__C)
                  828c26e6    00000002     app_pe66.oe66 (.const:xdc_runtime_LoggerBuf_Module__id__C)
                  828c26e8    00000002     app_pe66.oe66 (.const:xdc_runtime_LoggerBuf_filterByLevel__C)
                  828c26ea    00000002     app_pe66.oe66 (.const:xdc_runtime_Memory_Module__id__C)
                  828c26ec    00000002     app_pe66.oe66 (.const:xdc_runtime_SysMin_flushAtExit__C)
                  828c26ee    00000002     app_pe66.oe66 (.const:xdc_runtime_Text_charCnt__C)
                  828c26f0    00000002     app_pe66.oe66 (.const:xdc_runtime_Text_isLoaded__C)
                  828c26f2    00000002     app_pe66.oe66 (.const:xdc_runtime_Text_registryModsLastId__C)
                  828c26f4    00000002     app_pe66.oe66 (.const:xdc_runtime_Text_unnamedModsLastId__C)

.fardata   0    828c3898    00000b0c     UNINITIALIZED
                  828c3898    000001e0     rts6600_elf.lib : defs.c.obj (.fardata:_ftable)
                  828c3a78    00000180     app_pe66.oe66 (.fardata:ti_sysbios_timers_timer64_Timer_Module_State_0_device__A)
                  828c3bf8    000000a0     rts6600_elf.lib : write.c.obj (.fardata:_stream)
                  828c3c98    00000080     app_pe66.oe66 (.fardata:ti_sysbios_knl_Swi_Module_State_0_readyQ__A)
                  828c3d18    00000080     app_pe66.oe66 (.fardata:ti_sysbios_knl_Task_Module_State_0_readyQ__A)
                  828c3d98    00000080     app_pe66.oe66 (.fardata:ti_sysbios_timers_timer64_Timer_Module_State_0_gctrl__A)
                  828c3e18    00000080     app_pe66.oe66 (.fardata:ti_sysbios_timers_timer64_Timer_Module_State_0_handles__A)
                  828c3e98    00000080     app_pe66.oe66 (.fardata:ti_sysbios_timers_timer64_Timer_Module_State_0_intFreqs__A)
                  828c3f18    00000078     rts6600_elf.lib : write.c.obj (.fardata:_device)
                  828c3f90    0000006c     app_pe66.oe66 (.fardata:ti_sysbios_family_c64p_Hwi_Module__state__V)
                  828c3ffc    00000004     rts6600_elf.lib : _lock.c.obj (.fardata:_lock)
                  828c4000    00000060     app_pe66.oe66 (.fardata:ti_sysbios_gates_GateMutex_Object__table__V)
                  828c4060    0000005c     app_pe66.oe66 (.fardata:ti_sysbios_knl_Task_Object__table__V)
                  828c40bc    00000004     rts6600_elf.lib : _lock.c.obj (.fardata:_unlock)
                  828c40c0    00000050     app_pe66.oe66 (.fardata:ti_sysbios_timers_timer64_Timer_Object__table__V)
                  828c4110    00000048     app_pe66.oe66 (.fardata:ti_sysbios_knl_Task_Module__state__V)
                  828c4158    0000003c     app_pe66.oe66 (.fardata:ti_sysbios_hal_SecondsClock_Module__state__V)
                  828c4194    00000030     app_pe66.oe66 (.fardata:ti_sysbios_family_c64p_Exception_Module__state__V)
                  828c41c4    00000004     rts6600_elf.lib : defs.c.obj (.fardata)
                  828c41c8    00000030     app_pe66.oe66 (.fardata:ti_sysbios_knl_Swi_Object__table__V)
                  828c41f8    0000002c     app_pe66.oe66 (.fardata:ti_sysbios_knl_Clock_Module__state__V)
                  828c4224    00000024     app_pe66.oe66 (.fardata:ti_sysbios_BIOS_Module__state__V)
                  828c4248    00000024     app_pe66.oe66 (.fardata:xdc_runtime_LoggerBuf_Object__table__V)
                  828c426c    00000020     app_pe66.oe66 (.fardata:xdc_runtime_Error_IgnoreBlock)
                  828c428c    0000001c     app_pe66.oe66 (.fardata:ti_sysbios_knl_Swi_Module__state__V)
                  828c42a8    00000018     app_pe66.oe66 (.fardata:ti_sysbios_family_c64p_Hwi_Object__table__V)
                  828c42c0    00000018     app_pe66.oe66 (.fardata:ti_sysbios_heaps_HeapMem_Object__table__V)
                  828c42d8    00000018     app_pe66.oe66 (.fardata:ti_sysbios_timers_timer64_Timer_Module__state__V)
                  828c42f0    00000010     ti.csl.ae66 : csl_cpsgmii.oe66 (.fardata:cpsgmiiPortBaseAddr)
                  828c4300    00000010     app_pe66.oe66 (.fardata:xdc_runtime_System_Module_State_0_atexitHandlers__A)
                  828c4310    0000000c     rts6600_elf.lib : exit.c.obj (.fardata)
                  828c431c    0000000c     app_pe66.oe66 (.fardata:xdc_runtime_SysMin_Module__state__V)
                  828c4328    00000008     app_pe66.oe66 (.fardata:ti_sysbios_gates_GateHwi_Module__root__V)
                  828c4330    00000008     app_pe66.oe66 (.fardata:ti_sysbios_gates_GateMutex_Module__root__V)
                  828c4338    00000008     app_pe66.oe66 (.fardata:ti_sysbios_hal_Hwi_Object__table__V)
                  828c4340    00000008     app_pe66.oe66 (.fardata:ti_sysbios_heaps_HeapMem_Module__root__V)
                  828c4348    00000008     app_pe66.oe66 (.fardata:ti_sysbios_knl_Queue_Module__root__V)
                  828c4350    00000008     app_pe66.oe66 (.fardata:ti_sysbios_knl_Semaphore_Module__root__V)
                  828c4358    00000008     app_pe66.oe66 (.fardata:ti_sysbios_knl_Task_Module__root__V)
                  828c4360    00000008     app_pe66.oe66 (.fardata:xdc_runtime_LoggerBuf_Module__root__V)
                  828c4368    00000008     app_pe66.oe66 (.fardata:xdc_runtime_Registry_Module__state__V)
                  828c4370    00000008     app_pe66.oe66 (.fardata:xdc_runtime_Startup_Module__state__V)
                  828c4378    00000008     app_pe66.oe66 (.fardata:xdc_runtime_System_Module__state__V)
                  828c4380    00000008     yaffsfs.obj (.fardata:yaffsfs_deviceList)
                  828c4388    00000006     app_pe66.oe66 (.fardata:xdc_runtime_LoggerBuf_Module__state__V)
                  828c438e    00000002     app_pe66.oe66 (.fardata:xdc_runtime_Error_Module__state__V)
                  828c4390    00000004     rts6600_elf.lib : errno.c.obj (.fardata)
                  828c4394    00000004     app_pe66.oe66 (.fardata:ti_sysbios_rts_ti_ReentSupport_Module__state__V)
                  828c4398    00000004     app_pe66.oe66 (.fardata:ti_sysbios_gates_GateHwi_Object__table__V)
                  828c439c    00000004     app_pe66.oe66 (.fardata:xdc_runtime_Memory_Module__state__V)
                  828c43a0    00000004     app_pe66.oe66 (.fardata:ti_sysbios_knl_Task_Module_State_0_idleTask__A)

.switch.1 
*          0    828c43a4    00000058     
                  828c43a4    00000038     rts6600_elf.lib : _printfi.c.obj (.switch:__TI_printfi)
                  828c43dc    00000020     yaffs_guts.obj (.switch:yaffs_retype_obj)

.switch.2 
*          0    828c4600    00000108     
                  828c4600    0000001c     ti.platform.evm6678l.ae66 : platform.obj (.switch:platform_internal_memory_test)
                  828c461c    00000018     yaffs_yaffs1.obj (.switch:yaffs1_scan)
                  828c4634    00000018     yaffs_yaffs2.obj (.switch:yaffs2_scan_chunk)
                  828c464c    00000018     yaffs_guts.obj (.switch:yaffs_count_free_chunks)
                  828c4664    00000018     yaffs_guts.obj (.switch:yaffs_create_obj)
                  828c467c    00000018     yaffs_guts.obj (.switch:yaffs_del_obj)
                  828c4694    00000018     yaffs_guts.obj (.switch:yaffs_new_obj)
                  828c46ac    00000018     yaffs_guts.obj (.switch:yaffs_unlink_worker)
                  828c46c4    00000018     yaffs_guts.obj (.switch:yaffs_update_oh)
                  828c46dc    00000018     yaffs_verify.obj (.switch:yaffs_verify_obj)
                  828c46f4    00000014     yaffs_guts.obj (.switch:yaffs_get_obj_type)

.cio       0    828c4708    00000120     UNINITIALIZED
                  828c4708    00000120     rts6600_elf.lib : trgmsg.c.obj (.cio)

MODULE SUMMARY

       Module                        code     ro data   rw data
       ------                        ----     -------   -------
    .\
       main.obj                      576      182       0      
       platform_osal_function.obj    192      0         0      
    +--+-----------------------------+--------+---------+---------+
       Total:                        768      182       0      
                                                               
    .\yaffs2\
       yaffs_guts.obj                37248    3352      0      
       yaffsfs.obj                   26048    40        13072  
       yaffs_yaffs2.obj              13504    1984      0      
       yaffs_verify.obj              4704     1720      4      
       yaffs_checkptrw.obj           4608     676       0      
       yaffs_yaffs1.obj              3200     456       0      
       yaffs_tagscompat.obj          2976     344       40     
       yaffs_summary.obj             2400     88        0      
       yaffs_allocator.obj           2240     180       0      
       yaffs_ecc.obj                 2016     256       0      
       yaffs_tagsmarshall.obj        1504     260       0      
       yaffs_nameval.obj             1568     0         0      
       yaffs_packedtags2.obj         1248     144       0      
       yaffs_nand.obj                928      176       0      
       yaffs_endian.obj              1024     28        0      
       yaffs_bitmap.obj              864      100       0      
       yaffs_attribs.obj             448      0         0      
       yaffs_hweight.obj             128      256       0      
       yaffs_osglue.obj              224      92        4      
    +--+-----------------------------+--------+---------+---------+
       Total:                        106880   10152     13120  
                                                               
    D:\pxqwork\project\5G-DSP\5G_Yaffs2\Debug\configPkg\package\cfg\
       app_pe66.oe66                 5184     9507      555492 
    +--+-----------------------------+--------+---------+---------+
       Total:                        5184     9507      555492 
                                                               
    C:\ti\ccs901\ccs\tools\compiler\ti-cgt-c6000_8.3.2\lib\rts6600_elf.lib
       _printfi.c.obj                13440    92        0      
       divd.c.obj                    1536     0         0      
       defs.c.obj                    0        0         804    
       fputs.c.obj                   800      0         0      
       imath64.c.obj                 672      0         0      
       qsort.c.obj                   576      0         0      
       trgmsg.c.obj                  224      0         288    
       fflush.c.obj                  448      0         0      
       fputc.c.obj                   448      0         0      
       getdevice.c.obj               448      0         0      
       imath40.c.obj                 448      0         0      
       setvbuf.c.obj                 448      0         0      
       frexp.c.obj                   416      0         0      
       hostrename.c.obj              416      0         0      
       s_scalbn.c.obj                416      0         0      
       write.c.obj                   96       0         280    
       copy_decompress_rle.c.obj     288      0         0      
       printf.c.obj                  288      0         0      
       exit.c.obj                    256      0         12     
       ctype.c.obj                   0        257       0      
       atoi.c.obj                    256      0         0      
       fclose.c.obj                  256      0         0      
       fseek.c.obj                   256      0         0      
       hostopen.c.obj                224      0         8      
       _io_perm.c.obj                224      0         0      
       close.c.obj                   224      0         0      
       hostlseek.c.obj               224      0         0      
       hostwrite.c.obj               224      0         0      
       llshift.c.obj                 224      0         0      
       ltoa.c.obj                    224      0         0      
       memset.c.obj                  224      0         0      
       divu.asm.obj                  192      0         0      
       hostread.c.obj                192      0         0      
       hostunlink.c.obj              192      0         0      
       remi.asm.obj                  192      0         0      
       tls.c.obj                     192      0         0      
       fopen.c.obj                   160      0         0      
       hostclose.c.obj               160      0         0      
       memcpy64.asm.obj              160      0         0      
       remu.asm.obj                  160      0         0      
       vsprintf.c.obj                160      0         0      
       strcat.c.obj                  128      0         0      
       strncpy.c.obj                 128      0         0      
       unlink.c.obj                  128      0         0      
       _lock.c.obj                   96       0         8      
       frcmpyd_div.c.obj             96       0         0      
       lseek.c.obj                   96       0         0      
       memccpy.c.obj                 96       0         0      
       memcmp.c.obj                  96       0         0      
       strcmp.c.obj                  96       0         0      
       strcpy.c.obj                  96       0         0      
       strncmp.c.obj                 96       0         0      
       args_main.c.obj               64       0         0      
       assert.c.obj                  64       0         0      
       call_stub.asm.obj             64       0         0      
       isinf.c.obj                   64       0         0      
       push.asm.obj                  64       0         0      
       wcslen.c.obj                  64       0         0      
       errno.c.obj                   32       0         4      
       _data_synch.c.obj             32       0         0      
       copy_decompress_none.c.obj    32       0         0      
       s_copysign.c.obj              32       0         0      
       signbit.c.obj                 32       0         0      
    +--+-----------------------------+--------+---------+---------+
       Total:                        27680    349       1404   
                                                               
    C:\ti\pdk\6678\bios_6_75_02_00\packages\ti\targets\rts6000\lib\boot.ae66
       autoinit.oe66                 288      0         0      
       boot.oe66                     160      0         0      
    +--+-----------------------------+--------+---------+---------+
       Total:                        448      0         0      
                                                               
    C:\ti\pdk\6678\bios_6_75_02_00\packages\ti\targets\rts6000\lib\ti.targets.rts6000.ae66
       System.oe66                   3200     24        0      
       LoggerBuf.oe66                2560     0         0      
       Text.oe66                     1824     64        0      
       Error.oe66                    1184     88        0      
       Startup.oe66                  896      44        0      
       Core-mem.oe66                 896      0         0      
       SysMin.oe66                   704      0         0      
       Memory.oe66                   448      0         0      
       Core-smem.oe66                416      0         0      
       Assert.oe66                   192      4         0      
       Core-params.oe66              160      0         0      
       Core-label.oe66               128      0         0      
       Gate.oe66                     64       0         0      
       Registry.oe66                 64       0         0      
    +--+-----------------------------+--------+---------+---------+
       Total:                        12736    224       0      
                                                               
    C:\ti\pdk\6678\pdk_c667x_2_0_13\packages\ti\csl\lib\c6678\c66\release\ti.csl.ae66
       csl_gpioGetBaseAddress.oe66   32       0         0      
       csl_cpsgmii.oe66              0        0         16     
    +--+-----------------------------+--------+---------+---------+
       Total:                        32       0         16     
                                                               
    D:/pxqwork/project/5G-DSP/platform_lib_evmc6678l/lib/debug/ti.platform.evm6678l.ae66
       platform.obj                  6752     232       2408   
       cyhc5g_nand.obj               2880     48        2112   
       cyhc5g.obj                    2464     0         0      
       cyhc5g_i2c_eeprom.obj         2016     4         68     
       cyhc5g_phy.obj                1632     32        4      
       cyhc5g_spi.obj                1120     8         4      
       cyhc5g_nor.obj                992      20        0      
       cyhc5g_gpio.obj               832      4         0      
       cyhc5g_uart.obj               480      4         0      
       cyhc5g_i2c.obj                128      0         0      
       cyhc5g_led.obj                64       0         0      
    +--+-----------------------------+--------+---------+---------+
       Total:                        19360    352       4596   
                                                               
    D:\pxqwork\project\5G-DSP\5G_Yaffs2\src\sysbios\sysbios.ae66
       BIOS.obj                      31584    1512      22     
       c64p_Hwi_disp_always.obj      512      0         0      
       c64p_Exception_asm.obj        384      0         0      
       c62_TaskSupport_asm.obj       224      0         0      
       c64p_Hwi_asm_switch.obj       192      0         0      
    +--+-----------------------------+--------+---------+---------+
       Total:                        32896    1512      22     
                                                               
       Stack:                        0        0         524288 
       Linker Generated:             0        1735      0      
    +--+-----------------------------+--------+---------+---------+
       Grand Total:                  205984   24013     1098938


LINKER GENERATED COPY TABLES

__TI_cinit_table @ 828c4f10 records: 5, size/record: 8, table size: 40
	.fardata: load addr=828c4870, load size=000005d5 bytes, run addr=828c3898, run size=00000b0c bytes, compression=rle
	platform_lib: load addr=828c4e45, load size=0000009f bytes, run addr=828c26f8, run size=000011a0 bytes, compression=rle
	.far: load addr=828c4ee4, load size=0000000d bytes, run addr=82800800, run size=0008a6ac bytes, compression=rle
	.neardata: load addr=828c4ef1, load size=0000000d bytes, run addr=828c4848, run size=00000028 bytes, compression=rle
	.bss: load addr=828c4efe, load size=00000009 bytes, run addr=828c4828, run size=00000020 bytes, compression=rle


LINKER GENERATED HANDLER TABLE

__TI_handler_table @ 828c4f08 records: 2, size/record: 4, table size: 8
	index: 0, handler: __TI_decompress_rle24
	index: 1, handler: __TI_decompress_none


GLOBAL SYMBOLS: SORTED ALPHABETICALLY BY Name 

address   name                                                       
-------   ----                                                       
828bc7e0  C$$EXIT                                                    
828bb0b8  C$$IO$$                                                    
828bc640  CSL_GPIO_open                                              
828a1498  Convert_CoreLocal2GlobalAddr                               
828a6580  CorePllcGetHwSetup                                         
828a6354  CorePllcHwSetup                                            
828a60f8  DDR3Init                                                   
828b94e0  HOSTclose                                                  
828b7a60  HOSTlseek                                                  
828b7b40  HOSTopen                                                   
828b86a0  HOSTread                                                   
828b4740  HOSTrename                                                 
828b8760  HOSTunlink                                                 
828b7c20  HOSTwrite                                                  
828aab0c  Init_SGMII                                                 
828a5bf0  NandGetDetails                                             
828a5250  NandReadSpareArea                                          
828a52f0  NandWriteDataBytes                                         
828a5448  NandWriteSpareArea                                         
828b8b94  Osal_platformFree                                          
828b8b80  Osal_platformMalloc                                        
828b8bb4  Osal_platformSpiCsEnter                                    
828b8bd0  Osal_platformSpiCsExit                                     
828a6004  PowerUpDomains                                             
828a5ee8  SetDDR3PllConfig                                           
828a5dc8  SetPaPllConfig                                             
828b32ac  UartInit                                                   
828b328c  UartIsDataReady                                            
828b3258  UartReadBaudRate                                           
828b3248  UartReadData                                               
828b3220  UartSetBaudRate                                            
828b31e0  UartWriteData                                              
82800800  __ASM__                                                    
828c4708  __CIOBUF_                                                  
82800858  __ISA__                                                    
82800870  __PLAT__                                                   
82800890  __TARG__                                                   
828c4f10  __TI_CINIT_Base                                            
828c4f38  __TI_CINIT_Limit                                           
828c4f08  __TI_Handler_Table_Base                                    
828c4f10  __TI_Handler_Table_Limit                                   
UNDEFED   __TI_INITARRAY_Base                                        
UNDEFED   __TI_INITARRAY_Limit                                       
00880000  __TI_STACK_END                                             
00080000  __TI_STACK_SIZE                                            
828c4828  __TI_STATIC_BASE                                           
UNDEFED   __TI_TLS_INIT_Base                                         
UNDEFED   __TI_TLS_INIT_Limit                                        
828b9580  __TI_cleanup                                               
828c4310  __TI_cleanup_ptr                                           
828b6e60  __TI_closefile                                             
828bc820  __TI_decompress_none                                       
828bc840  __TI_decompress_rle24                                      
828b8820  __TI_doflush                                               
828c4314  __TI_dtors_ptr                                             
828c4318  __TI_enable_exit_profile_output                            
828bb000  __TI_frcmpyd_div                                           
828c41c4  __TI_ft_end                                                
ffffffff  __TI_pprof_out_hndl                                        
8289dac0  __TI_printfi                                               
ffffffff  __TI_prof_data_size                                        
ffffffff  __TI_prof_data_start                                       
828b9f80  __TI_readmsg                                               
828b9060  __TI_tls_init                                              
8288acf0  __TI_tmpnams                                               
828bb060  __TI_writemsg                                              
828b7d00  __TI_wrt_ok                                                
828008b8  __TRDR__                                                   
ffffffff  __binit__                                                  
828bbb40  __c6xabi_abort_msg                                         
828bbc00  __c6xabi_call_stub                                         
828abf60  __c6xabi_divd                                              
828b88e0  __c6xabi_divu                                              
828b3780  __c6xabi_divul                                             
828b19c0  __c6xabi_divull                                            
828bc660  __c6xabi_errno_addr                                        
828bbb80  __c6xabi_isinf                                             
828ba000  __c6xabi_llshl                                             
828bb0c0  __c6xabi_llshru                                            
828bc680  __c6xabi_pop_rts                                           
828bc6a0  __c6xabi_push_rts                                          
828b89a0  __c6xabi_remi                                              
828b9620  __c6xabi_remu                                              
ffffffff  __c_args__                                                 
828bbc00  __call_stub                                                
828b88e0  __divu                                                     
828c4390  __errno                                                    
828bc680  __pop_rts                                                  
828bc6a0  __push_rts                                                 
828b89a0  __remi                                                     
828b9620  __remu                                                     
828bbc40  _args_main                                                 
00000000  _argsize                                                   
828b6560  _auto_init_elf                                             
828b96c0  _c_int00                                                   
828c1668  _ctypes_                                                   
828c3f18  _device                                                    
828c3898  _ftable                                                    
828c3ffc  _lock                                                      
828bc6c0  _nop                                                       
828b8a60  _pthread_cleanupFxn                                        
828bc740  _register_lock                                             
828bc760  _register_synch_api                                        
828bc780  _register_unlock                                           
828bc7a0  _signbit                                                   
00800000  _stack                                                     
828c3bf8  _stream                                                    
828bb120  _subcull                                                   
828c40bc  _unlock                                                    
828bc7e0  abort                                                      
828b7160  atoi                                                       
ffffffff  binit                                                      
828b7de0  close                                                      
828aa7d4  configPhy                                                  
828aa6cc  configSerdes                                               
828bc800  copysign                                                   
828bc800  copysignl                                                  
828c42f0  cpsgmiiPortBaseAddr                                        
828bbd40  dspControlUserLEDs                                         
828c3890  emac_port_mode                                             
828c4390  errno                                                      
828ba200  evmI2CInit                                                 
828b7ec0  exit                                                       
828b7260  fflush                                                     
828b9800  finddevice                                                 
828b3b00  fputc                                                      
828afea0  fputs                                                      
828bbd00  free                                                       
828b48e0  frexp                                                      
828b48e0  frexpl                                                     
828b7360  fseek                                                      
828c381c  gDeviceEeprom0                                             
828c3854  gDeviceEeprom1                                             
828c37ac  gDeviceNand                                                
828c2750  gDeviceNandBBlist                                          
828c37e4  gDeviceNor                                                 
8288ae30  gI2cBlock                                                  
828b67a0  getdevice                                                  
828afe54  gpioClearFallingEdgeInterrupt                              
828afe20  gpioClearOutput                                            
828afdec  gpioClearRisingEdgeInterrupt                               
828afdd0  gpioDisableGlobalInterrupt                                 
828afdb8  gpioEnableGlobalInterrupt                                  
828afd58  gpioInit                                                   
828afd18  gpioReadInput                                              
828afca0  gpioSetDataBusDirection                                    
828afc20  gpioSetDirection                                           
828afbd8  gpioSetFallingEdgeInterrupt                                
828afba4  gpioSetOutput                                              
828afb60  gpioSetRisingEdgeInterrupt                                 
828aa688  hasTimeoutExpired                                          
828a86f4  i2cEepromMacRead                                           
828a85a4  i2cEepromMacWrite                                          
828a8498  i2cEepromRead                                              
828a83d4  i2cEepromWrite                                             
828a8120  i2cEepromWriteBlock                                        
828a82cc  i2cEepromWriteByteAddr                                     
828b4a80  ldexp                                                      
828b4a80  ldexpl                                                     
828bb240  lseek                                                      
828b7fa0  ltoa                                                       
828b1d30  main                                                       
828ba980  malloc                                                     
828bb2a0  memccpy                                                    
828bb300  memcmp                                                     
828b98a0  memcpy                                                     
828b8080  memset                                                     
828a5b4c  nandFlashBlockErase                                        
828a5ad8  nandInit                                                   
828af374  nor_erase                                                  
828af308  nor_get_details                                            
828af2a0  nor_init                                                   
828af224  nor_read                                                   
828af100  nor_write                                                  
828abad8  nval_del                                                   
828abcf0  nval_get                                                   
828abf40  nval_hasvalues                                             
828abdf8  nval_list                                                  
828abb94  nval_set                                                   
8288ae98  parmbuf                                                    
828a0da4  platform_blocknpage_to_offset                              
8289fc50  platform_delay                                             
828a1470  platform_delaycycles                                       
828a0818  platform_device_close                                      
828a13e0  platform_device_erase_block                                
828a12e8  platform_device_mark_block_bad                             
828a05f8  platform_device_open                                       
828a06f0  platform_device_read                                       
828a1274  platform_device_read_spare_data                            
828a0e38  platform_device_write                                      
828a0d30  platform_device_write_spare_data                           
828c4860  platform_errno                                             
828a0ba4  platform_external_memory_test                              
8289fe78  platform_get_coreid                                        
828a0b4c  platform_get_emac_info                                     
828a0908  platform_get_info                                          
828a05a8  platform_get_macaddr                                       
8289fd20  platform_get_phy_addr                                      
828a05a4  platform_get_switch_state                                  
828a02c8  platform_init                                              
828c4864  platform_init_return_code                                  
8289fe84  platform_internal_memory_test                              
8289fe4c  platform_led                                               
8289fd74  platform_offset_to_blocknpage                              
8289fd24  platform_phy_link_status                                   
8289fd04  platform_uart_init                                         
8289fc90  platform_uart_read                                         
8289fc28  platform_uart_set_baudrate                                 
8289fb14  platform_uart_write                                        
8289fb28  platform_write                                             
8289fb00  platform_write_configure                                   
828b8160  printf                                                     
828a5cd8  prog_pll1_values                                           
828b3b00  putc                                                       
828b1e40  qsort                                                      
828a5850  readNandPage                                               
828baa80  remove                                                     
828b4a80  scalbn                                                     
828b4a80  scalbnl                                                    
8289faa0  serial_num_isvalid                                         
828aa680  setTimeOut_ms                                              
828b3cc0  setvbuf                                                    
828ade60  spi_claim                                                  
828ade14  spi_cmd                                                    
828addd8  spi_cmd_read                                               
828adda0  spi_cmd_write                                              
828add30  spi_read_word                                              
828add14  spi_release                                                
828adcb4  spi_write_word                                             
828adb60  spi_xfer                                                   
828ba100  strcat                                                     
828bb360  strcmp                                                     
828bb3c0  strcpy                                                     
828bb420  strncmp                                                    
828ba180  strncpy                                                    
82894104  strnlen                                                    
828b1c00  taskFxn                                                    
828c4224  ti_sysbios_BIOS_Module__state__V                           
828bbf40  ti_sysbios_BIOS_RtsGateProxy_Handle__label__S              
828bc860  ti_sysbios_BIOS_RtsGateProxy_enter__E                      
828bc880  ti_sysbios_BIOS_RtsGateProxy_leave__E                      
828bcba0  ti_sysbios_BIOS_RtsGateProxy_query__E                      
828ba280  ti_sysbios_BIOS_atExitFunc__I                              
828bb480  ti_sysbios_BIOS_errorRaiseHook__I                          
828bbd80  ti_sysbios_BIOS_exitFunc__I                                
828bc8a0  ti_sysbios_BIOS_exit__E                                    
828bc8c0  ti_sysbios_BIOS_linkedWithIncorrectBootLibrary__E          
828bc8e0  ti_sysbios_BIOS_nullFunc__I                                
828ba300  ti_sysbios_BIOS_registerRTSLock__I                         
828bb4e0  ti_sysbios_BIOS_removeRTSLock__I                           
828bbdc0  ti_sysbios_BIOS_rtsLock__I                                 
828bbe00  ti_sysbios_BIOS_rtsUnlock__I                               
828bc900  ti_sysbios_BIOS_setThreadType__E                           
828bb540  ti_sysbios_BIOS_startFunc__I                               
828bc920  ti_sysbios_BIOS_start__E                                   
828bc940  ti_sysbios_family_c62_TaskSupport_Module__startupDone__S   
828bbcc0  ti_sysbios_family_c62_TaskSupport_buildTaskStack           
828bc960  ti_sysbios_family_c62_TaskSupport_checkStack__E            
828bc980  ti_sysbios_family_c62_TaskSupport_getStackAlignment__E     
828bc7c0  ti_sysbios_family_c62_TaskSupport_glue                     
828c23fc  ti_sysbios_family_c62_TaskSupport_stackAlignment__C        
828bb5a0  ti_sysbios_family_c62_TaskSupport_start__E                 
828ba080  ti_sysbios_family_c62_TaskSupport_swap__E                  
828c242c  ti_sysbios_family_c64p_Exception_E_exceptionMax__C         
828c176a  ti_sysbios_family_c64p_Exception_Module__id__C             
828c4194  ti_sysbios_family_c64p_Exception_Module__state__V          
828b9940  ti_sysbios_family_c64p_Exception_Module_startup__E         
828b5440  ti_sysbios_family_c64p_Exception_dispatch__E               
828c2468  ti_sysbios_family_c64p_Exception_exceptionHook__C          
828c246c  ti_sysbios_family_c64p_Exception_externalHook__C           
828a90c0  ti_sysbios_family_c64p_Exception_handler__I                
828b2080  ti_sysbios_family_c64p_Exception_internalHandler__I        
828c2470  ti_sysbios_family_c64p_Exception_internalHook__C           
828c2474  ti_sysbios_family_c64p_Exception_nmiHook__C                
828c2466  ti_sysbios_family_c64p_Exception_useInternalBuffer__C      
828c4400  ti_sysbios_family_c64p_Hwi0                                
828c2478  ti_sysbios_family_c64p_Hwi_INTRMUX1Address__C              
828c247c  ti_sysbios_family_c64p_Hwi_LD_end__C                       
828c2480  ti_sysbios_family_c64p_Hwi_LM_begin__C                     
828c2484  ti_sysbios_family_c64p_Hwi_Module__diagsEnabled__C         
828c2488  ti_sysbios_family_c64p_Hwi_Module__diagsIncluded__C        
828c248c  ti_sysbios_family_c64p_Hwi_Module__diagsMask__C            
828c26bc  ti_sysbios_family_c64p_Hwi_Module__id__C                   
828c26be  ti_sysbios_family_c64p_Hwi_Module__loggerDefined__C        
828c2490  ti_sysbios_family_c64p_Hwi_Module__loggerFxn1__C           
828c2494  ti_sysbios_family_c64p_Hwi_Module__loggerFxn8__C           
828c2498  ti_sysbios_family_c64p_Hwi_Module__loggerObj__C            
828bc9a0  ti_sysbios_family_c64p_Hwi_Module__startupDone__F          
828bc9a0  ti_sysbios_family_c64p_Hwi_Module__startupDone__S          
828c3f90  ti_sysbios_family_c64p_Hwi_Module__state__V                
828b5740  ti_sysbios_family_c64p_Hwi_Module_startup__E               
828c42a8  ti_sysbios_family_c64p_Hwi_Object__table__V                
828bc9c0  ti_sysbios_family_c64p_Hwi_clearInterrupt__E               
828bbe40  ti_sysbios_family_c64p_Hwi_disableInterrupt__E             
828b2fe0  ti_sysbios_family_c64p_Hwi_dispatchAlways                  
828b99e0  ti_sysbios_family_c64p_Hwi_dispatchC__I                    
828b12a0  ti_sysbios_family_c64p_Hwi_dispatchCore__I                 
828bbe80  ti_sysbios_family_c64p_Hwi_enableInterrupt__E              
828b9a80  ti_sysbios_family_c64p_Hwi_getStackInfo__E                 
828c4400  ti_sysbios_family_c64p_Hwi_int0                            
828c4420  ti_sysbios_family_c64p_Hwi_int1                            
828c4540  ti_sysbios_family_c64p_Hwi_int10                           
828c4560  ti_sysbios_family_c64p_Hwi_int11                           
828c4580  ti_sysbios_family_c64p_Hwi_int12                           
828c45a0  ti_sysbios_family_c64p_Hwi_int13                           
828c45c0  ti_sysbios_family_c64p_Hwi_int14                           
828c45e0  ti_sysbios_family_c64p_Hwi_int15                           
828c4440  ti_sysbios_family_c64p_Hwi_int2                            
828c4460  ti_sysbios_family_c64p_Hwi_int3                            
828c4480  ti_sysbios_family_c64p_Hwi_int4                            
828c44a0  ti_sysbios_family_c64p_Hwi_int5                            
828c44c0  ti_sysbios_family_c64p_Hwi_int6                            
828c44e0  ti_sysbios_family_c64p_Hwi_int7                            
828c4500  ti_sysbios_family_c64p_Hwi_int8                            
828c4520  ti_sysbios_family_c64p_Hwi_int9                            
828bc9e0  ti_sysbios_family_c64p_Hwi_startup__E                      
828bb180  ti_sysbios_family_c64p_Hwi_switchAndDispatch__I            
828bca00  ti_sysbios_family_c64p_Hwi_switchFromBootStack__E          
828bca20  ti_sysbios_family_c64p_TimestampProvider_Module_startup__E 
828bca40  ti_sysbios_family_c64p_TimestampProvider_get64__E          
828bca60  ti_sysbios_family_c64p_tci6488_TimerSupport_enable__E      
828c249c  ti_sysbios_family_c66_Cache_E_invalidL1CacheSize__C        
828c24a0  ti_sysbios_family_c66_Cache_E_invalidL2CacheSize__C        
828c26c0  ti_sysbios_family_c66_Cache_Module__id__C                  
828bb600  ti_sysbios_family_c66_Cache_Module_startup__E              
828bca80  ti_sysbios_family_c66_Cache_RTSSynchInv__I                 
828bcaa0  ti_sysbios_family_c66_Cache_RTSSynchWbInv__I               
828bcac0  ti_sysbios_family_c66_Cache_RTSSynchWb__I                  
828c24a4  ti_sysbios_family_c66_Cache_atomicBlockSize__C             
828b4c20  ti_sysbios_family_c66_Cache_block__I                       
828b5b60  ti_sysbios_family_c66_Cache_getL1DInitSize__I              
828b5ca0  ti_sysbios_family_c66_Cache_getL1PInitSize__I              
828b4dc0  ti_sysbios_family_c66_Cache_getL2InitSize__I               
00008000  ti_sysbios_family_c66_Cache_l1dSize                        
00008000  ti_sysbios_family_c66_Cache_l1pSize                        
00000000  ti_sysbios_family_c66_Cache_l2Size                         
828c0bb8  ti_sysbios_family_c66_Cache_marvalues__C                   
828c26c2  ti_sysbios_family_c66_Cache_registerRTSSynch__C            
828b68c0  ti_sysbios_family_c66_Cache_startup__I                     
828bcae0  ti_sysbios_family_c66_Cache_wait__E                        
828bb1e0  ti_sysbios_family_xxx_Hwi_switchAndRunFunc                 
828bbec0  ti_sysbios_gates_GateHwi_Handle__label__S                  
828bcb00  ti_sysbios_gates_GateHwi_Instance_init__E                  
828c21d4  ti_sysbios_gates_GateHwi_Module__FXNS__C                   
828c4328  ti_sysbios_gates_GateHwi_Module__root__V                   
828c2264  ti_sysbios_gates_GateHwi_Object__DESC__C                   
828c23b4  ti_sysbios_gates_GateHwi_Object__PARAMS__C                 
828ba380  ti_sysbios_gates_GateHwi_Object__create__S                 
828bbf00  ti_sysbios_gates_GateHwi_Object__delete__S                 
828c4398  ti_sysbios_gates_GateHwi_Object__table__V                  
828bcb20  ti_sysbios_gates_GateHwi_enter__E                          
828bcb40  ti_sysbios_gates_GateHwi_leave__E                          
828bcb60  ti_sysbios_gates_GateHwi_query__E                          
828c24a8  ti_sysbios_gates_GateMutex_A_badContext__C                 
828bbf40  ti_sysbios_gates_GateMutex_Handle__label__S                
828c24ac  ti_sysbios_gates_GateMutex_Instance_State_sem__O           
828bcb80  ti_sysbios_gates_GateMutex_Instance_finalize__E            
828bbf80  ti_sysbios_gates_GateMutex_Instance_init__E                
828c21f8  ti_sysbios_gates_GateMutex_Module__FXNS__C                 
828c24b0  ti_sysbios_gates_GateMutex_Module__diagsEnabled__C         
828c24b4  ti_sysbios_gates_GateMutex_Module__diagsIncluded__C        
828c24b8  ti_sysbios_gates_GateMutex_Module__diagsMask__C            
828c26c4  ti_sysbios_gates_GateMutex_Module__id__C                   
828c4330  ti_sysbios_gates_GateMutex_Module__root__V                 
828c2284  ti_sysbios_gates_GateMutex_Object__DESC__C                 
828c23cc  ti_sysbios_gates_GateMutex_Object__PARAMS__C               
828ba400  ti_sysbios_gates_GateMutex_Object__create__S               
828bb660  ti_sysbios_gates_GateMutex_Object__delete__S               
828c4000  ti_sysbios_gates_GateMutex_Object__table__V                
828b33c0  ti_sysbios_gates_GateMutex_enter__E                        
828bbfc0  ti_sysbios_gates_GateMutex_leave__E                        
828bcba0  ti_sysbios_gates_GateMutex_query__E                        
828c24bc  ti_sysbios_hal_Hwi_E_stackOverflow__C                      
828bc9a0  ti_sysbios_hal_Hwi_HwiProxy_Module__startupDone__S         
828bc9c0  ti_sysbios_hal_Hwi_HwiProxy_clearInterrupt__E              
828bbe40  ti_sysbios_hal_Hwi_HwiProxy_disableInterrupt__E            
828bbe80  ti_sysbios_hal_Hwi_HwiProxy_enableInterrupt__E             
828b9a80  ti_sysbios_hal_Hwi_HwiProxy_getStackInfo__E                
828bc9e0  ti_sysbios_hal_Hwi_HwiProxy_startup__E                     
828bca00  ti_sysbios_hal_Hwi_HwiProxy_switchFromBootStack__E         
828c26c6  ti_sysbios_hal_Hwi_Module__id__C                           
828bcbc0  ti_sysbios_hal_Hwi_Module_startup__E                       
828c4338  ti_sysbios_hal_Hwi_Object__table__V                        
828ba480  ti_sysbios_hal_Hwi_checkStack                              
828bc9c0  ti_sysbios_hal_Hwi_clearInterrupt__E                       
828bbe40  ti_sysbios_hal_Hwi_disableInterrupt__E                     
828bbe80  ti_sysbios_hal_Hwi_enableInterrupt__E                      
828b9a80  ti_sysbios_hal_Hwi_getStackInfo__E                         
828ba500  ti_sysbios_hal_Hwi_initStack                               
828bc9e0  ti_sysbios_hal_Hwi_startup__E                              
828bca00  ti_sysbios_hal_Hwi_switchFromBootStack__E                  
828c24c0  ti_sysbios_hal_SecondsClock_Module_State_clock__O          
828c4158  ti_sysbios_hal_SecondsClock_Module__state__V               
828b69e0  ti_sysbios_hal_SecondsClock_Module_startup__E              
828bcbe0  ti_sysbios_hal_SecondsClock_get__E                         
828b8be0  ti_sysbios_hal_SecondsClock_increment__I                   
828bcbe0  ti_sysbios_hal_Seconds_SecondsProxy_get__E                 
828bcbe0  ti_sysbios_hal_Seconds_get__E                              
828c24c4  ti_sysbios_heaps_HeapMem_A_align__C                        
828c24c8  ti_sysbios_heaps_HeapMem_A_heapSize__C                     
828c24cc  ti_sysbios_heaps_HeapMem_A_invalidFree__C                  
828c24d0  ti_sysbios_heaps_HeapMem_A_zeroBlock__C                    
828c24d4  ti_sysbios_heaps_HeapMem_E_memory__C                       
828bc000  ti_sysbios_heaps_HeapMem_Handle__label__S                  
82800800  ti_sysbios_heaps_HeapMem_Instance_State_0_buf__A           
828b04e0  ti_sysbios_heaps_HeapMem_Instance_init__E                  
828bbf40  ti_sysbios_heaps_HeapMem_Module_GateProxy_Handle__label__S 
828bcc00  ti_sysbios_heaps_HeapMem_Module_GateProxy_enter__E         
828bcc20  ti_sysbios_heaps_HeapMem_Module_GateProxy_leave__E         
828bcba0  ti_sysbios_heaps_HeapMem_Module_GateProxy_query__E         
828c2160  ti_sysbios_heaps_HeapMem_Module__FXNS__C                   
828c24d8  ti_sysbios_heaps_HeapMem_Module__diagsEnabled__C           
828c24dc  ti_sysbios_heaps_HeapMem_Module__diagsIncluded__C          
828c24e0  ti_sysbios_heaps_HeapMem_Module__diagsMask__C              
828c24e4  ti_sysbios_heaps_HeapMem_Module__gateObj__C                
828c26c8  ti_sysbios_heaps_HeapMem_Module__id__C                     
828c4340  ti_sysbios_heaps_HeapMem_Module__root__V                   
828c22a4  ti_sysbios_heaps_HeapMem_Object__DESC__C                   
828c221c  ti_sysbios_heaps_HeapMem_Object__PARAMS__C                 
828c24e8  ti_sysbios_heaps_HeapMem_Object__count__C                  
828ba580  ti_sysbios_heaps_HeapMem_Object__create__S                 
828bc040  ti_sysbios_heaps_HeapMem_Object__delete__S                 
828bc080  ti_sysbios_heaps_HeapMem_Object__get__S                    
828c42c0  ti_sysbios_heaps_HeapMem_Object__table__V                  
828ab320  ti_sysbios_heaps_HeapMem_allocUnprotected__E               
828b8240  ti_sysbios_heaps_HeapMem_alloc__E                          
828acb40  ti_sysbios_heaps_HeapMem_freeUnprotected__E                
828bb6c0  ti_sysbios_heaps_HeapMem_free__E                           
828b8ca0  ti_sysbios_heaps_HeapMem_getStats__E                       
828ba600  ti_sysbios_heaps_HeapMem_init__I                           
828bcc40  ti_sysbios_heaps_HeapMem_isBlocking__E                     
828c24ec  ti_sysbios_heaps_HeapMem_reqAlign__C                       
828c24f0  ti_sysbios_knl_Clock_LM_begin__C                           
828c24f4  ti_sysbios_knl_Clock_LM_tick__C                            
828c24f8  ti_sysbios_knl_Clock_LW_delayed__C                         
828c24fc  ti_sysbios_knl_Clock_Module_State_clockQ__O                
828c2500  ti_sysbios_knl_Clock_Module__diagsEnabled__C               
828c2504  ti_sysbios_knl_Clock_Module__diagsIncluded__C              
828c2508  ti_sysbios_knl_Clock_Module__diagsMask__C                  
828c26ca  ti_sysbios_knl_Clock_Module__id__C                         
828c26cc  ti_sysbios_knl_Clock_Module__loggerDefined__C              
828c250c  ti_sysbios_knl_Clock_Module__loggerFxn1__C                 
828c2510  ti_sysbios_knl_Clock_Module__loggerFxn2__C                 
828c2514  ti_sysbios_knl_Clock_Module__loggerObj__C                  
828bcc60  ti_sysbios_knl_Clock_Module__startupDone__F                
828bcc60  ti_sysbios_knl_Clock_Module__startupDone__S                
828c41f8  ti_sysbios_knl_Clock_Module__state__V                      
828bb720  ti_sysbios_knl_Clock_Module_startup__E                     
828bce60  ti_sysbios_knl_Clock_TimerProxy_Module__startupDone__S     
828bcc80  ti_sysbios_knl_Clock_TimerProxy_getFreq__E                 
828bcca0  ti_sysbios_knl_Clock_TimerProxy_getMaxTicks__E             
828bccc0  ti_sysbios_knl_Clock_TimerProxy_getPeriod__E               
828b8400  ti_sysbios_knl_Clock_TimerProxy_startup__E                 
828ba680  ti_sysbios_knl_Clock_doTick__I                             
828b8d60  ti_sysbios_knl_Clock_logTick__E                            
828b6b00  ti_sysbios_knl_Clock_start__E                              
828c2518  ti_sysbios_knl_Clock_tickPeriod__C                         
828b0a80  ti_sysbios_knl_Clock_workFunc__E                           
828c2430  ti_sysbios_knl_Idle_funcList__A                            
828c2438  ti_sysbios_knl_Idle_funcList__C                            
828bcce0  ti_sysbios_knl_Idle_loop__E                                
828ba700  ti_sysbios_knl_Idle_run__E                                 
828c251c  ti_sysbios_knl_Mailbox_Instance_State_freeQue__O           
828b7460  ti_sysbios_knl_Mailbox_Module_startup__E                   
828c2520  ti_sysbios_knl_Mailbox_Object__count__C                    
828bcd00  ti_sysbios_knl_Mailbox_Object__get__S                      
828c2524  ti_sysbios_knl_Mailbox_maxTypeAlign__C                     
828bcd20  ti_sysbios_knl_Queue_Instance_init__E                      
828c4348  ti_sysbios_knl_Queue_Module__root__V                       
828c22c4  ti_sysbios_knl_Queue_Object__DESC__C                       
828c23e4  ti_sysbios_knl_Queue_Object__PARAMS__C                     
828bcd40  ti_sysbios_knl_Queue_Object__get__S                        
828bb780  ti_sysbios_knl_Queue_construct                             
828bcd60  ti_sysbios_knl_Queue_destruct                              
828bcd80  ti_sysbios_knl_Queue_empty__E                              
828c2528  ti_sysbios_knl_Semaphore_A_badContext__C                   
828c252c  ti_sysbios_knl_Semaphore_A_noEvents__C                     
828c2530  ti_sysbios_knl_Semaphore_A_overflow__C                     
828c2534  ti_sysbios_knl_Semaphore_A_pendTaskDisabled__C             
828c2538  ti_sysbios_knl_Semaphore_Instance_State_pendQ__O           
828bcda0  ti_sysbios_knl_Semaphore_Instance_finalize__E              
828b5de0  ti_sysbios_knl_Semaphore_Instance_init__E                  
828c253c  ti_sysbios_knl_Semaphore_LM_pend__C                        
828c2540  ti_sysbios_knl_Semaphore_LM_post__C                        
828c2544  ti_sysbios_knl_Semaphore_Module__diagsEnabled__C           
828c2548  ti_sysbios_knl_Semaphore_Module__diagsIncluded__C          
828c254c  ti_sysbios_knl_Semaphore_Module__diagsMask__C              
828c26ce  ti_sysbios_knl_Semaphore_Module__id__C                     
828c26d0  ti_sysbios_knl_Semaphore_Module__loggerDefined__C          
828c2550  ti_sysbios_knl_Semaphore_Module__loggerFxn2__C             
828c2554  ti_sysbios_knl_Semaphore_Module__loggerFxn4__C             
828c2558  ti_sysbios_knl_Semaphore_Module__loggerObj__C              
828c4350  ti_sysbios_knl_Semaphore_Module__root__V                   
828c22e4  ti_sysbios_knl_Semaphore_Object__DESC__C                   
828c2240  ti_sysbios_knl_Semaphore_Object__PARAMS__C                 
828bb7e0  ti_sysbios_knl_Semaphore_construct                         
828bc0c0  ti_sysbios_knl_Semaphore_destruct                          
828ba780  ti_sysbios_knl_Semaphore_pendTimeout__I                    
828a9840  ti_sysbios_knl_Semaphore_pend__E                           
828b1500  ti_sysbios_knl_Semaphore_post__E                           
828c255c  ti_sysbios_knl_Swi_LD_end__C                               
828c2560  ti_sysbios_knl_Swi_LM_begin__C                             
828c2564  ti_sysbios_knl_Swi_LM_post__C                              
828c3c98  ti_sysbios_knl_Swi_Module_State_0_readyQ__A                
828c2568  ti_sysbios_knl_Swi_Module__diagsEnabled__C                 
828c256c  ti_sysbios_knl_Swi_Module__diagsIncluded__C                
828c2570  ti_sysbios_knl_Swi_Module__diagsMask__C                    
828c26d2  ti_sysbios_knl_Swi_Module__id__C                           
828c26d4  ti_sysbios_knl_Swi_Module__loggerDefined__C                
828c2574  ti_sysbios_knl_Swi_Module__loggerFxn1__C                   
828c2578  ti_sysbios_knl_Swi_Module__loggerFxn4__C                   
828c257c  ti_sysbios_knl_Swi_Module__loggerObj__C                    
828c428c  ti_sysbios_knl_Swi_Module__state__V                        
828bb840  ti_sysbios_knl_Swi_Module_startup__E                       
828c2580  ti_sysbios_knl_Swi_Object__count__C                        
828bc100  ti_sysbios_knl_Swi_Object__get__S                          
828c41c8  ti_sysbios_knl_Swi_Object__table__V                        
828bcdc0  ti_sysbios_knl_Swi_disable__E                              
828b58a0  ti_sysbios_knl_Swi_post__E                                 
828b6c20  ti_sysbios_knl_Swi_restoreHwi__E                           
828b8320  ti_sysbios_knl_Swi_runLoop__I                              
828b2980  ti_sysbios_knl_Swi_run__I                                  
828b8e20  ti_sysbios_knl_Swi_schedule__I                             
828ba800  ti_sysbios_knl_Swi_startup__E                              
828c2584  ti_sysbios_knl_Task_A_badPriority__C                       
828c2588  ti_sysbios_knl_Task_A_badTaskState__C                      
828c258c  ti_sysbios_knl_Task_A_badThreadType__C                     
828c2590  ti_sysbios_knl_Task_A_badTimeout__C                        
828c2594  ti_sysbios_knl_Task_A_noPendElem__C                        
828c2598  ti_sysbios_knl_Task_A_sleepTaskDisabled__C                 
828c259c  ti_sysbios_knl_Task_E_spOutOfBounds__C                     
828c25a0  ti_sysbios_knl_Task_E_stackOverflow__C                     
8288aea8  ti_sysbios_knl_Task_Instance_State_0_hookEnv__A            
82880800  ti_sysbios_knl_Task_Instance_State_0_stack__A              
828ad100  ti_sysbios_knl_Task_Instance_finalize__E                   
828ae860  ti_sysbios_knl_Task_Instance_init__E                       
828c25a4  ti_sysbios_knl_Task_LD_block__C                            
828c25a8  ti_sysbios_knl_Task_LD_exit__C                             
828c25ac  ti_sysbios_knl_Task_LD_ready__C                            
828c25b0  ti_sysbios_knl_Task_LM_sleep__C                            
828c25b4  ti_sysbios_knl_Task_LM_switch__C                           
828c43a0  ti_sysbios_knl_Task_Module_State_0_idleTask__A             
828c3d18  ti_sysbios_knl_Task_Module_State_0_readyQ__A               
828c25b8  ti_sysbios_knl_Task_Module_State_inactiveQ__O              
828c25bc  ti_sysbios_knl_Task_Module__diagsEnabled__C                
828c25c0  ti_sysbios_knl_Task_Module__diagsIncluded__C               
828c25c4  ti_sysbios_knl_Task_Module__diagsMask__C                   
828c26d6  ti_sysbios_knl_Task_Module__id__C                          
828c26d8  ti_sysbios_knl_Task_Module__loggerDefined__C               
828c25c8  ti_sysbios_knl_Task_Module__loggerFxn2__C                  
828c25cc  ti_sysbios_knl_Task_Module__loggerFxn4__C                  
828c25d0  ti_sysbios_knl_Task_Module__loggerObj__C                   
828c4358  ti_sysbios_knl_Task_Module__root__V                        
828c4110  ti_sysbios_knl_Task_Module__state__V                       
828b5f20  ti_sysbios_knl_Task_Module_startup__E                      
828c2304  ti_sysbios_knl_Task_Object__DESC__C                        
828c1fbc  ti_sysbios_knl_Task_Object__PARAMS__C                      
828c25d4  ti_sysbios_knl_Task_Object__count__C                       
828bb8a0  ti_sysbios_knl_Task_Object__delete__S                      
828bc140  ti_sysbios_knl_Task_Object__get__S                         
828c25d8  ti_sysbios_knl_Task_Object__heap__C                        
828c4060  ti_sysbios_knl_Task_Object__table__V                       
828bc940  ti_sysbios_knl_Task_SupportProxy_Module__startupDone__S    
828bc960  ti_sysbios_knl_Task_SupportProxy_checkStack__E             
828bc980  ti_sysbios_knl_Task_SupportProxy_getStackAlignment__E      
828bb5a0  ti_sysbios_knl_Task_SupportProxy_start__E                  
828ba080  ti_sysbios_knl_Task_SupportProxy_swap__E                   
828c25dc  ti_sysbios_knl_Task_allBlockedFunc__C                      
828b8ee0  ti_sysbios_knl_Task_allBlockedFunction__I                  
828b6060  ti_sysbios_knl_Task_blockI__E                              
828b3e80  ti_sysbios_knl_Task_checkStacks__E                         
828b8fa0  ti_sysbios_knl_Task_create                                 
828c25e0  ti_sysbios_knl_Task_defaultStackHeap__C                    
828c25e4  ti_sysbios_knl_Task_defaultStackSize__C                    
828bcde0  ti_sysbios_knl_Task_delete                                 
828bce00  ti_sysbios_knl_Task_disable__E                             
828bb900  ti_sysbios_knl_Task_enter__I                               
828b4f60  ti_sysbios_knl_Task_exit__E                                
828c2400  ti_sysbios_knl_Task_hooks__A                               
828c2440  ti_sysbios_knl_Task_hooks__C                               
828c25e8  ti_sysbios_knl_Task_numConstructedTasks__C                 
828b22c0  ti_sysbios_knl_Task_postInit__I                            
828ba880  ti_sysbios_knl_Task_processVitalTaskFlag__I                
828ba900  ti_sysbios_knl_Task_restore__E                             
828b5100  ti_sysbios_knl_Task_schedule__I                            
828bc180  ti_sysbios_knl_Task_sleepTimeout__I                        
828adfc0  ti_sysbios_knl_Task_sleep__E                               
828b55c0  ti_sysbios_knl_Task_startCore__E                           
828bce20  ti_sysbios_knl_Task_startup__E                             
828b7560  ti_sysbios_knl_Task_unblockI__E                            
828c4394  ti_sysbios_rts_ti_ReentSupport_Module__state__V            
828bce40  ti_sysbios_rts_ti_ReentSupport_taskRegHook__I              
828c25ec  ti_sysbios_timers_timer64_Timer_A_notAvailable__C          
828c25f0  ti_sysbios_timers_timer64_Timer_E_cannotSupport__C         
828c3a78  ti_sysbios_timers_timer64_Timer_Module_State_0_device__A   
828c3d98  ti_sysbios_timers_timer64_Timer_Module_State_0_gctrl__A    
828c3e18  ti_sysbios_timers_timer64_Timer_Module_State_0_handles__A  
828c3e98  ti_sysbios_timers_timer64_Timer_Module_State_0_intFreqs__A 
828c25f4  ti_sysbios_timers_timer64_Timer_Module__diagsEnabled__C    
828c25f8  ti_sysbios_timers_timer64_Timer_Module__diagsIncluded__C   
828c25fc  ti_sysbios_timers_timer64_Timer_Module__diagsMask__C       
828c26da  ti_sysbios_timers_timer64_Timer_Module__id__C              
828bce60  ti_sysbios_timers_timer64_Timer_Module__startupDone__F     
828bce60  ti_sysbios_timers_timer64_Timer_Module__startupDone__S     
828c42d8  ti_sysbios_timers_timer64_Timer_Module__state__V           
828a9f80  ti_sysbios_timers_timer64_Timer_Module_startup__E          
828c40c0  ti_sysbios_timers_timer64_Timer_Object__table__V           
828bca60  ti_sysbios_timers_timer64_Timer_TimerSupportProxy_enable__E
828c2600  ti_sysbios_timers_timer64_Timer_anyMaskHigh__C             
828c2604  ti_sysbios_timers_timer64_Timer_anyMask__C                 
828b01c0  ti_sysbios_timers_timer64_Timer_deviceConfig__I            
828c2608  ti_sysbios_timers_timer64_Timer_freqDivisor__C             
828b4040  ti_sysbios_timers_timer64_Timer_getFreq__E                 
828bce80  ti_sysbios_timers_timer64_Timer_getMaxTicks__E             
828baa00  ti_sysbios_timers_timer64_Timer_getPeriod__E               
828b7660  ti_sysbios_timers_timer64_Timer_initDevice__I              
828c1769  ti_sysbios_timers_timer64_Timer_localTimerBaseId__C        
828c260c  ti_sysbios_timers_timer64_Timer_numLocalTimers__C          
828c2610  ti_sysbios_timers_timer64_Timer_numTimerDevices__C         
828b2ba0  ti_sysbios_timers_timer64_Timer_setPeriodMicroSecs__E      
828b4200  ti_sysbios_timers_timer64_Timer_start__E                   
828c26dc  ti_sysbios_timers_timer64_Timer_startupNeeded__C           
828b8400  ti_sysbios_timers_timer64_Timer_startup__E                 
828b9b20  ti_sysbios_timers_timer64_Timer_stop__E                    
828c26de  ti_sysbios_timers_timer64_Timer_useTimer64pRegMap__C       
828bc1c0  time                                                       
828baa80  unlink                                                     
828bc200  vsprintf                                                   
828bc240  wcslen                                                     
828bb960  write                                                      
828a54e8  writeNandPage                                              
828c2614  xdc_runtime_Assert_E_assertFailed__C                       
828b9120  xdc_runtime_Assert_raise__I                                
828c2618  xdc_runtime_Core_A_initializedParams__C                    
828c261c  xdc_runtime_Core_Module__diagsEnabled__C                   
828c2620  xdc_runtime_Core_Module__diagsIncluded__C                  
828c2624  xdc_runtime_Core_Module__diagsMask__C                      
828c26e0  xdc_runtime_Core_Module__id__C                             
828bab00  xdc_runtime_Core_assignLabel__I                            
828b9bc0  xdc_runtime_Core_assignParams__I                           
828b52a0  xdc_runtime_Core_constructObject__I                        
828b2500  xdc_runtime_Core_createObject__I                           
828b61a0  xdc_runtime_Core_deleteObject__I                           
828c2628  xdc_runtime_Error_E_memory__C                              
828c426c  xdc_runtime_Error_IgnoreBlock                              
828c262c  xdc_runtime_Error_Module__diagsEnabled__C                  
828c2630  xdc_runtime_Error_Module__diagsIncluded__C                 
828c2634  xdc_runtime_Error_Module__diagsMask__C                     
828c26e2  xdc_runtime_Error_Module__loggerDefined__C                 
828c2638  xdc_runtime_Error_Module__loggerFxn8__C                    
828c263c  xdc_runtime_Error_Module__loggerObj__C                     
828c438e  xdc_runtime_Error_Module__state__V                         
828bc280  xdc_runtime_Error_check__E                                 
828bcea0  xdc_runtime_Error_getSite__E                               
828bc2c0  xdc_runtime_Error_init__E                                  
828c26e4  xdc_runtime_Error_maxDepth__C                              
828b2dc0  xdc_runtime_Error_policyDefault__E                         
828c2640  xdc_runtime_Error_policyFxn__C                             
828c2644  xdc_runtime_Error_policy__C                                
828b7760  xdc_runtime_Error_print__E                                 
828c2648  xdc_runtime_Error_raiseHook__C                             
828bcec0  xdc_runtime_Error_raiseX__E                                
828b91e0  xdc_runtime_Error_setX__E                                  
828bcee0  xdc_runtime_Gate_enterSystem__E                            
828bcf00  xdc_runtime_Gate_leaveSystem__E                            
828c264c  xdc_runtime_IFilterLogger_Interface__BASE__C               
828c2650  xdc_runtime_IGateProvider_Interface__BASE__C               
828c2654  xdc_runtime_IHeap_Interface__BASE__C                       
828c2658  xdc_runtime_ILogger_Interface__BASE__C                     
828c265c  xdc_runtime_IModule_Interface__BASE__C                     
828c2660  xdc_runtime_Log_L_error__C                                 
828c2664  xdc_runtime_LoggerBuf_E_badLevel__C                        
828bc300  xdc_runtime_LoggerBuf_Handle__label__S                     
8288a960  xdc_runtime_LoggerBuf_Instance_State_0_entryArr__A         
828bc340  xdc_runtime_LoggerBuf_Instance_finalize__E                 
828bab80  xdc_runtime_LoggerBuf_Instance_init__E                     
828bbec0  xdc_runtime_LoggerBuf_Module_GateProxy_Handle__label__S    
828bcf60  xdc_runtime_LoggerBuf_Module_GateProxy_enter__E            
828bcf80  xdc_runtime_LoggerBuf_Module_GateProxy_leave__E            
828bcb60  xdc_runtime_LoggerBuf_Module_GateProxy_query__E            
828c2040  xdc_runtime_LoggerBuf_Module__FXNS__C                      
828c2668  xdc_runtime_LoggerBuf_Module__gateObj__C                   
828c26e6  xdc_runtime_LoggerBuf_Module__id__C                        
828c4360  xdc_runtime_LoggerBuf_Module__root__V                      
828c4388  xdc_runtime_LoggerBuf_Module__state__V                     
828bac00  xdc_runtime_LoggerBuf_Module_startup__E                    
828c2324  xdc_runtime_LoggerBuf_Object__DESC__C                      
828c2188  xdc_runtime_LoggerBuf_Object__PARAMS__C                    
828c266c  xdc_runtime_LoggerBuf_Object__count__C                     
828b92a0  xdc_runtime_LoggerBuf_Object__create__S                    
828bb9c0  xdc_runtime_LoggerBuf_Object__delete__S                    
828bc380  xdc_runtime_LoggerBuf_Object__get__S                       
828c4248  xdc_runtime_LoggerBuf_Object__table__V                     
828bca40  xdc_runtime_LoggerBuf_TimestampProxy_get64__E              
828bcfa0  xdc_runtime_LoggerBuf_disable__E                           
828bcfc0  xdc_runtime_LoggerBuf_enable__E                            
828c26e8  xdc_runtime_LoggerBuf_filterByLevel__C                     
828bac80  xdc_runtime_LoggerBuf_filterOutEvent__I                    
828b6d40  xdc_runtime_LoggerBuf_getFilterLevel__E                    
828bba20  xdc_runtime_LoggerBuf_reset__E                             
828b62e0  xdc_runtime_LoggerBuf_setFilterLevel__E                    
828c2670  xdc_runtime_LoggerBuf_statusLogger__C                      
828bc3c0  xdc_runtime_LoggerBuf_write0__E                            
828bc400  xdc_runtime_LoggerBuf_write1__E                            
828bc440  xdc_runtime_LoggerBuf_write2__E                            
828b43c0  xdc_runtime_LoggerBuf_write4__E                            
828b0d40  xdc_runtime_LoggerBuf_write8__E                            
828bbec0  xdc_runtime_Main_Module_GateProxy_Handle__label__S         
828bcb60  xdc_runtime_Main_Module_GateProxy_query__E                 
828bc000  xdc_runtime_Memory_HeapProxy_Handle__label__S              
828bcf20  xdc_runtime_Memory_HeapProxy_alloc__E                      
828bcf40  xdc_runtime_Memory_HeapProxy_free__E                       
828c26ea  xdc_runtime_Memory_Module__id__C                           
828c439c  xdc_runtime_Memory_Module__state__V                        
828b7860  xdc_runtime_Memory_alloc__E                                
828bcfe0  xdc_runtime_Memory_calloc__E                               
828c2674  xdc_runtime_Memory_defaultHeapInstance__C                  
828bd000  xdc_runtime_Memory_free__E                                 
828bd020  xdc_runtime_Memory_getMaxDefaultTypeAlign__E               
828bba80  xdc_runtime_Memory_valloc__E                               
828c4368  xdc_runtime_Registry_Module__state__V                      
828bc480  xdc_runtime_Registry_findById__E                           
828c4370  xdc_runtime_Startup_Module__state__V                       
00000001  xdc_runtime_Startup__EXECFXN__C                            
00000001  xdc_runtime_Startup__RESETFXN__C                           
828c2678  xdc_runtime_Startup_execImpl__C                            
828b7960  xdc_runtime_Startup_exec__E                                
828bd040  xdc_runtime_Startup_exec__I                                
828c2448  xdc_runtime_Startup_firstFxns__A                           
828c2450  xdc_runtime_Startup_firstFxns__C                           
828c2458  xdc_runtime_Startup_lastFxns__C                            
828c267c  xdc_runtime_Startup_maxPasses__C                           
828b68c0  xdc_runtime_Startup_reset__I                               
828bd060  xdc_runtime_Startup_rtsDone__E                             
828c2380  xdc_runtime_Startup_sfxnRts__A                             
828c2680  xdc_runtime_Startup_sfxnRts__C                             
828c2080  xdc_runtime_Startup_sfxnTab__A                             
828c2684  xdc_runtime_Startup_sfxnTab__C                             
828b1760  xdc_runtime_Startup_startMods__I                           
82888320  xdc_runtime_SysMin_Module_State_0_outbuf__A                
828c431c  xdc_runtime_SysMin_Module__state__V                        
828bc4c0  xdc_runtime_SysMin_Module_startup__E                       
828b9360  xdc_runtime_SysMin_abort__E                                
828c2688  xdc_runtime_SysMin_bufSize__C                              
828bc500  xdc_runtime_SysMin_exit__E                                 
828c26ec  xdc_runtime_SysMin_flushAtExit__C                          
828b9420  xdc_runtime_SysMin_flush__E                                
828c268c  xdc_runtime_SysMin_outputFunc__C                           
828bad00  xdc_runtime_SysMin_output__I                               
828b9c60  xdc_runtime_SysMin_putch__E                                
828bd080  xdc_runtime_SysMin_ready__E                                
828bbec0  xdc_runtime_System_Module_GateProxy_Handle__label__S       
828bd0a0  xdc_runtime_System_Module_GateProxy_enter__E               
828bd0c0  xdc_runtime_System_Module_GateProxy_leave__E               
828bcb60  xdc_runtime_System_Module_GateProxy_query__E               
828c4300  xdc_runtime_System_Module_State_0_atexitHandlers__A        
828c2690  xdc_runtime_System_Module__gateObj__C                      
828c4378  xdc_runtime_System_Module__state__V                        
828bd0e0  xdc_runtime_System_Module_startup__E                       
828b9360  xdc_runtime_System_SupportProxy_abort__E                   
828bc500  xdc_runtime_System_SupportProxy_exit__E                    
828b9420  xdc_runtime_System_SupportProxy_flush__E                   
828b9c60  xdc_runtime_System_SupportProxy_putch__E                   
828bd080  xdc_runtime_System_SupportProxy_ready__E                   
828c2694  xdc_runtime_System_abortFxn__C                             
828bc7e0  xdc_runtime_System_abortStd__E                             
828bc540  xdc_runtime_System_abort__E                                
828bc580  xdc_runtime_System_aprintf__E                              
828bae00  xdc_runtime_System_aprintf_va__E                           
828bae00  xdc_runtime_System_aprintf_va__F                           
828bad80  xdc_runtime_System_atexit__E                               
828bae00  xdc_runtime_System_avprintf__E                             
828a7880  xdc_runtime_System_doPrint__I                              
828c2698  xdc_runtime_System_exitFxn__C                              
828b7ec0  xdc_runtime_System_exitStd__E                              
828bc5c0  xdc_runtime_System_exit__E                                 
828c269c  xdc_runtime_System_extendFxn__C                            
828b9420  xdc_runtime_System_flush__E                                
828b9d00  xdc_runtime_System_formatNum__I                            
828c26a0  xdc_runtime_System_maxAtexitHandlers__C                    
828b2740  xdc_runtime_System_printfExtend__I                         
828bc600  xdc_runtime_System_printf__E                               
828baf00  xdc_runtime_System_printf_va__E                            
828baf00  xdc_runtime_System_printf_va__F                            
828bae80  xdc_runtime_System_processAtExit__E                        
828b9da0  xdc_runtime_System_putchar__I                              
828bd100  xdc_runtime_System_snprintf_va__E                          
828bd100  xdc_runtime_System_snprintf_va__F                          
828baf00  xdc_runtime_System_vprintf__E                              
828bd100  xdc_runtime_System_vsnprintf__E                            
828c26ee  xdc_runtime_Text_charCnt__C                                
828bd160  xdc_runtime_Text_charTab__A                                
828c26a4  xdc_runtime_Text_charTab__C                                
828bbae0  xdc_runtime_Text_cordText__E                               
828c26f0  xdc_runtime_Text_isLoaded__C                               
828c26a8  xdc_runtime_Text_nameEmpty__C                              
828c26ac  xdc_runtime_Text_nameStatic__C                             
828c26b0  xdc_runtime_Text_nameUnknown__C                            
828c1970  xdc_runtime_Text_nodeTab__A                                
828c26b4  xdc_runtime_Text_nodeTab__C                                
828b9e40  xdc_runtime_Text_printVisFxn__I                            
828b6420  xdc_runtime_Text_putLab__E                                 
828b5a00  xdc_runtime_Text_putMod__E                                 
828b35a0  xdc_runtime_Text_putSite__E                                
828c26f2  xdc_runtime_Text_registryModsLastId__C                     
828bd120  xdc_runtime_Text_ropeText__E                               
828c26f4  xdc_runtime_Text_unnamedModsLastId__C                      
828b84e0  xdc_runtime_Text_visitRope2__I                             
828c26b8  xdc_runtime_Text_visitRopeFxn__C                           
828bd140  xdc_runtime_Text_visitRope__I                              
828b9ee0  xdc_runtime_Text_xprintf__I                                
828a5cc0  xmc_setup                                                  
828a3a28  yaffs1_scan                                                
8289d010  yaffs2_checkpt_invalidate                                  
828a3914  yaffs2_checkpt_invalidate_stream                           
828a2fb0  yaffs2_checkpt_open                                        
828a3530  yaffs2_checkpt_rd                                          
8289b774  yaffs2_checkpt_required                                    
8289d134  yaffs2_checkpt_restore                                     
828a3404  yaffs2_checkpt_wr                                          
8289b4d0  yaffs2_clear_oldest_dirty_seq                              
8289c508  yaffs2_do_endian_tnode_copy                                
8289b4a4  yaffs2_find_oldest_dirty_seq                               
8289b5f0  yaffs2_find_refresh_block                                  
828a31c0  yaffs2_get_checkpt_sum                                     
8289d1d4  yaffs2_handle_hole                                         
8289d430  yaffs2_scan_backwards                                      
8289b530  yaffs2_update_oldest_dirty_seq                             
82898480  yaffs_access                                               
82898438  yaffs_access_reldev                                        
82898280  yaffs_access_reldir                                        
828995e8  yaffs_add_device                                           
8288c888  yaffs_add_find_tnode_0                                     
8288d198  yaffs_add_obj_to_dir                                       
8288b474  yaffs_addr_to_chunk                                        
828a76d8  yaffs_alloc_raw_obj                                        
828a7380  yaffs_alloc_raw_tnode                                      
828b4694  yaffs_attribs_init                                         
8288ffc4  yaffs_bg_gc                                                
8288ef74  yaffs_block_became_dirty                                   
8289b590  yaffs_block_ok_for_gc                                      
828b8658  yaffs_bug_fn                                               
8289b7e0  yaffs_calc_checkpt_blocks_required                         
8289b390  yaffs_calc_oldest_dirty_seq                                
828a4668  yaffs_calc_tags_ecc                                        
8288bab0  yaffs_check_alloc_available                                
828afa08  yaffs_check_chunk_bit                                      
8288b940  yaffs_check_ff                                             
828a472c  yaffs_check_tags_ecc                                       
8289d074  yaffs_checkpoint_save                                      
828a3788  yaffs_checkpt_close                                        
82898620  yaffs_chmod                                                
828985d8  yaffs_chmod_reldev                                         
828984a0  yaffs_chmod_reldir                                         
828900c8  yaffs_chunk_del                                            
828af954  yaffs_clear_chunk_bit                                      
828af928  yaffs_clear_chunk_bits                                     
8288e764  yaffs_clone_str                                            
82895cb8  yaffs_close                                                
82899e84  yaffs_closedir                                             
82893f4c  yaffs_count_blocks_by_state                                
828afac0  yaffs_count_chunk_bits                                     
82893cb8  yaffs_count_free_chunks                                    
8288eb84  yaffs_create_dir                                           
8288eb34  yaffs_create_file                                          
8288ebd4  yaffs_create_special                                       
8288ec30  yaffs_create_symlink                                       
828af7b8  yaffs_deinit_nand                                          
828a77c4  yaffs_deinit_raw_tnodes_and_objs                           
82893ae8  yaffs_deinitialise                                         
82891bc8  yaffs_del_obj                                              
828996c8  yaffs_dev_rewind                                           
82898de4  yaffs_do_background_gc                                     
82898e04  yaffs_do_background_gc_reldev                              
828aed40  yaffs_do_endian_oh                                         
828aef48  yaffs_do_endian_packed_tags2                               
828aed08  yaffs_do_endian_s32                                        
828aecd0  yaffs_do_endian_u32                                        
828910d4  yaffs_do_file_wr                                           
8289a5cc  yaffs_dump_dev                                             
8289a5b4  yaffs_dump_dev_reldir                                      
82895244  yaffs_dup                                                  
828a88e0  yaffs_ecc_calc                                             
828a8e40  yaffs_ecc_calc_other                                       
828a8ba0  yaffs_ecc_correct                                          
828a8f20  yaffs_ecc_correct_other                                    
828aefac  yaffs_endian_config                                        
828af744  yaffs_erase_block                                          
82898640  yaffs_fchmod                                               
82895cac  yaffs_fdatasync                                            
82896a08  yaffs_fgetfl                                               
82897bc8  yaffs_fgetxattr                                            
82890ef4  yaffs_file_rd                                              
82892744  yaffs_find_by_name                                         
8288e3c4  yaffs_find_by_number                                       
8288cc30  yaffs_find_chunk_in_file                                   
8288e718  yaffs_find_or_create_by_number                             
8288c7a0  yaffs_find_tnode_0                                         
82897ec4  yaffs_flistxattr                                           
82895ca0  yaffs_flush                                                
82891890  yaffs_flush_file                                           
8288d5ec  yaffs_flush_whole_cache                                    
828992c4  yaffs_format                                               
82899130  yaffs_format_common                                        
828992a0  yaffs_format_reldev                                        
828a7768  yaffs_free_raw_obj                                         
828a73f8  yaffs_free_raw_tnode                                       
828993c4  yaffs_freespace                                            
828992e8  yaffs_freespace_common                                     
828993b0  yaffs_freespace_reldev                                     
82898194  yaffs_fremovexattr                                         
82897894  yaffs_fsetxattr                                            
828972ec  yaffs_fstat                                                
82895c90  yaffs_fsync                                                
828964f8  yaffs_ftruncate                                            
82896944  yaffs_funlink                                              
8289756c  yaffs_futime                                               
8289290c  yaffs_get_equivalent_obj                                   
8289a578  yaffs_get_error                                            
8288c6c0  yaffs_get_group_base                                       
82893da0  yaffs_get_n_free_chunks                                    
8289a5a0  yaffs_get_obj_from_fd                                      
82892c14  yaffs_get_obj_inode                                        
82892b30  yaffs_get_obj_length                                       
82892bac  yaffs_get_obj_link_count                                   
82892a00  yaffs_get_obj_name                                         
82892c28  yaffs_get_obj_type                                         
82892d44  yaffs_get_symlink_alias                                    
8288b5cc  yaffs_get_temp_buffer                                      
8288c4a4  yaffs_get_tnode                                            
82894170  yaffs_get_trace                                            
82890808  yaffs_get_xattrib                                          
828989b8  yaffs_getdev                                               
82897b0c  yaffs_getxattr                                             
82897ac0  yaffs_getxattr_reldev                                      
82897a98  yaffs_getxattr_reldir                                      
82893220  yaffs_guts_format_dev                                      
828932b4  yaffs_guts_initialise                                      
82892f48  yaffs_guts_ll_init                                         
8288b7b8  yaffs_handle_chunk_error                                   
8288dcb8  yaffs_handle_defered_free                                  
828921f4  yaffs_handle_shadowed_obj                                  
828bafb0  yaffs_hweight32                                            
828baf80  yaffs_hweight8                                             
828af790  yaffs_init_nand                                            
828a7814  yaffs_init_raw_tnodes_and_objs                             
828995d4  yaffs_inodecount                                           
828994f4  yaffs_inodecount_common                                    
828995c4  yaffs_inodecount_reldev                                    
82891b10  yaffs_is_non_empty_dir                                     
82897ba4  yaffs_lgetxattr                                            
82897b54  yaffs_lgetxattr_reldev                                     
82897b30  yaffs_lgetxattr_reldir                                     
8289a424  yaffs_link                                                 
82892278  yaffs_link_fixup                                           
8288ec84  yaffs_link_obj                                             
8289a1e8  yaffs_link_reldir                                          
82890824  yaffs_list_xattrib                                         
82897e10  yaffs_listxattr                                            
82897dc8  yaffs_listxattr_reldev                                     
82897da8  yaffs_listxattr_reldir                                     
82897ea0  yaffs_llistxattr                                           
82897e54  yaffs_llistxattr_reldev                                    
82897e34  yaffs_llistxattr_reldir                                    
828b4580  yaffs_load_attribs                                         
828b4608  yaffs_load_attribs_oh                                      
828b46e0  yaffs_load_current_time                                    
8288b920  yaffs_lost_n_found                                         
82898174  yaffs_lremovexattr                                         
82898130  yaffs_lremovexattr_reldev                                  
82898114  yaffs_lremovexattr_reldir                                  
828965cc  yaffs_lseek                                                
82897868  yaffs_lsetxattr                                            
82897814  yaffs_lsetxattr_reldev                                     
828977d8  yaffs_lsetxattr_reldir                                     
828972cc  yaffs_lstat                                                
82897264  yaffs_lstat_reldev                                         
82897200  yaffs_lstat_reldir                                         
828af6a0  yaffs_mark_bad                                             
8288c488  yaffs_max_file_size                                        
828988a8  yaffs_mkdir                                                
82898864  yaffs_mkdir_reldev                                         
828986c0  yaffs_mkdir_reldir                                         
8289a4b4  yaffs_mknod                                                
8289a46c  yaffs_mknod_reldev                                         
8289a444  yaffs_mknod_reldir                                         
82898bd8  yaffs_mount                                                
82898ba8  yaffs_mount2                                               
82898b88  yaffs_mount2_reldev                                        
82898b64  yaffs_mount3                                               
82898b44  yaffs_mount3_reldev                                        
828989e0  yaffs_mount_common                                         
82898bc8  yaffs_mount_reldev                                         
8289a564  yaffs_n_handles                                            
8289a4d8  yaffs_n_handles_reldir                                     
828996e4  yaffs_next_dev                                             
82893eac  yaffs_oh_size_load                                         
82893f0c  yaffs_oh_to_size                                           
82895bf8  yaffs_open                                                 
82895ba8  yaffs_open_reldev                                          
82895b88  yaffs_open_reldir                                          
82895b60  yaffs_open_sharing                                         
82895b10  yaffs_open_sharing_reldev                                  
82895358  yaffs_open_sharing_reldir                                  
82899bd4  yaffs_opendir                                              
82899b90  yaffs_opendir_reldev                                       
82899b64  yaffs_opendir_reldir                                       
828ad8e0  yaffs_pack_tags2                                           
828ad7b8  yaffs_pack_tags2_tags_only                                 
82896004  yaffs_pread                                                
8288cd34  yaffs_put_chunk_in_file                                    
828962e8  yaffs_pwrite                                               
828af704  yaffs_query_init_block_state                               
828af50c  yaffs_rd_chunk_tags_nand                                   
82895fe4  yaffs_read                                                 
82899d00  yaffs_readdir                                              
82899d74  yaffs_readdir_fd                                           
8289a1c4  yaffs_readlink                                             
8289a090  yaffs_readlink_reldir                                      
8288b6c4  yaffs_release_temp_buffer                                  
82898fa8  yaffs_remount                                              
82898e80  yaffs_remount_common                                       
82898f88  yaffs_remount_reldev                                       
828996a4  yaffs_remove_device                                        
828907e0  yaffs_remove_xattrib                                       
828980f4  yaffs_removexattr                                          
828980b0  yaffs_removexattr_reldev                                   
82898094  yaffs_removexattr_reldir                                   
82896ef8  yaffs_rename                                               
8289204c  yaffs_rename_obj                                           
82896eb4  yaffs_rename_reldev                                        
82896b44  yaffs_rename_reldir                                        
828917a0  yaffs_resize_file                                          
828916b8  yaffs_resize_file_down                                     
82891ce4  yaffs_retype_obj                                           
82899d54  yaffs_rewinddir                                            
82899dd4  yaffs_rewinddir_fd                                         
828989a4  yaffs_rmdir                                                
82898960  yaffs_rmdir_reldev                                         
828988c8  yaffs_rmdir_reldir                                         
8288b904  yaffs_root                                                 
828af9ac  yaffs_set_chunk_bit                                        
8289a588  yaffs_set_error                                            
8288c3d8  yaffs_set_obj_name                                         
8288c46c  yaffs_set_obj_name_from_oh                                 
82894154  yaffs_set_trace                                            
828907b0  yaffs_set_xattrib                                          
828977ac  yaffs_setxattr                                             
82897758  yaffs_setxattr_reldev                                      
82897720  yaffs_setxattr_reldir                                      
8288bf30  yaffs_skip_rest_of_block                                   
828a1588  yaffs_skip_verification                                    
828972ac  yaffs_stat                                                 
82897218  yaffs_stat_reldev                                          
828971e4  yaffs_stat_reldir                                          
828afa60  yaffs_still_some_chunks                                    
828a6d6c  yaffs_summary_add                                          
828a6720  yaffs_summary_deinit                                       
828a6e60  yaffs_summary_fetch                                        
828a6ee8  yaffs_summary_gc                                           
828a6780  yaffs_summary_init                                         
828a6ae0  yaffs_summary_read                                         
8289a070  yaffs_symlink                                              
82899eac  yaffs_symlink_reldir                                       
82898d14  yaffs_sync                                                 
82898cec  yaffs_sync_files                                           
82898cd8  yaffs_sync_files_reldev                                    
82898d04  yaffs_sync_reldev                                          
828a50f0  yaffs_tags_compat_install                                  
828acaac  yaffs_tags_marshall_install                                
828994e0  yaffs_totalspace                                           
828993d8  yaffs_totalspace_common                                    
828994cc  yaffs_totalspace_reldev                                    
828c486c  yaffs_trace_mask                                           
828964d8  yaffs_truncate                                             
82896494  yaffs_truncate_reldev                                      
82896308  yaffs_truncate_reldir                                      
8289692c  yaffs_unlink                                               
82892008  yaffs_unlink_obj                                           
828968e4  yaffs_unlink_reldev                                        
828968c4  yaffs_unlink_reldir                                        
82892030  yaffs_unlinker                                             
82899124  yaffs_unmount                                              
828990f4  yaffs_unmount2                                             
82898fcc  yaffs_unmount2_common                                      
828990d8  yaffs_unmount2_reldev                                      
82899114  yaffs_unmount_reldev                                       
828ada84  yaffs_unpack_tags2                                         
828ad918  yaffs_unpack_tags2_tags_only                               
8288e890  yaffs_update_dirty_dirs                                    
82890934  yaffs_update_oh                                            
8289754c  yaffs_utime                                                
82897508  yaffs_utime_reldev                                         
82897414  yaffs_utime_reldir                                         
828a1608  yaffs_verify_blk                                           
828a18c0  yaffs_verify_blocks                                        
828af890  yaffs_verify_chunk_bit_id                                  
828a1848  yaffs_verify_collected_blk                                 
828a2524  yaffs_verify_dir                                           
828a1d90  yaffs_verify_file                                          
828a2740  yaffs_verify_file_sane                                     
828a26b0  yaffs_verify_free_chunks                                   
828a1ef0  yaffs_verify_link                                          
828a1f70  yaffs_verify_obj                                           
828a23a0  yaffs_verify_obj_in_dir                                    
828a2300  yaffs_verify_objects                                       
828a1b04  yaffs_verify_oh                                            
828a1f48  yaffs_verify_special                                       
828a1f20  yaffs_verify_symlink                                       
828c4844  yaffs_wr_attempts                                          
828af5b0  yaffs_wr_chunk_tags_nand                                   
82891520  yaffs_wr_file                                              
828962c8  yaffs_write                                                
828b85e8  yaffsfs_CheckMemRegion                                     
828b8628  yaffsfs_CurrentTime                                        
828b85d8  yaffsfs_GetLastError                                       
828b860c  yaffsfs_Lock                                               
828b8620  yaffsfs_LockInit                                           
828b8650  yaffsfs_OSInitialisation                                   
828b85c0  yaffsfs_SetError                                           
828b8614  yaffsfs_Unlock                                             
828c4380  yaffsfs_deviceList                                         
828b8644  yaffsfs_free                                               
828b8634  yaffsfs_malloc                                             
82899be8  yaffsfs_readdir_no_lock                                    


GLOBAL SYMBOLS: SORTED BY Symbol Address 

address   name                                                       
-------   ----                                                       
00000000  _argsize                                                   
00000000  ti_sysbios_family_c66_Cache_l2Size                         
00000001  xdc_runtime_Startup__EXECFXN__C                            
00000001  xdc_runtime_Startup__RESETFXN__C                           
00008000  ti_sysbios_family_c66_Cache_l1dSize                        
00008000  ti_sysbios_family_c66_Cache_l1pSize                        
00080000  __TI_STACK_SIZE                                            
00800000  _stack                                                     
00880000  __TI_STACK_END                                             
82800800  __ASM__                                                    
82800800  ti_sysbios_heaps_HeapMem_Instance_State_0_buf__A           
82800858  __ISA__                                                    
82800870  __PLAT__                                                   
82800890  __TARG__                                                   
828008b8  __TRDR__                                                   
82880800  ti_sysbios_knl_Task_Instance_State_0_stack__A              
82888320  xdc_runtime_SysMin_Module_State_0_outbuf__A                
8288a960  xdc_runtime_LoggerBuf_Instance_State_0_entryArr__A         
8288acf0  __TI_tmpnams                                               
8288ae30  gI2cBlock                                                  
8288ae98  parmbuf                                                    
8288aea8  ti_sysbios_knl_Task_Instance_State_0_hookEnv__A            
8288b474  yaffs_addr_to_chunk                                        
8288b5cc  yaffs_get_temp_buffer                                      
8288b6c4  yaffs_release_temp_buffer                                  
8288b7b8  yaffs_handle_chunk_error                                   
8288b904  yaffs_root                                                 
8288b920  yaffs_lost_n_found                                         
8288b940  yaffs_check_ff                                             
8288bab0  yaffs_check_alloc_available                                
8288bf30  yaffs_skip_rest_of_block                                   
8288c3d8  yaffs_set_obj_name                                         
8288c46c  yaffs_set_obj_name_from_oh                                 
8288c488  yaffs_max_file_size                                        
8288c4a4  yaffs_get_tnode                                            
8288c6c0  yaffs_get_group_base                                       
8288c7a0  yaffs_find_tnode_0                                         
8288c888  yaffs_add_find_tnode_0                                     
8288cc30  yaffs_find_chunk_in_file                                   
8288cd34  yaffs_put_chunk_in_file                                    
8288d198  yaffs_add_obj_to_dir                                       
8288d5ec  yaffs_flush_whole_cache                                    
8288dcb8  yaffs_handle_defered_free                                  
8288e3c4  yaffs_find_by_number                                       
8288e718  yaffs_find_or_create_by_number                             
8288e764  yaffs_clone_str                                            
8288e890  yaffs_update_dirty_dirs                                    
8288eb34  yaffs_create_file                                          
8288eb84  yaffs_create_dir                                           
8288ebd4  yaffs_create_special                                       
8288ec30  yaffs_create_symlink                                       
8288ec84  yaffs_link_obj                                             
8288ef74  yaffs_block_became_dirty                                   
8288ffc4  yaffs_bg_gc                                                
828900c8  yaffs_chunk_del                                            
828907b0  yaffs_set_xattrib                                          
828907e0  yaffs_remove_xattrib                                       
82890808  yaffs_get_xattrib                                          
82890824  yaffs_list_xattrib                                         
82890934  yaffs_update_oh                                            
82890ef4  yaffs_file_rd                                              
828910d4  yaffs_do_file_wr                                           
82891520  yaffs_wr_file                                              
828916b8  yaffs_resize_file_down                                     
828917a0  yaffs_resize_file                                          
82891890  yaffs_flush_file                                           
82891b10  yaffs_is_non_empty_dir                                     
82891bc8  yaffs_del_obj                                              
82891ce4  yaffs_retype_obj                                           
82892008  yaffs_unlink_obj                                           
82892030  yaffs_unlinker                                             
8289204c  yaffs_rename_obj                                           
828921f4  yaffs_handle_shadowed_obj                                  
82892278  yaffs_link_fixup                                           
82892744  yaffs_find_by_name                                         
8289290c  yaffs_get_equivalent_obj                                   
82892a00  yaffs_get_obj_name                                         
82892b30  yaffs_get_obj_length                                       
82892bac  yaffs_get_obj_link_count                                   
82892c14  yaffs_get_obj_inode                                        
82892c28  yaffs_get_obj_type                                         
82892d44  yaffs_get_symlink_alias                                    
82892f48  yaffs_guts_ll_init                                         
82893220  yaffs_guts_format_dev                                      
828932b4  yaffs_guts_initialise                                      
82893ae8  yaffs_deinitialise                                         
82893cb8  yaffs_count_free_chunks                                    
82893da0  yaffs_get_n_free_chunks                                    
82893eac  yaffs_oh_size_load                                         
82893f0c  yaffs_oh_to_size                                           
82893f4c  yaffs_count_blocks_by_state                                
82894104  strnlen                                                    
82894154  yaffs_set_trace                                            
82894170  yaffs_get_trace                                            
82895244  yaffs_dup                                                  
82895358  yaffs_open_sharing_reldir                                  
82895b10  yaffs_open_sharing_reldev                                  
82895b60  yaffs_open_sharing                                         
82895b88  yaffs_open_reldir                                          
82895ba8  yaffs_open_reldev                                          
82895bf8  yaffs_open                                                 
82895c90  yaffs_fsync                                                
82895ca0  yaffs_flush                                                
82895cac  yaffs_fdatasync                                            
82895cb8  yaffs_close                                                
82895fe4  yaffs_read                                                 
82896004  yaffs_pread                                                
828962c8  yaffs_write                                                
828962e8  yaffs_pwrite                                               
82896308  yaffs_truncate_reldir                                      
82896494  yaffs_truncate_reldev                                      
828964d8  yaffs_truncate                                             
828964f8  yaffs_ftruncate                                            
828965cc  yaffs_lseek                                                
828968c4  yaffs_unlink_reldir                                        
828968e4  yaffs_unlink_reldev                                        
8289692c  yaffs_unlink                                               
82896944  yaffs_funlink                                              
82896a08  yaffs_fgetfl                                               
82896b44  yaffs_rename_reldir                                        
82896eb4  yaffs_rename_reldev                                        
82896ef8  yaffs_rename                                               
828971e4  yaffs_stat_reldir                                          
82897200  yaffs_lstat_reldir                                         
82897218  yaffs_stat_reldev                                          
82897264  yaffs_lstat_reldev                                         
828972ac  yaffs_stat                                                 
828972cc  yaffs_lstat                                                
828972ec  yaffs_fstat                                                
82897414  yaffs_utime_reldir                                         
82897508  yaffs_utime_reldev                                         
8289754c  yaffs_utime                                                
8289756c  yaffs_futime                                               
82897720  yaffs_setxattr_reldir                                      
82897758  yaffs_setxattr_reldev                                      
828977ac  yaffs_setxattr                                             
828977d8  yaffs_lsetxattr_reldir                                     
82897814  yaffs_lsetxattr_reldev                                     
82897868  yaffs_lsetxattr                                            
82897894  yaffs_fsetxattr                                            
82897a98  yaffs_getxattr_reldir                                      
82897ac0  yaffs_getxattr_reldev                                      
82897b0c  yaffs_getxattr                                             
82897b30  yaffs_lgetxattr_reldir                                     
82897b54  yaffs_lgetxattr_reldev                                     
82897ba4  yaffs_lgetxattr                                            
82897bc8  yaffs_fgetxattr                                            
82897da8  yaffs_listxattr_reldir                                     
82897dc8  yaffs_listxattr_reldev                                     
82897e10  yaffs_listxattr                                            
82897e34  yaffs_llistxattr_reldir                                    
82897e54  yaffs_llistxattr_reldev                                    
82897ea0  yaffs_llistxattr                                           
82897ec4  yaffs_flistxattr                                           
82898094  yaffs_removexattr_reldir                                   
828980b0  yaffs_removexattr_reldev                                   
828980f4  yaffs_removexattr                                          
82898114  yaffs_lremovexattr_reldir                                  
82898130  yaffs_lremovexattr_reldev                                  
82898174  yaffs_lremovexattr                                         
82898194  yaffs_fremovexattr                                         
82898280  yaffs_access_reldir                                        
82898438  yaffs_access_reldev                                        
82898480  yaffs_access                                               
828984a0  yaffs_chmod_reldir                                         
828985d8  yaffs_chmod_reldev                                         
82898620  yaffs_chmod                                                
82898640  yaffs_fchmod                                               
828986c0  yaffs_mkdir_reldir                                         
82898864  yaffs_mkdir_reldev                                         
828988a8  yaffs_mkdir                                                
828988c8  yaffs_rmdir_reldir                                         
82898960  yaffs_rmdir_reldev                                         
828989a4  yaffs_rmdir                                                
828989b8  yaffs_getdev                                               
828989e0  yaffs_mount_common                                         
82898b44  yaffs_mount3_reldev                                        
82898b64  yaffs_mount3                                               
82898b88  yaffs_mount2_reldev                                        
82898ba8  yaffs_mount2                                               
82898bc8  yaffs_mount_reldev                                         
82898bd8  yaffs_mount                                                
82898cd8  yaffs_sync_files_reldev                                    
82898cec  yaffs_sync_files                                           
82898d04  yaffs_sync_reldev                                          
82898d14  yaffs_sync                                                 
82898de4  yaffs_do_background_gc                                     
82898e04  yaffs_do_background_gc_reldev                              
82898e80  yaffs_remount_common                                       
82898f88  yaffs_remount_reldev                                       
82898fa8  yaffs_remount                                              
82898fcc  yaffs_unmount2_common                                      
828990d8  yaffs_unmount2_reldev                                      
828990f4  yaffs_unmount2                                             
82899114  yaffs_unmount_reldev                                       
82899124  yaffs_unmount                                              
82899130  yaffs_format_common                                        
828992a0  yaffs_format_reldev                                        
828992c4  yaffs_format                                               
828992e8  yaffs_freespace_common                                     
828993b0  yaffs_freespace_reldev                                     
828993c4  yaffs_freespace                                            
828993d8  yaffs_totalspace_common                                    
828994cc  yaffs_totalspace_reldev                                    
828994e0  yaffs_totalspace                                           
828994f4  yaffs_inodecount_common                                    
828995c4  yaffs_inodecount_reldev                                    
828995d4  yaffs_inodecount                                           
828995e8  yaffs_add_device                                           
828996a4  yaffs_remove_device                                        
828996c8  yaffs_dev_rewind                                           
828996e4  yaffs_next_dev                                             
82899b64  yaffs_opendir_reldir                                       
82899b90  yaffs_opendir_reldev                                       
82899bd4  yaffs_opendir                                              
82899be8  yaffsfs_readdir_no_lock                                    
82899d00  yaffs_readdir                                              
82899d54  yaffs_rewinddir                                            
82899d74  yaffs_readdir_fd                                           
82899dd4  yaffs_rewinddir_fd                                         
82899e84  yaffs_closedir                                             
82899eac  yaffs_symlink_reldir                                       
8289a070  yaffs_symlink                                              
8289a090  yaffs_readlink_reldir                                      
8289a1c4  yaffs_readlink                                             
8289a1e8  yaffs_link_reldir                                          
8289a424  yaffs_link                                                 
8289a444  yaffs_mknod_reldir                                         
8289a46c  yaffs_mknod_reldev                                         
8289a4b4  yaffs_mknod                                                
8289a4d8  yaffs_n_handles_reldir                                     
8289a564  yaffs_n_handles                                            
8289a578  yaffs_get_error                                            
8289a588  yaffs_set_error                                            
8289a5a0  yaffs_get_obj_from_fd                                      
8289a5b4  yaffs_dump_dev_reldir                                      
8289a5cc  yaffs_dump_dev                                             
8289b390  yaffs_calc_oldest_dirty_seq                                
8289b4a4  yaffs2_find_oldest_dirty_seq                               
8289b4d0  yaffs2_clear_oldest_dirty_seq                              
8289b530  yaffs2_update_oldest_dirty_seq                             
8289b590  yaffs_block_ok_for_gc                                      
8289b5f0  yaffs2_find_refresh_block                                  
8289b774  yaffs2_checkpt_required                                    
8289b7e0  yaffs_calc_checkpt_blocks_required                         
8289c508  yaffs2_do_endian_tnode_copy                                
8289d010  yaffs2_checkpt_invalidate                                  
8289d074  yaffs_checkpoint_save                                      
8289d134  yaffs2_checkpt_restore                                     
8289d1d4  yaffs2_handle_hole                                         
8289d430  yaffs2_scan_backwards                                      
8289dac0  __TI_printfi                                               
8289faa0  serial_num_isvalid                                         
8289fb00  platform_write_configure                                   
8289fb14  platform_uart_write                                        
8289fb28  platform_write                                             
8289fc28  platform_uart_set_baudrate                                 
8289fc50  platform_delay                                             
8289fc90  platform_uart_read                                         
8289fd04  platform_uart_init                                         
8289fd20  platform_get_phy_addr                                      
8289fd24  platform_phy_link_status                                   
8289fd74  platform_offset_to_blocknpage                              
8289fe4c  platform_led                                               
8289fe78  platform_get_coreid                                        
8289fe84  platform_internal_memory_test                              
828a02c8  platform_init                                              
828a05a4  platform_get_switch_state                                  
828a05a8  platform_get_macaddr                                       
828a05f8  platform_device_open                                       
828a06f0  platform_device_read                                       
828a0818  platform_device_close                                      
828a0908  platform_get_info                                          
828a0b4c  platform_get_emac_info                                     
828a0ba4  platform_external_memory_test                              
828a0d30  platform_device_write_spare_data                           
828a0da4  platform_blocknpage_to_offset                              
828a0e38  platform_device_write                                      
828a1274  platform_device_read_spare_data                            
828a12e8  platform_device_mark_block_bad                             
828a13e0  platform_device_erase_block                                
828a1470  platform_delaycycles                                       
828a1498  Convert_CoreLocal2GlobalAddr                               
828a1588  yaffs_skip_verification                                    
828a1608  yaffs_verify_blk                                           
828a1848  yaffs_verify_collected_blk                                 
828a18c0  yaffs_verify_blocks                                        
828a1b04  yaffs_verify_oh                                            
828a1d90  yaffs_verify_file                                          
828a1ef0  yaffs_verify_link                                          
828a1f20  yaffs_verify_symlink                                       
828a1f48  yaffs_verify_special                                       
828a1f70  yaffs_verify_obj                                           
828a2300  yaffs_verify_objects                                       
828a23a0  yaffs_verify_obj_in_dir                                    
828a2524  yaffs_verify_dir                                           
828a26b0  yaffs_verify_free_chunks                                   
828a2740  yaffs_verify_file_sane                                     
828a2fb0  yaffs2_checkpt_open                                        
828a31c0  yaffs2_get_checkpt_sum                                     
828a3404  yaffs2_checkpt_wr                                          
828a3530  yaffs2_checkpt_rd                                          
828a3788  yaffs_checkpt_close                                        
828a3914  yaffs2_checkpt_invalidate_stream                           
828a3a28  yaffs1_scan                                                
828a4668  yaffs_calc_tags_ecc                                        
828a472c  yaffs_check_tags_ecc                                       
828a50f0  yaffs_tags_compat_install                                  
828a5250  NandReadSpareArea                                          
828a52f0  NandWriteDataBytes                                         
828a5448  NandWriteSpareArea                                         
828a54e8  writeNandPage                                              
828a5850  readNandPage                                               
828a5ad8  nandInit                                                   
828a5b4c  nandFlashBlockErase                                        
828a5bf0  NandGetDetails                                             
828a5cc0  xmc_setup                                                  
828a5cd8  prog_pll1_values                                           
828a5dc8  SetPaPllConfig                                             
828a5ee8  SetDDR3PllConfig                                           
828a6004  PowerUpDomains                                             
828a60f8  DDR3Init                                                   
828a6354  CorePllcHwSetup                                            
828a6580  CorePllcGetHwSetup                                         
828a6720  yaffs_summary_deinit                                       
828a6780  yaffs_summary_init                                         
828a6ae0  yaffs_summary_read                                         
828a6d6c  yaffs_summary_add                                          
828a6e60  yaffs_summary_fetch                                        
828a6ee8  yaffs_summary_gc                                           
828a7380  yaffs_alloc_raw_tnode                                      
828a73f8  yaffs_free_raw_tnode                                       
828a76d8  yaffs_alloc_raw_obj                                        
828a7768  yaffs_free_raw_obj                                         
828a77c4  yaffs_deinit_raw_tnodes_and_objs                           
828a7814  yaffs_init_raw_tnodes_and_objs                             
828a7880  xdc_runtime_System_doPrint__I                              
828a8120  i2cEepromWriteBlock                                        
828a82cc  i2cEepromWriteByteAddr                                     
828a83d4  i2cEepromWrite                                             
828a8498  i2cEepromRead                                              
828a85a4  i2cEepromMacWrite                                          
828a86f4  i2cEepromMacRead                                           
828a88e0  yaffs_ecc_calc                                             
828a8ba0  yaffs_ecc_correct                                          
828a8e40  yaffs_ecc_calc_other                                       
828a8f20  yaffs_ecc_correct_other                                    
828a90c0  ti_sysbios_family_c64p_Exception_handler__I                
828a9840  ti_sysbios_knl_Semaphore_pend__E                           
828a9f80  ti_sysbios_timers_timer64_Timer_Module_startup__E          
828aa680  setTimeOut_ms                                              
828aa688  hasTimeoutExpired                                          
828aa6cc  configSerdes                                               
828aa7d4  configPhy                                                  
828aab0c  Init_SGMII                                                 
828ab320  ti_sysbios_heaps_HeapMem_allocUnprotected__E               
828abad8  nval_del                                                   
828abb94  nval_set                                                   
828abcf0  nval_get                                                   
828abdf8  nval_list                                                  
828abf40  nval_hasvalues                                             
828abf60  __c6xabi_divd                                              
828acaac  yaffs_tags_marshall_install                                
828acb40  ti_sysbios_heaps_HeapMem_freeUnprotected__E                
828ad100  ti_sysbios_knl_Task_Instance_finalize__E                   
828ad7b8  yaffs_pack_tags2_tags_only                                 
828ad8e0  yaffs_pack_tags2                                           
828ad918  yaffs_unpack_tags2_tags_only                               
828ada84  yaffs_unpack_tags2                                         
828adb60  spi_xfer                                                   
828adcb4  spi_write_word                                             
828add14  spi_release                                                
828add30  spi_read_word                                              
828adda0  spi_cmd_write                                              
828addd8  spi_cmd_read                                               
828ade14  spi_cmd                                                    
828ade60  spi_claim                                                  
828adfc0  ti_sysbios_knl_Task_sleep__E                               
828ae860  ti_sysbios_knl_Task_Instance_init__E                       
828aecd0  yaffs_do_endian_u32                                        
828aed08  yaffs_do_endian_s32                                        
828aed40  yaffs_do_endian_oh                                         
828aef48  yaffs_do_endian_packed_tags2                               
828aefac  yaffs_endian_config                                        
828af100  nor_write                                                  
828af224  nor_read                                                   
828af2a0  nor_init                                                   
828af308  nor_get_details                                            
828af374  nor_erase                                                  
828af50c  yaffs_rd_chunk_tags_nand                                   
828af5b0  yaffs_wr_chunk_tags_nand                                   
828af6a0  yaffs_mark_bad                                             
828af704  yaffs_query_init_block_state                               
828af744  yaffs_erase_block                                          
828af790  yaffs_init_nand                                            
828af7b8  yaffs_deinit_nand                                          
828af890  yaffs_verify_chunk_bit_id                                  
828af928  yaffs_clear_chunk_bits                                     
828af954  yaffs_clear_chunk_bit                                      
828af9ac  yaffs_set_chunk_bit                                        
828afa08  yaffs_check_chunk_bit                                      
828afa60  yaffs_still_some_chunks                                    
828afac0  yaffs_count_chunk_bits                                     
828afb60  gpioSetRisingEdgeInterrupt                                 
828afba4  gpioSetOutput                                              
828afbd8  gpioSetFallingEdgeInterrupt                                
828afc20  gpioSetDirection                                           
828afca0  gpioSetDataBusDirection                                    
828afd18  gpioReadInput                                              
828afd58  gpioInit                                                   
828afdb8  gpioEnableGlobalInterrupt                                  
828afdd0  gpioDisableGlobalInterrupt                                 
828afdec  gpioClearRisingEdgeInterrupt                               
828afe20  gpioClearOutput                                            
828afe54  gpioClearFallingEdgeInterrupt                              
828afea0  fputs                                                      
828b01c0  ti_sysbios_timers_timer64_Timer_deviceConfig__I            
828b04e0  ti_sysbios_heaps_HeapMem_Instance_init__E                  
828b0a80  ti_sysbios_knl_Clock_workFunc__E                           
828b0d40  xdc_runtime_LoggerBuf_write8__E                            
828b12a0  ti_sysbios_family_c64p_Hwi_dispatchCore__I                 
828b1500  ti_sysbios_knl_Semaphore_post__E                           
828b1760  xdc_runtime_Startup_startMods__I                           
828b19c0  __c6xabi_divull                                            
828b1c00  taskFxn                                                    
828b1d30  main                                                       
828b1e40  qsort                                                      
828b2080  ti_sysbios_family_c64p_Exception_internalHandler__I        
828b22c0  ti_sysbios_knl_Task_postInit__I                            
828b2500  xdc_runtime_Core_createObject__I                           
828b2740  xdc_runtime_System_printfExtend__I                         
828b2980  ti_sysbios_knl_Swi_run__I                                  
828b2ba0  ti_sysbios_timers_timer64_Timer_setPeriodMicroSecs__E      
828b2dc0  xdc_runtime_Error_policyDefault__E                         
828b2fe0  ti_sysbios_family_c64p_Hwi_dispatchAlways                  
828b31e0  UartWriteData                                              
828b3220  UartSetBaudRate                                            
828b3248  UartReadData                                               
828b3258  UartReadBaudRate                                           
828b328c  UartIsDataReady                                            
828b32ac  UartInit                                                   
828b33c0  ti_sysbios_gates_GateMutex_enter__E                        
828b35a0  xdc_runtime_Text_putSite__E                                
828b3780  __c6xabi_divul                                             
828b3b00  fputc                                                      
828b3b00  putc                                                       
828b3cc0  setvbuf                                                    
828b3e80  ti_sysbios_knl_Task_checkStacks__E                         
828b4040  ti_sysbios_timers_timer64_Timer_getFreq__E                 
828b4200  ti_sysbios_timers_timer64_Timer_start__E                   
828b43c0  xdc_runtime_LoggerBuf_write4__E                            
828b4580  yaffs_load_attribs                                         
828b4608  yaffs_load_attribs_oh                                      
828b4694  yaffs_attribs_init                                         
828b46e0  yaffs_load_current_time                                    
828b4740  HOSTrename                                                 
828b48e0  frexp                                                      
828b48e0  frexpl                                                     
828b4a80  ldexp                                                      
828b4a80  ldexpl                                                     
828b4a80  scalbn                                                     
828b4a80  scalbnl                                                    
828b4c20  ti_sysbios_family_c66_Cache_block__I                       
828b4dc0  ti_sysbios_family_c66_Cache_getL2InitSize__I               
828b4f60  ti_sysbios_knl_Task_exit__E                                
828b5100  ti_sysbios_knl_Task_schedule__I                            
828b52a0  xdc_runtime_Core_constructObject__I                        
828b5440  ti_sysbios_family_c64p_Exception_dispatch__E               
828b55c0  ti_sysbios_knl_Task_startCore__E                           
828b5740  ti_sysbios_family_c64p_Hwi_Module_startup__E               
828b58a0  ti_sysbios_knl_Swi_post__E                                 
828b5a00  xdc_runtime_Text_putMod__E                                 
828b5b60  ti_sysbios_family_c66_Cache_getL1DInitSize__I              
828b5ca0  ti_sysbios_family_c66_Cache_getL1PInitSize__I              
828b5de0  ti_sysbios_knl_Semaphore_Instance_init__E                  
828b5f20  ti_sysbios_knl_Task_Module_startup__E                      
828b6060  ti_sysbios_knl_Task_blockI__E                              
828b61a0  xdc_runtime_Core_deleteObject__I                           
828b62e0  xdc_runtime_LoggerBuf_setFilterLevel__E                    
828b6420  xdc_runtime_Text_putLab__E                                 
828b6560  _auto_init_elf                                             
828b67a0  getdevice                                                  
828b68c0  ti_sysbios_family_c66_Cache_startup__I                     
828b68c0  xdc_runtime_Startup_reset__I                               
828b69e0  ti_sysbios_hal_SecondsClock_Module_startup__E              
828b6b00  ti_sysbios_knl_Clock_start__E                              
828b6c20  ti_sysbios_knl_Swi_restoreHwi__E                           
828b6d40  xdc_runtime_LoggerBuf_getFilterLevel__E                    
828b6e60  __TI_closefile                                             
828b7160  atoi                                                       
828b7260  fflush                                                     
828b7360  fseek                                                      
828b7460  ti_sysbios_knl_Mailbox_Module_startup__E                   
828b7560  ti_sysbios_knl_Task_unblockI__E                            
828b7660  ti_sysbios_timers_timer64_Timer_initDevice__I              
828b7760  xdc_runtime_Error_print__E                                 
828b7860  xdc_runtime_Memory_alloc__E                                
828b7960  xdc_runtime_Startup_exec__E                                
828b7a60  HOSTlseek                                                  
828b7b40  HOSTopen                                                   
828b7c20  HOSTwrite                                                  
828b7d00  __TI_wrt_ok                                                
828b7de0  close                                                      
828b7ec0  exit                                                       
828b7ec0  xdc_runtime_System_exitStd__E                              
828b7fa0  ltoa                                                       
828b8080  memset                                                     
828b8160  printf                                                     
828b8240  ti_sysbios_heaps_HeapMem_alloc__E                          
828b8320  ti_sysbios_knl_Swi_runLoop__I                              
828b8400  ti_sysbios_knl_Clock_TimerProxy_startup__E                 
828b8400  ti_sysbios_timers_timer64_Timer_startup__E                 
828b84e0  xdc_runtime_Text_visitRope2__I                             
828b85c0  yaffsfs_SetError                                           
828b85d8  yaffsfs_GetLastError                                       
828b85e8  yaffsfs_CheckMemRegion                                     
828b860c  yaffsfs_Lock                                               
828b8614  yaffsfs_Unlock                                             
828b8620  yaffsfs_LockInit                                           
828b8628  yaffsfs_CurrentTime                                        
828b8634  yaffsfs_malloc                                             
828b8644  yaffsfs_free                                               
828b8650  yaffsfs_OSInitialisation                                   
828b8658  yaffs_bug_fn                                               
828b86a0  HOSTread                                                   
828b8760  HOSTunlink                                                 
828b8820  __TI_doflush                                               
828b88e0  __c6xabi_divu                                              
828b88e0  __divu                                                     
828b89a0  __c6xabi_remi                                              
828b89a0  __remi                                                     
828b8a60  _pthread_cleanupFxn                                        
828b8b80  Osal_platformMalloc                                        
828b8b94  Osal_platformFree                                          
828b8bb4  Osal_platformSpiCsEnter                                    
828b8bd0  Osal_platformSpiCsExit                                     
828b8be0  ti_sysbios_hal_SecondsClock_increment__I                   
828b8ca0  ti_sysbios_heaps_HeapMem_getStats__E                       
828b8d60  ti_sysbios_knl_Clock_logTick__E                            
828b8e20  ti_sysbios_knl_Swi_schedule__I                             
828b8ee0  ti_sysbios_knl_Task_allBlockedFunction__I                  
828b8fa0  ti_sysbios_knl_Task_create                                 
828b9060  __TI_tls_init                                              
828b9120  xdc_runtime_Assert_raise__I                                
828b91e0  xdc_runtime_Error_setX__E                                  
828b92a0  xdc_runtime_LoggerBuf_Object__create__S                    
828b9360  xdc_runtime_SysMin_abort__E                                
828b9360  xdc_runtime_System_SupportProxy_abort__E                   
828b9420  xdc_runtime_SysMin_flush__E                                
828b9420  xdc_runtime_System_SupportProxy_flush__E                   
828b9420  xdc_runtime_System_flush__E                                
828b94e0  HOSTclose                                                  
828b9580  __TI_cleanup                                               
828b9620  __c6xabi_remu                                              
828b9620  __remu                                                     
828b96c0  _c_int00                                                   
828b9800  finddevice                                                 
828b98a0  memcpy                                                     
828b9940  ti_sysbios_family_c64p_Exception_Module_startup__E         
828b99e0  ti_sysbios_family_c64p_Hwi_dispatchC__I                    
828b9a80  ti_sysbios_family_c64p_Hwi_getStackInfo__E                 
828b9a80  ti_sysbios_hal_Hwi_HwiProxy_getStackInfo__E                
828b9a80  ti_sysbios_hal_Hwi_getStackInfo__E                         
828b9b20  ti_sysbios_timers_timer64_Timer_stop__E                    
828b9bc0  xdc_runtime_Core_assignParams__I                           
828b9c60  xdc_runtime_SysMin_putch__E                                
828b9c60  xdc_runtime_System_SupportProxy_putch__E                   
828b9d00  xdc_runtime_System_formatNum__I                            
828b9da0  xdc_runtime_System_putchar__I                              
828b9e40  xdc_runtime_Text_printVisFxn__I                            
828b9ee0  xdc_runtime_Text_xprintf__I                                
828b9f80  __TI_readmsg                                               
828ba000  __c6xabi_llshl                                             
828ba080  ti_sysbios_family_c62_TaskSupport_swap__E                  
828ba080  ti_sysbios_knl_Task_SupportProxy_swap__E                   
828ba100  strcat                                                     
828ba180  strncpy                                                    
828ba200  evmI2CInit                                                 
828ba280  ti_sysbios_BIOS_atExitFunc__I                              
828ba300  ti_sysbios_BIOS_registerRTSLock__I                         
828ba380  ti_sysbios_gates_GateHwi_Object__create__S                 
828ba400  ti_sysbios_gates_GateMutex_Object__create__S               
828ba480  ti_sysbios_hal_Hwi_checkStack                              
828ba500  ti_sysbios_hal_Hwi_initStack                               
828ba580  ti_sysbios_heaps_HeapMem_Object__create__S                 
828ba600  ti_sysbios_heaps_HeapMem_init__I                           
828ba680  ti_sysbios_knl_Clock_doTick__I                             
828ba700  ti_sysbios_knl_Idle_run__E                                 
828ba780  ti_sysbios_knl_Semaphore_pendTimeout__I                    
828ba800  ti_sysbios_knl_Swi_startup__E                              
828ba880  ti_sysbios_knl_Task_processVitalTaskFlag__I                
828ba900  ti_sysbios_knl_Task_restore__E                             
828ba980  malloc                                                     
828baa00  ti_sysbios_timers_timer64_Timer_getPeriod__E               
828baa80  remove                                                     
828baa80  unlink                                                     
828bab00  xdc_runtime_Core_assignLabel__I                            
828bab80  xdc_runtime_LoggerBuf_Instance_init__E                     
828bac00  xdc_runtime_LoggerBuf_Module_startup__E                    
828bac80  xdc_runtime_LoggerBuf_filterOutEvent__I                    
828bad00  xdc_runtime_SysMin_output__I                               
828bad80  xdc_runtime_System_atexit__E                               
828bae00  xdc_runtime_System_aprintf_va__E                           
828bae00  xdc_runtime_System_aprintf_va__F                           
828bae00  xdc_runtime_System_avprintf__E                             
828bae80  xdc_runtime_System_processAtExit__E                        
828baf00  xdc_runtime_System_printf_va__E                            
828baf00  xdc_runtime_System_printf_va__F                            
828baf00  xdc_runtime_System_vprintf__E                              
828baf80  yaffs_hweight8                                             
828bafb0  yaffs_hweight32                                            
828bb000  __TI_frcmpyd_div                                           
828bb060  __TI_writemsg                                              
828bb0b8  C$$IO$$                                                    
828bb0c0  __c6xabi_llshru                                            
828bb120  _subcull                                                   
828bb180  ti_sysbios_family_c64p_Hwi_switchAndDispatch__I            
828bb1e0  ti_sysbios_family_xxx_Hwi_switchAndRunFunc                 
828bb240  lseek                                                      
828bb2a0  memccpy                                                    
828bb300  memcmp                                                     
828bb360  strcmp                                                     
828bb3c0  strcpy                                                     
828bb420  strncmp                                                    
828bb480  ti_sysbios_BIOS_errorRaiseHook__I                          
828bb4e0  ti_sysbios_BIOS_removeRTSLock__I                           
828bb540  ti_sysbios_BIOS_startFunc__I                               
828bb5a0  ti_sysbios_family_c62_TaskSupport_start__E                 
828bb5a0  ti_sysbios_knl_Task_SupportProxy_start__E                  
828bb600  ti_sysbios_family_c66_Cache_Module_startup__E              
828bb660  ti_sysbios_gates_GateMutex_Object__delete__S               
828bb6c0  ti_sysbios_heaps_HeapMem_free__E                           
828bb720  ti_sysbios_knl_Clock_Module_startup__E                     
828bb780  ti_sysbios_knl_Queue_construct                             
828bb7e0  ti_sysbios_knl_Semaphore_construct                         
828bb840  ti_sysbios_knl_Swi_Module_startup__E                       
828bb8a0  ti_sysbios_knl_Task_Object__delete__S                      
828bb900  ti_sysbios_knl_Task_enter__I                               
828bb960  write                                                      
828bb9c0  xdc_runtime_LoggerBuf_Object__delete__S                    
828bba20  xdc_runtime_LoggerBuf_reset__E                             
828bba80  xdc_runtime_Memory_valloc__E                               
828bbae0  xdc_runtime_Text_cordText__E                               
828bbb40  __c6xabi_abort_msg                                         
828bbb80  __c6xabi_isinf                                             
828bbc00  __c6xabi_call_stub                                         
828bbc00  __call_stub                                                
828bbc40  _args_main                                                 
828bbcc0  ti_sysbios_family_c62_TaskSupport_buildTaskStack           
828bbd00  free                                                       
828bbd40  dspControlUserLEDs                                         
828bbd80  ti_sysbios_BIOS_exitFunc__I                                
828bbdc0  ti_sysbios_BIOS_rtsLock__I                                 
828bbe00  ti_sysbios_BIOS_rtsUnlock__I                               
828bbe40  ti_sysbios_family_c64p_Hwi_disableInterrupt__E             
828bbe40  ti_sysbios_hal_Hwi_HwiProxy_disableInterrupt__E            
828bbe40  ti_sysbios_hal_Hwi_disableInterrupt__E                     
828bbe80  ti_sysbios_family_c64p_Hwi_enableInterrupt__E              
828bbe80  ti_sysbios_hal_Hwi_HwiProxy_enableInterrupt__E             
828bbe80  ti_sysbios_hal_Hwi_enableInterrupt__E                      
828bbec0  ti_sysbios_gates_GateHwi_Handle__label__S                  
828bbec0  xdc_runtime_LoggerBuf_Module_GateProxy_Handle__label__S    
828bbec0  xdc_runtime_Main_Module_GateProxy_Handle__label__S         
828bbec0  xdc_runtime_System_Module_GateProxy_Handle__label__S       
828bbf00  ti_sysbios_gates_GateHwi_Object__delete__S                 
828bbf40  ti_sysbios_BIOS_RtsGateProxy_Handle__label__S              
828bbf40  ti_sysbios_gates_GateMutex_Handle__label__S                
828bbf40  ti_sysbios_heaps_HeapMem_Module_GateProxy_Handle__label__S 
828bbf80  ti_sysbios_gates_GateMutex_Instance_init__E                
828bbfc0  ti_sysbios_gates_GateMutex_leave__E                        
828bc000  ti_sysbios_heaps_HeapMem_Handle__label__S                  
828bc000  xdc_runtime_Memory_HeapProxy_Handle__label__S              
828bc040  ti_sysbios_heaps_HeapMem_Object__delete__S                 
828bc080  ti_sysbios_heaps_HeapMem_Object__get__S                    
828bc0c0  ti_sysbios_knl_Semaphore_destruct                          
828bc100  ti_sysbios_knl_Swi_Object__get__S                          
828bc140  ti_sysbios_knl_Task_Object__get__S                         
828bc180  ti_sysbios_knl_Task_sleepTimeout__I                        
828bc1c0  time                                                       
828bc200  vsprintf                                                   
828bc240  wcslen                                                     
828bc280  xdc_runtime_Error_check__E                                 
828bc2c0  xdc_runtime_Error_init__E                                  
828bc300  xdc_runtime_LoggerBuf_Handle__label__S                     
828bc340  xdc_runtime_LoggerBuf_Instance_finalize__E                 
828bc380  xdc_runtime_LoggerBuf_Object__get__S                       
828bc3c0  xdc_runtime_LoggerBuf_write0__E                            
828bc400  xdc_runtime_LoggerBuf_write1__E                            
828bc440  xdc_runtime_LoggerBuf_write2__E                            
828bc480  xdc_runtime_Registry_findById__E                           
828bc4c0  xdc_runtime_SysMin_Module_startup__E                       
828bc500  xdc_runtime_SysMin_exit__E                                 
828bc500  xdc_runtime_System_SupportProxy_exit__E                    
828bc540  xdc_runtime_System_abort__E                                
828bc580  xdc_runtime_System_aprintf__E                              
828bc5c0  xdc_runtime_System_exit__E                                 
828bc600  xdc_runtime_System_printf__E                               
828bc640  CSL_GPIO_open                                              
828bc660  __c6xabi_errno_addr                                        
828bc680  __c6xabi_pop_rts                                           
828bc680  __pop_rts                                                  
828bc6a0  __c6xabi_push_rts                                          
828bc6a0  __push_rts                                                 
828bc6c0  _nop                                                       
828bc740  _register_lock                                             
828bc760  _register_synch_api                                        
828bc780  _register_unlock                                           
828bc7a0  _signbit                                                   
828bc7c0  ti_sysbios_family_c62_TaskSupport_glue                     
828bc7e0  C$$EXIT                                                    
828bc7e0  abort                                                      
828bc7e0  xdc_runtime_System_abortStd__E                             
828bc800  copysign                                                   
828bc800  copysignl                                                  
828bc820  __TI_decompress_none                                       
828bc840  __TI_decompress_rle24                                      
828bc860  ti_sysbios_BIOS_RtsGateProxy_enter__E                      
828bc880  ti_sysbios_BIOS_RtsGateProxy_leave__E                      
828bc8a0  ti_sysbios_BIOS_exit__E                                    
828bc8c0  ti_sysbios_BIOS_linkedWithIncorrectBootLibrary__E          
828bc8e0  ti_sysbios_BIOS_nullFunc__I                                
828bc900  ti_sysbios_BIOS_setThreadType__E                           
828bc920  ti_sysbios_BIOS_start__E                                   
828bc940  ti_sysbios_family_c62_TaskSupport_Module__startupDone__S   
828bc940  ti_sysbios_knl_Task_SupportProxy_Module__startupDone__S    
828bc960  ti_sysbios_family_c62_TaskSupport_checkStack__E            
828bc960  ti_sysbios_knl_Task_SupportProxy_checkStack__E             
828bc980  ti_sysbios_family_c62_TaskSupport_getStackAlignment__E     
828bc980  ti_sysbios_knl_Task_SupportProxy_getStackAlignment__E      
828bc9a0  ti_sysbios_family_c64p_Hwi_Module__startupDone__F          
828bc9a0  ti_sysbios_family_c64p_Hwi_Module__startupDone__S          
828bc9a0  ti_sysbios_hal_Hwi_HwiProxy_Module__startupDone__S         
828bc9c0  ti_sysbios_family_c64p_Hwi_clearInterrupt__E               
828bc9c0  ti_sysbios_hal_Hwi_HwiProxy_clearInterrupt__E              
828bc9c0  ti_sysbios_hal_Hwi_clearInterrupt__E                       
828bc9e0  ti_sysbios_family_c64p_Hwi_startup__E                      
828bc9e0  ti_sysbios_hal_Hwi_HwiProxy_startup__E                     
828bc9e0  ti_sysbios_hal_Hwi_startup__E                              
828bca00  ti_sysbios_family_c64p_Hwi_switchFromBootStack__E          
828bca00  ti_sysbios_hal_Hwi_HwiProxy_switchFromBootStack__E         
828bca00  ti_sysbios_hal_Hwi_switchFromBootStack__E                  
828bca20  ti_sysbios_family_c64p_TimestampProvider_Module_startup__E 
828bca40  ti_sysbios_family_c64p_TimestampProvider_get64__E          
828bca40  xdc_runtime_LoggerBuf_TimestampProxy_get64__E              
828bca60  ti_sysbios_family_c64p_tci6488_TimerSupport_enable__E      
828bca60  ti_sysbios_timers_timer64_Timer_TimerSupportProxy_enable__E
828bca80  ti_sysbios_family_c66_Cache_RTSSynchInv__I                 
828bcaa0  ti_sysbios_family_c66_Cache_RTSSynchWbInv__I               
828bcac0  ti_sysbios_family_c66_Cache_RTSSynchWb__I                  
828bcae0  ti_sysbios_family_c66_Cache_wait__E                        
828bcb00  ti_sysbios_gates_GateHwi_Instance_init__E                  
828bcb20  ti_sysbios_gates_GateHwi_enter__E                          
828bcb40  ti_sysbios_gates_GateHwi_leave__E                          
828bcb60  ti_sysbios_gates_GateHwi_query__E                          
828bcb60  xdc_runtime_LoggerBuf_Module_GateProxy_query__E            
828bcb60  xdc_runtime_Main_Module_GateProxy_query__E                 
828bcb60  xdc_runtime_System_Module_GateProxy_query__E               
828bcb80  ti_sysbios_gates_GateMutex_Instance_finalize__E            
828bcba0  ti_sysbios_BIOS_RtsGateProxy_query__E                      
828bcba0  ti_sysbios_gates_GateMutex_query__E                        
828bcba0  ti_sysbios_heaps_HeapMem_Module_GateProxy_query__E         
828bcbc0  ti_sysbios_hal_Hwi_Module_startup__E                       
828bcbe0  ti_sysbios_hal_SecondsClock_get__E                         
828bcbe0  ti_sysbios_hal_Seconds_SecondsProxy_get__E                 
828bcbe0  ti_sysbios_hal_Seconds_get__E                              
828bcc00  ti_sysbios_heaps_HeapMem_Module_GateProxy_enter__E         
828bcc20  ti_sysbios_heaps_HeapMem_Module_GateProxy_leave__E         
828bcc40  ti_sysbios_heaps_HeapMem_isBlocking__E                     
828bcc60  ti_sysbios_knl_Clock_Module__startupDone__F                
828bcc60  ti_sysbios_knl_Clock_Module__startupDone__S                
828bcc80  ti_sysbios_knl_Clock_TimerProxy_getFreq__E                 
828bcca0  ti_sysbios_knl_Clock_TimerProxy_getMaxTicks__E             
828bccc0  ti_sysbios_knl_Clock_TimerProxy_getPeriod__E               
828bcce0  ti_sysbios_knl_Idle_loop__E                                
828bcd00  ti_sysbios_knl_Mailbox_Object__get__S                      
828bcd20  ti_sysbios_knl_Queue_Instance_init__E                      
828bcd40  ti_sysbios_knl_Queue_Object__get__S                        
828bcd60  ti_sysbios_knl_Queue_destruct                              
828bcd80  ti_sysbios_knl_Queue_empty__E                              
828bcda0  ti_sysbios_knl_Semaphore_Instance_finalize__E              
828bcdc0  ti_sysbios_knl_Swi_disable__E                              
828bcde0  ti_sysbios_knl_Task_delete                                 
828bce00  ti_sysbios_knl_Task_disable__E                             
828bce20  ti_sysbios_knl_Task_startup__E                             
828bce40  ti_sysbios_rts_ti_ReentSupport_taskRegHook__I              
828bce60  ti_sysbios_knl_Clock_TimerProxy_Module__startupDone__S     
828bce60  ti_sysbios_timers_timer64_Timer_Module__startupDone__F     
828bce60  ti_sysbios_timers_timer64_Timer_Module__startupDone__S     
828bce80  ti_sysbios_timers_timer64_Timer_getMaxTicks__E             
828bcea0  xdc_runtime_Error_getSite__E                               
828bcec0  xdc_runtime_Error_raiseX__E                                
828bcee0  xdc_runtime_Gate_enterSystem__E                            
828bcf00  xdc_runtime_Gate_leaveSystem__E                            
828bcf20  xdc_runtime_Memory_HeapProxy_alloc__E                      
828bcf40  xdc_runtime_Memory_HeapProxy_free__E                       
828bcf60  xdc_runtime_LoggerBuf_Module_GateProxy_enter__E            
828bcf80  xdc_runtime_LoggerBuf_Module_GateProxy_leave__E            
828bcfa0  xdc_runtime_LoggerBuf_disable__E                           
828bcfc0  xdc_runtime_LoggerBuf_enable__E                            
828bcfe0  xdc_runtime_Memory_calloc__E                               
828bd000  xdc_runtime_Memory_free__E                                 
828bd020  xdc_runtime_Memory_getMaxDefaultTypeAlign__E               
828bd040  xdc_runtime_Startup_exec__I                                
828bd060  xdc_runtime_Startup_rtsDone__E                             
828bd080  xdc_runtime_SysMin_ready__E                                
828bd080  xdc_runtime_System_SupportProxy_ready__E                   
828bd0a0  xdc_runtime_System_Module_GateProxy_enter__E               
828bd0c0  xdc_runtime_System_Module_GateProxy_leave__E               
828bd0e0  xdc_runtime_System_Module_startup__E                       
828bd100  xdc_runtime_System_snprintf_va__E                          
828bd100  xdc_runtime_System_snprintf_va__F                          
828bd100  xdc_runtime_System_vsnprintf__E                            
828bd120  xdc_runtime_Text_ropeText__E                               
828bd140  xdc_runtime_Text_visitRope__I                              
828bd160  xdc_runtime_Text_charTab__A                                
828c0bb8  ti_sysbios_family_c66_Cache_marvalues__C                   
828c1668  _ctypes_                                                   
828c1769  ti_sysbios_timers_timer64_Timer_localTimerBaseId__C        
828c176a  ti_sysbios_family_c64p_Exception_Module__id__C             
828c1970  xdc_runtime_Text_nodeTab__A                                
828c1fbc  ti_sysbios_knl_Task_Object__PARAMS__C                      
828c2040  xdc_runtime_LoggerBuf_Module__FXNS__C                      
828c2080  xdc_runtime_Startup_sfxnTab__A                             
828c2160  ti_sysbios_heaps_HeapMem_Module__FXNS__C                   
828c2188  xdc_runtime_LoggerBuf_Object__PARAMS__C                    
828c21d4  ti_sysbios_gates_GateHwi_Module__FXNS__C                   
828c21f8  ti_sysbios_gates_GateMutex_Module__FXNS__C                 
828c221c  ti_sysbios_heaps_HeapMem_Object__PARAMS__C                 
828c2240  ti_sysbios_knl_Semaphore_Object__PARAMS__C                 
828c2264  ti_sysbios_gates_GateHwi_Object__DESC__C                   
828c2284  ti_sysbios_gates_GateMutex_Object__DESC__C                 
828c22a4  ti_sysbios_heaps_HeapMem_Object__DESC__C                   
828c22c4  ti_sysbios_knl_Queue_Object__DESC__C                       
828c22e4  ti_sysbios_knl_Semaphore_Object__DESC__C                   
828c2304  ti_sysbios_knl_Task_Object__DESC__C                        
828c2324  xdc_runtime_LoggerBuf_Object__DESC__C                      
828c2380  xdc_runtime_Startup_sfxnRts__A                             
828c23b4  ti_sysbios_gates_GateHwi_Object__PARAMS__C                 
828c23cc  ti_sysbios_gates_GateMutex_Object__PARAMS__C               
828c23e4  ti_sysbios_knl_Queue_Object__PARAMS__C                     
828c23fc  ti_sysbios_family_c62_TaskSupport_stackAlignment__C        
828c2400  ti_sysbios_knl_Task_hooks__A                               
828c242c  ti_sysbios_family_c64p_Exception_E_exceptionMax__C         
828c2430  ti_sysbios_knl_Idle_funcList__A                            
828c2438  ti_sysbios_knl_Idle_funcList__C                            
828c2440  ti_sysbios_knl_Task_hooks__C                               
828c2448  xdc_runtime_Startup_firstFxns__A                           
828c2450  xdc_runtime_Startup_firstFxns__C                           
828c2458  xdc_runtime_Startup_lastFxns__C                            
828c2466  ti_sysbios_family_c64p_Exception_useInternalBuffer__C      
828c2468  ti_sysbios_family_c64p_Exception_exceptionHook__C          
828c246c  ti_sysbios_family_c64p_Exception_externalHook__C           
828c2470  ti_sysbios_family_c64p_Exception_internalHook__C           
828c2474  ti_sysbios_family_c64p_Exception_nmiHook__C                
828c2478  ti_sysbios_family_c64p_Hwi_INTRMUX1Address__C              
828c247c  ti_sysbios_family_c64p_Hwi_LD_end__C                       
828c2480  ti_sysbios_family_c64p_Hwi_LM_begin__C                     
828c2484  ti_sysbios_family_c64p_Hwi_Module__diagsEnabled__C         
828c2488  ti_sysbios_family_c64p_Hwi_Module__diagsIncluded__C        
828c248c  ti_sysbios_family_c64p_Hwi_Module__diagsMask__C            
828c2490  ti_sysbios_family_c64p_Hwi_Module__loggerFxn1__C           
828c2494  ti_sysbios_family_c64p_Hwi_Module__loggerFxn8__C           
828c2498  ti_sysbios_family_c64p_Hwi_Module__loggerObj__C            
828c249c  ti_sysbios_family_c66_Cache_E_invalidL1CacheSize__C        
828c24a0  ti_sysbios_family_c66_Cache_E_invalidL2CacheSize__C        
828c24a4  ti_sysbios_family_c66_Cache_atomicBlockSize__C             
828c24a8  ti_sysbios_gates_GateMutex_A_badContext__C                 
828c24ac  ti_sysbios_gates_GateMutex_Instance_State_sem__O           
828c24b0  ti_sysbios_gates_GateMutex_Module__diagsEnabled__C         
828c24b4  ti_sysbios_gates_GateMutex_Module__diagsIncluded__C        
828c24b8  ti_sysbios_gates_GateMutex_Module__diagsMask__C            
828c24bc  ti_sysbios_hal_Hwi_E_stackOverflow__C                      
828c24c0  ti_sysbios_hal_SecondsClock_Module_State_clock__O          
828c24c4  ti_sysbios_heaps_HeapMem_A_align__C                        
828c24c8  ti_sysbios_heaps_HeapMem_A_heapSize__C                     
828c24cc  ti_sysbios_heaps_HeapMem_A_invalidFree__C                  
828c24d0  ti_sysbios_heaps_HeapMem_A_zeroBlock__C                    
828c24d4  ti_sysbios_heaps_HeapMem_E_memory__C                       
828c24d8  ti_sysbios_heaps_HeapMem_Module__diagsEnabled__C           
828c24dc  ti_sysbios_heaps_HeapMem_Module__diagsIncluded__C          
828c24e0  ti_sysbios_heaps_HeapMem_Module__diagsMask__C              
828c24e4  ti_sysbios_heaps_HeapMem_Module__gateObj__C                
828c24e8  ti_sysbios_heaps_HeapMem_Object__count__C                  
828c24ec  ti_sysbios_heaps_HeapMem_reqAlign__C                       
828c24f0  ti_sysbios_knl_Clock_LM_begin__C                           
828c24f4  ti_sysbios_knl_Clock_LM_tick__C                            
828c24f8  ti_sysbios_knl_Clock_LW_delayed__C                         
828c24fc  ti_sysbios_knl_Clock_Module_State_clockQ__O                
828c2500  ti_sysbios_knl_Clock_Module__diagsEnabled__C               
828c2504  ti_sysbios_knl_Clock_Module__diagsIncluded__C              
828c2508  ti_sysbios_knl_Clock_Module__diagsMask__C                  
828c250c  ti_sysbios_knl_Clock_Module__loggerFxn1__C                 
828c2510  ti_sysbios_knl_Clock_Module__loggerFxn2__C                 
828c2514  ti_sysbios_knl_Clock_Module__loggerObj__C                  
828c2518  ti_sysbios_knl_Clock_tickPeriod__C                         
828c251c  ti_sysbios_knl_Mailbox_Instance_State_freeQue__O           
828c2520  ti_sysbios_knl_Mailbox_Object__count__C                    
828c2524  ti_sysbios_knl_Mailbox_maxTypeAlign__C                     
828c2528  ti_sysbios_knl_Semaphore_A_badContext__C                   
828c252c  ti_sysbios_knl_Semaphore_A_noEvents__C                     
828c2530  ti_sysbios_knl_Semaphore_A_overflow__C                     
828c2534  ti_sysbios_knl_Semaphore_A_pendTaskDisabled__C             
828c2538  ti_sysbios_knl_Semaphore_Instance_State_pendQ__O           
828c253c  ti_sysbios_knl_Semaphore_LM_pend__C                        
828c2540  ti_sysbios_knl_Semaphore_LM_post__C                        
828c2544  ti_sysbios_knl_Semaphore_Module__diagsEnabled__C           
828c2548  ti_sysbios_knl_Semaphore_Module__diagsIncluded__C          
828c254c  ti_sysbios_knl_Semaphore_Module__diagsMask__C              
828c2550  ti_sysbios_knl_Semaphore_Module__loggerFxn2__C             
828c2554  ti_sysbios_knl_Semaphore_Module__loggerFxn4__C             
828c2558  ti_sysbios_knl_Semaphore_Module__loggerObj__C              
828c255c  ti_sysbios_knl_Swi_LD_end__C                               
828c2560  ti_sysbios_knl_Swi_LM_begin__C                             
828c2564  ti_sysbios_knl_Swi_LM_post__C                              
828c2568  ti_sysbios_knl_Swi_Module__diagsEnabled__C                 
828c256c  ti_sysbios_knl_Swi_Module__diagsIncluded__C                
828c2570  ti_sysbios_knl_Swi_Module__diagsMask__C                    
828c2574  ti_sysbios_knl_Swi_Module__loggerFxn1__C                   
828c2578  ti_sysbios_knl_Swi_Module__loggerFxn4__C                   
828c257c  ti_sysbios_knl_Swi_Module__loggerObj__C                    
828c2580  ti_sysbios_knl_Swi_Object__count__C                        
828c2584  ti_sysbios_knl_Task_A_badPriority__C                       
828c2588  ti_sysbios_knl_Task_A_badTaskState__C                      
828c258c  ti_sysbios_knl_Task_A_badThreadType__C                     
828c2590  ti_sysbios_knl_Task_A_badTimeout__C                        
828c2594  ti_sysbios_knl_Task_A_noPendElem__C                        
828c2598  ti_sysbios_knl_Task_A_sleepTaskDisabled__C                 
828c259c  ti_sysbios_knl_Task_E_spOutOfBounds__C                     
828c25a0  ti_sysbios_knl_Task_E_stackOverflow__C                     
828c25a4  ti_sysbios_knl_Task_LD_block__C                            
828c25a8  ti_sysbios_knl_Task_LD_exit__C                             
828c25ac  ti_sysbios_knl_Task_LD_ready__C                            
828c25b0  ti_sysbios_knl_Task_LM_sleep__C                            
828c25b4  ti_sysbios_knl_Task_LM_switch__C                           
828c25b8  ti_sysbios_knl_Task_Module_State_inactiveQ__O              
828c25bc  ti_sysbios_knl_Task_Module__diagsEnabled__C                
828c25c0  ti_sysbios_knl_Task_Module__diagsIncluded__C               
828c25c4  ti_sysbios_knl_Task_Module__diagsMask__C                   
828c25c8  ti_sysbios_knl_Task_Module__loggerFxn2__C                  
828c25cc  ti_sysbios_knl_Task_Module__loggerFxn4__C                  
828c25d0  ti_sysbios_knl_Task_Module__loggerObj__C                   
828c25d4  ti_sysbios_knl_Task_Object__count__C                       
828c25d8  ti_sysbios_knl_Task_Object__heap__C                        
828c25dc  ti_sysbios_knl_Task_allBlockedFunc__C                      
828c25e0  ti_sysbios_knl_Task_defaultStackHeap__C                    
828c25e4  ti_sysbios_knl_Task_defaultStackSize__C                    
828c25e8  ti_sysbios_knl_Task_numConstructedTasks__C                 
828c25ec  ti_sysbios_timers_timer64_Timer_A_notAvailable__C          
828c25f0  ti_sysbios_timers_timer64_Timer_E_cannotSupport__C         
828c25f4  ti_sysbios_timers_timer64_Timer_Module__diagsEnabled__C    
828c25f8  ti_sysbios_timers_timer64_Timer_Module__diagsIncluded__C   
828c25fc  ti_sysbios_timers_timer64_Timer_Module__diagsMask__C       
828c2600  ti_sysbios_timers_timer64_Timer_anyMaskHigh__C             
828c2604  ti_sysbios_timers_timer64_Timer_anyMask__C                 
828c2608  ti_sysbios_timers_timer64_Timer_freqDivisor__C             
828c260c  ti_sysbios_timers_timer64_Timer_numLocalTimers__C          
828c2610  ti_sysbios_timers_timer64_Timer_numTimerDevices__C         
828c2614  xdc_runtime_Assert_E_assertFailed__C                       
828c2618  xdc_runtime_Core_A_initializedParams__C                    
828c261c  xdc_runtime_Core_Module__diagsEnabled__C                   
828c2620  xdc_runtime_Core_Module__diagsIncluded__C                  
828c2624  xdc_runtime_Core_Module__diagsMask__C                      
828c2628  xdc_runtime_Error_E_memory__C                              
828c262c  xdc_runtime_Error_Module__diagsEnabled__C                  
828c2630  xdc_runtime_Error_Module__diagsIncluded__C                 
828c2634  xdc_runtime_Error_Module__diagsMask__C                     
828c2638  xdc_runtime_Error_Module__loggerFxn8__C                    
828c263c  xdc_runtime_Error_Module__loggerObj__C                     
828c2640  xdc_runtime_Error_policyFxn__C                             
828c2644  xdc_runtime_Error_policy__C                                
828c2648  xdc_runtime_Error_raiseHook__C                             
828c264c  xdc_runtime_IFilterLogger_Interface__BASE__C               
828c2650  xdc_runtime_IGateProvider_Interface__BASE__C               
828c2654  xdc_runtime_IHeap_Interface__BASE__C                       
828c2658  xdc_runtime_ILogger_Interface__BASE__C                     
828c265c  xdc_runtime_IModule_Interface__BASE__C                     
828c2660  xdc_runtime_Log_L_error__C                                 
828c2664  xdc_runtime_LoggerBuf_E_badLevel__C                        
828c2668  xdc_runtime_LoggerBuf_Module__gateObj__C                   
828c266c  xdc_runtime_LoggerBuf_Object__count__C                     
828c2670  xdc_runtime_LoggerBuf_statusLogger__C                      
828c2674  xdc_runtime_Memory_defaultHeapInstance__C                  
828c2678  xdc_runtime_Startup_execImpl__C                            
828c267c  xdc_runtime_Startup_maxPasses__C                           
828c2680  xdc_runtime_Startup_sfxnRts__C                             
828c2684  xdc_runtime_Startup_sfxnTab__C                             
828c2688  xdc_runtime_SysMin_bufSize__C                              
828c268c  xdc_runtime_SysMin_outputFunc__C                           
828c2690  xdc_runtime_System_Module__gateObj__C                      
828c2694  xdc_runtime_System_abortFxn__C                             
828c2698  xdc_runtime_System_exitFxn__C                              
828c269c  xdc_runtime_System_extendFxn__C                            
828c26a0  xdc_runtime_System_maxAtexitHandlers__C                    
828c26a4  xdc_runtime_Text_charTab__C                                
828c26a8  xdc_runtime_Text_nameEmpty__C                              
828c26ac  xdc_runtime_Text_nameStatic__C                             
828c26b0  xdc_runtime_Text_nameUnknown__C                            
828c26b4  xdc_runtime_Text_nodeTab__C                                
828c26b8  xdc_runtime_Text_visitRopeFxn__C                           
828c26bc  ti_sysbios_family_c64p_Hwi_Module__id__C                   
828c26be  ti_sysbios_family_c64p_Hwi_Module__loggerDefined__C        
828c26c0  ti_sysbios_family_c66_Cache_Module__id__C                  
828c26c2  ti_sysbios_family_c66_Cache_registerRTSSynch__C            
828c26c4  ti_sysbios_gates_GateMutex_Module__id__C                   
828c26c6  ti_sysbios_hal_Hwi_Module__id__C                           
828c26c8  ti_sysbios_heaps_HeapMem_Module__id__C                     
828c26ca  ti_sysbios_knl_Clock_Module__id__C                         
828c26cc  ti_sysbios_knl_Clock_Module__loggerDefined__C              
828c26ce  ti_sysbios_knl_Semaphore_Module__id__C                     
828c26d0  ti_sysbios_knl_Semaphore_Module__loggerDefined__C          
828c26d2  ti_sysbios_knl_Swi_Module__id__C                           
828c26d4  ti_sysbios_knl_Swi_Module__loggerDefined__C                
828c26d6  ti_sysbios_knl_Task_Module__id__C                          
828c26d8  ti_sysbios_knl_Task_Module__loggerDefined__C               
828c26da  ti_sysbios_timers_timer64_Timer_Module__id__C              
828c26dc  ti_sysbios_timers_timer64_Timer_startupNeeded__C           
828c26de  ti_sysbios_timers_timer64_Timer_useTimer64pRegMap__C       
828c26e0  xdc_runtime_Core_Module__id__C                             
828c26e2  xdc_runtime_Error_Module__loggerDefined__C                 
828c26e4  xdc_runtime_Error_maxDepth__C                              
828c26e6  xdc_runtime_LoggerBuf_Module__id__C                        
828c26e8  xdc_runtime_LoggerBuf_filterByLevel__C                     
828c26ea  xdc_runtime_Memory_Module__id__C                           
828c26ec  xdc_runtime_SysMin_flushAtExit__C                          
828c26ee  xdc_runtime_Text_charCnt__C                                
828c26f0  xdc_runtime_Text_isLoaded__C                               
828c26f2  xdc_runtime_Text_registryModsLastId__C                     
828c26f4  xdc_runtime_Text_unnamedModsLastId__C                      
828c2750  gDeviceNandBBlist                                          
828c37ac  gDeviceNand                                                
828c37e4  gDeviceNor                                                 
828c381c  gDeviceEeprom0                                             
828c3854  gDeviceEeprom1                                             
828c3890  emac_port_mode                                             
828c3898  _ftable                                                    
828c3a78  ti_sysbios_timers_timer64_Timer_Module_State_0_device__A   
828c3bf8  _stream                                                    
828c3c98  ti_sysbios_knl_Swi_Module_State_0_readyQ__A                
828c3d18  ti_sysbios_knl_Task_Module_State_0_readyQ__A               
828c3d98  ti_sysbios_timers_timer64_Timer_Module_State_0_gctrl__A    
828c3e18  ti_sysbios_timers_timer64_Timer_Module_State_0_handles__A  
828c3e98  ti_sysbios_timers_timer64_Timer_Module_State_0_intFreqs__A 
828c3f18  _device                                                    
828c3f90  ti_sysbios_family_c64p_Hwi_Module__state__V                
828c3ffc  _lock                                                      
828c4000  ti_sysbios_gates_GateMutex_Object__table__V                
828c4060  ti_sysbios_knl_Task_Object__table__V                       
828c40bc  _unlock                                                    
828c40c0  ti_sysbios_timers_timer64_Timer_Object__table__V           
828c4110  ti_sysbios_knl_Task_Module__state__V                       
828c4158  ti_sysbios_hal_SecondsClock_Module__state__V               
828c4194  ti_sysbios_family_c64p_Exception_Module__state__V          
828c41c4  __TI_ft_end                                                
828c41c8  ti_sysbios_knl_Swi_Object__table__V                        
828c41f8  ti_sysbios_knl_Clock_Module__state__V                      
828c4224  ti_sysbios_BIOS_Module__state__V                           
828c4248  xdc_runtime_LoggerBuf_Object__table__V                     
828c426c  xdc_runtime_Error_IgnoreBlock                              
828c428c  ti_sysbios_knl_Swi_Module__state__V                        
828c42a8  ti_sysbios_family_c64p_Hwi_Object__table__V                
828c42c0  ti_sysbios_heaps_HeapMem_Object__table__V                  
828c42d8  ti_sysbios_timers_timer64_Timer_Module__state__V           
828c42f0  cpsgmiiPortBaseAddr                                        
828c4300  xdc_runtime_System_Module_State_0_atexitHandlers__A        
828c4310  __TI_cleanup_ptr                                           
828c4314  __TI_dtors_ptr                                             
828c4318  __TI_enable_exit_profile_output                            
828c431c  xdc_runtime_SysMin_Module__state__V                        
828c4328  ti_sysbios_gates_GateHwi_Module__root__V                   
828c4330  ti_sysbios_gates_GateMutex_Module__root__V                 
828c4338  ti_sysbios_hal_Hwi_Object__table__V                        
828c4340  ti_sysbios_heaps_HeapMem_Module__root__V                   
828c4348  ti_sysbios_knl_Queue_Module__root__V                       
828c4350  ti_sysbios_knl_Semaphore_Module__root__V                   
828c4358  ti_sysbios_knl_Task_Module__root__V                        
828c4360  xdc_runtime_LoggerBuf_Module__root__V                      
828c4368  xdc_runtime_Registry_Module__state__V                      
828c4370  xdc_runtime_Startup_Module__state__V                       
828c4378  xdc_runtime_System_Module__state__V                        
828c4380  yaffsfs_deviceList                                         
828c4388  xdc_runtime_LoggerBuf_Module__state__V                     
828c438e  xdc_runtime_Error_Module__state__V                         
828c4390  __errno                                                    
828c4390  errno                                                      
828c4394  ti_sysbios_rts_ti_ReentSupport_Module__state__V            
828c4398  ti_sysbios_gates_GateHwi_Object__table__V                  
828c439c  xdc_runtime_Memory_Module__state__V                        
828c43a0  ti_sysbios_knl_Task_Module_State_0_idleTask__A             
828c4400  ti_sysbios_family_c64p_Hwi0                                
828c4400  ti_sysbios_family_c64p_Hwi_int0                            
828c4420  ti_sysbios_family_c64p_Hwi_int1                            
828c4440  ti_sysbios_family_c64p_Hwi_int2                            
828c4460  ti_sysbios_family_c64p_Hwi_int3                            
828c4480  ti_sysbios_family_c64p_Hwi_int4                            
828c44a0  ti_sysbios_family_c64p_Hwi_int5                            
828c44c0  ti_sysbios_family_c64p_Hwi_int6                            
828c44e0  ti_sysbios_family_c64p_Hwi_int7                            
828c4500  ti_sysbios_family_c64p_Hwi_int8                            
828c4520  ti_sysbios_family_c64p_Hwi_int9                            
828c4540  ti_sysbios_family_c64p_Hwi_int10                           
828c4560  ti_sysbios_family_c64p_Hwi_int11                           
828c4580  ti_sysbios_family_c64p_Hwi_int12                           
828c45a0  ti_sysbios_family_c64p_Hwi_int13                           
828c45c0  ti_sysbios_family_c64p_Hwi_int14                           
828c45e0  ti_sysbios_family_c64p_Hwi_int15                           
828c4708  __CIOBUF_                                                  
828c4828  __TI_STATIC_BASE                                           
828c4844  yaffs_wr_attempts                                          
828c4860  platform_errno                                             
828c4864  platform_init_return_code                                  
828c486c  yaffs_trace_mask                                           
828c4f08  __TI_Handler_Table_Base                                    
828c4f10  __TI_CINIT_Base                                            
828c4f10  __TI_Handler_Table_Limit                                   
828c4f38  __TI_CINIT_Limit                                           
ffffffff  __TI_pprof_out_hndl                                        
ffffffff  __TI_prof_data_size                                        
ffffffff  __TI_prof_data_start                                       
ffffffff  __binit__                                                  
ffffffff  __c_args__                                                 
ffffffff  binit                                                      
UNDEFED   __TI_INITARRAY_Base                                        
UNDEFED   __TI_INITARRAY_Limit                                       
UNDEFED   __TI_TLS_INIT_Base                                         
UNDEFED   __TI_TLS_INIT_Limit                                        

[1125 symbols]
