******************************************************************************
               TMS320C6x Linker PC v8.3.3                      
******************************************************************************
>> Linked Wed May  8 15:10:47 2019

OUTPUT FILE NAME:   <basic-platform.out>
ENTRY POINT SYMBOL: "_c_int00"  address: 80019c00


MEMORY CONFIGURATION

         name            origin    length      used     unused   attr    fill
----------------------  --------  ---------  --------  --------  ----  --------
  L2SRAM                00800000   00100000  00004000  000fc000  RW X
  MSMCSRAM              0c000000   00600000  00207802  003f87fe  RW X
  DDR                   80000000   08000000  000398bd  07fc6743  RW X
  CORE1DDR              88000000   08000000  00000000  08000000  R  X


SEGMENT ALLOCATION MAP

run origin  load origin   length   init length attrs members
----------  ----------- ---------- ----------- ----- -------
00800000    00800000    00004000   00000000    rw-
  00800000    00800000    00004000   00000000    rw- .stack
0c200000    0c200000    00006882   00000000    rw-
  0c200000    0c200000    00006882   00000000    rw- .qmss
0c206900    0c206900    00000f80   00000000    rw-
  0c206900    0c206900    00000f80   00000000    rw- .cppi
80000000    80000000    0001fd60   0001fd60    r-x
  80000000    80000000    0001fd60   0001fd60    r-x .text
8001fd60    8001fd60    000111b2   00000000    rw-
  8001fd60    8001fd60    000111b2   00000000    rw- .far
80030f18    80030f18    00004c1f   00004c1f    r--
  80030f18    80030f18    00004c1f   00004c1f    r-- .const
80035b38    80035b38    00002798   00000000    rw-
  80035b38    80035b38    00002654   00000000    rw- .fardata
  80038190    80038190    00000120   00000000    rw- .cio
  800382b0    800382b0    00000006   00000000    rw- .bss
  800382b8    800382b8    00000018   00000000    rw- .neardata
800382d0    800382d0    00000010   00000010    r--
  800382d0    800382d0    00000010   00000010    r-- .switch
80038400    80038400    000015e8   000015e8    r-x
  80038400    80038400    00000200   00000200    r-x .vecs
  80038600    80038600    000013e8   000013e8    r-- .cinit


SECTION ALLOCATION MAP

 output                                  attributes/
section   page    origin      length       input sections
--------  ----  ----------  ----------   ----------------
ti.sdo.ipc.SharedRegion_0 
*          0    0c000000    00200000     NOLOAD SECTION
                  0c000000    00200000     --HOLE--

.stack     0    00800000    00004000     UNINITIALIZED
                  00800000    00000008     boot.ae66 : boot.oe66 (.stack)
                  00800008    00003ff8     --HOLE--

.bss       0    800382b0    00000006     UNINITIALIZED
                  800382b0    00000004     (.common:Ipc_sr0MemorySetup)
                  800382b4    00000002     (.common:core_id)

.neardata 
*          0    800382b8    00000018     UNINITIALIZED
                  800382b8    00000018     qmss_osal.obj (.neardata)

.rodata    0    800382d0    00000000     UNINITIALIZED

.cinit     0    80038600    000013e8     
                  80038600    00001374     (.cinit..fardata.load) [load image, compression = rle]
                  80039974    0000000d     (.cinit..far.load) [load image, compression = rle]
                  80039981    0000000b     (.cinit..cppi.load) [load image, compression = rle]
                  8003998c    0000000b     (.cinit..qmss.load) [load image, compression = rle]
                  80039997    00000009     (.cinit..bss.load) [load image, compression = rle]
                  800399a0    00000009     (.cinit..neardata.load) [load image, compression = rle]
                  800399a9    00000003     --HOLE-- [fill = 0]
                  800399ac    00000008     (__TI_handler_table)
                  800399b4    00000004     --HOLE-- [fill = 0]
                  800399b8    00000030     (__TI_cinit_table)

.init_array 
*          0    80000000    00000000     UNINITIALIZED

.qmss      0    0c200000    00006882     UNINITIALIZED
                  0c200000    00006880     ti.drv.qmss.ae66 : qmss_drv.oe66 (.qmss:uninit)
                  0c206880    00000002                      : qmss_drv.oe66 (.qmss:init)

.cppi      0    0c206900    00000f80     UNINITIALIZED
                  0c206900    00000f80     ti.drv.cppi.ae66 : cppi_drv.oe66 (.cppi)

.vecs      0    80038400    00000200     
                  80038400    00000200     app_pe66.oe66 (.vecs)

xdc.meta   0    80000000    000000e8     COPY SECTION
                  80000000    000000e8     app_pe66.oe66 (xdc.meta)

.text      0    80000000    0001fd60     
                  80000000    00000c60     ipc.ae66 : Ipc.obj (.text:ti_sdo_ipc_GateMP_Instance_init__E)
                  80000c60    00000980     ti.drv.qmss.ae66 : qmss_drv.oe66 (.text:Qmss_initSubSys)
                  800015e0    000008a0     ti.targets.rts6000.ae66 : System.oe66 (.text:xdc_runtime_System_doPrint__I)
                  80001e80    00000780     sysbios.ae66 : BIOS.obj (.text:ti_sysbios_family_c64p_Exception_handler__I)
                  80002600    00000740     ipc.ae66 : Ipc.obj (.text:MessageQ_put)
                  80002d40    00000740     sysbios.ae66 : BIOS.obj (.text:ti_sysbios_knl_Semaphore_pend__E)
                  80003480    00000700                  : BIOS.obj (.text:ti_sysbios_timers_timer64_Timer_Module_startup__E)
                  80003b80    000006c0     qmss_osal.obj (.text)
                  80004240    00000640     ipc.ae66 : Ipc.obj (.text:Ipc_attach)
                  80004880    00000620              : Ipc.obj (.text:ti_sdo_ipc_heaps_HeapMemMP_alloc__E)
                  80004ea0    00000620     sysbios.ae66 : BIOS.obj (.text:ti_sysbios_heaps_HeapMem_allocUnprotected__E)
                  800054c0    00000600     ipc.ae66 : Ipc.obj (.text:ti_sdo_ipc_GateMP_setRegion0Reserved__F)
                  80005ac0    000005c0     sysbios.ae66 : BIOS.obj (.text:ti_sysbios_heaps_HeapMem_freeUnprotected__E)
                  80006080    000005a0     ipc.ae66 : Ipc.obj (.text:ti_sdo_ipc_nsremote_NameServerRemoteNotify_Instance_init__E)
                  80006620    00000560              : Ipc.obj (.text:ti_sdo_ipc_GateMP_Instance_finalize__E)
                  80006b80    00000540              : Ipc.obj (.text:ti_sdo_ipc_heaps_HeapMemMP_free__E)
                  800070c0    00000500     sysbios.ae66 : BIOS.obj (.text:ti_sysbios_knl_Task_Instance_finalize__E)
                  800075c0    000004c0     ipc.ae66 : Ipc.obj (.text:ti_sdo_ipc_heaps_HeapMemMP_Instance_init__E)
                  80007a80    00000480     ti.drv.cppi.ae66 : cppi_drv.oe66 (.text:Cppi_init)
                  80007f00    00000480     ipc.ae66 : Ipc.obj (.text:NameServer_add)
                  80008380    00000480     sysbios.ae66 : BIOS.obj (.text:ti_sysbios_gates_GateMutexPri_enter__E)
                  80008800    00000460                  : BIOS.obj (.text:ti_sysbios_knl_Task_sleep__E)
                  80008c60    00000420     ipc.ae66 : Ipc.obj (.text:Notify_sendEvent)
                  80009080    00000420     sysbios.ae66 : BIOS.obj (.text:ti_sysbios_knl_Task_setPri__E)
                  800094a0    00000400     ipc.ae66 : Ipc.obj (.text:Notify_registerEventSingle)
                  800098a0    00000400              : Ipc.obj (.text:ti_sdo_ipc_nsremote_NameServerRemoteNotify_get__F)
                  80009ca0    000003e0              : Ipc.obj (.text:Notify_unregisterEventSingle)
                  8000a080    000003e0              : Ipc.obj (.text:ti_sdo_ipc_MessageQ_Instance_init__E)
                  8000a460    000003c0     sysbios.ae66 : BIOS.obj (.text:ti_sysbios_knl_Task_Instance_init__E)
                  8000a820    000003a0                  : BIOS.obj (.text:ti_sysbios_family_c66_Cache_startup__I)
                  8000abc0    00000340     ipc.ae66 : Ipc.obj (.text:ti_sdo_ipc_gates_GatePeterson_Instance_init__E)
                  8000af00    00000340              : Ipc.obj (.text:ti_sdo_ipc_notifyDrivers_NotifyDriverCirc_Instance_init__E)
                  8000b240    00000320     sysbios.ae66 : BIOS.obj (.text:ti_sysbios_timers_timer64_Timer_deviceConfig__I)
                  8000b560    00000300     ipc.ae66 : Ipc.obj (.text:ti_sdo_ipc_Notify_Instance_init__E)
                  8000b860    00000300     sysbios.ae66 : BIOS.obj (.text:ti_sysbios_knl_Task_Module_startup__E)
                  8000bb60    000002e0     ipc.ae66 : Ipc.obj (.text:ti_sdo_ipc_SharedRegion_reserveMemory__F)
                  8000be40    000002e0     sysbios.ae66 : BIOS.obj (.text:ti_sysbios_heaps_HeapMem_Instance_init__E)
                  8000c120    000002c0     ipc.ae66 : Ipc.obj (.text:ti_sdo_ipc_heaps_HeapMemMP_postInit__I)
                  8000c3e0    000002c0     sysbios.ae66 : BIOS.obj (.text:ti_sysbios_knl_Clock_workFunc__E)
                  8000c6a0    000002c0     ti.targets.rts6000.ae66 : LoggerBuf.oe66 (.text:xdc_runtime_LoggerBuf_write8__E)
                  8000c960    000002a0     ipc.ae66 : Ipc.obj (.text:ti_sdo_ipc_MessageQ_registerTransport__F)
                  8000cc00    000002a0              : Ipc.obj (.text:ti_sdo_ipc_MessageQ_unregisterTransport__F)
                  8000cea0    000002a0              : Ipc.obj (.text:ti_sdo_ipc_family_tci663x_Interrupt_Module_startup__E)
                  8000d140    000002a0              : Ipc.obj (.text:ti_sdo_utils_NameServer_registerRemoteDriver__E)
                  8000d3e0    000002a0              : Ipc.obj (.text:ti_sdo_utils_NameServer_unregisterRemoteDriver__E)
                  8000d680    00000280              : Ipc.obj (.text:ti_sdo_ipc_notifyDrivers_NotifyDriverCirc_isr__I)
                  8000d900    00000280              : Ipc.obj (.text:ti_sdo_utils_NameServer_isRegistered__E)
                  8000db80    00000280     sysbios.ae66 : BIOS.obj (.text:ti_sysbios_family_c64p_Hwi_reconfig__E)
                  8000de00    00000260     qmss_init.obj (.text)
                  8000e060    00000260     sysbios.ae66 : BIOS.obj (.text:ti_sysbios_family_c64p_Hwi_dispatchCore__I)
                  8000e2c0    00000260                  : BIOS.obj (.text:ti_sysbios_knl_Semaphore_post__E)
                  8000e520    00000260     ti.targets.rts6000.ae66 : Startup.oe66 (.text:xdc_runtime_Startup_startMods__I)
                  8000e780    00000240     rts6600_elf.lib : imath64.c.obj (.text:__c6xabi_divull)
                  8000e9c0    00000240     sysbios.ae66 : BIOS.obj (.text:ti_sysbios_family_c64p_Exception_internalHandler__I)
                  8000ec00    00000240     ti.targets.rts6000.ae66 : Core-mem.oe66 (.text:xdc_runtime_Core_createObject__I)
                  8000ee40    00000240     app_pe66.oe66 (.text:xdc_runtime_System_printfExtend__I)
                  8000f080    00000220     ipc.ae66 : Ipc.obj (.text:SharedRegion_getPtr)
                  8000f2a0    00000220              : Ipc.obj (.text:SharedRegion_getSRPtr)
                  8000f4c0    00000220     sysbios.ae66 : BIOS.obj (.text:ti_sysbios_knl_Swi_run__I)
                  8000f6e0    00000220                  : BIOS.obj (.text:ti_sysbios_timers_timer64_Timer_setPeriodMicroSecs__E)
                  8000f900    00000200     ipc.ae66 : Ipc.obj (.text:GateMP_openByAddr)
                  8000fb00    00000200              : Ipc.obj (.text:HeapMemMP_sharedMemReq)
                  8000fd00    00000200              : Ipc.obj (.text:Ipc_start)
                  8000ff00    00000200              : Ipc.obj (.text:SharedRegion_getEntry)
                  80010100    00000200     sysbios.ae66 : c64p_Hwi_disp_always.obj (.text:_ti_sysbios_family_c64p_Hwi_dispatchAlways)
                  80010300    00000200     ipc.ae66 : Ipc.obj (.text:ti_sdo_ipc_SharedRegion_start__F)
                  80010500    00000200              : Ipc.obj (.text:ti_sdo_ipc_nsremote_NameServerRemoteNotify_swiFxnRequest__I)
                  80010700    00000200     ti.targets.rts6000.ae66 : Error.oe66 (.text:xdc_runtime_Error_policyDefault__E)
                  80010900    000001e0     ipc.ae66 : Ipc.obj (.text:GateMP_sharedMemReq)
                  80010ae0    000001e0     ti.drv.qmss.ae66 : qmss_drv.oe66 (.text:Qmss_internaldownloadFirmware)
                  80010cc0    000001e0     sysbios.ae66 : BIOS.obj (.text:ti_sysbios_gates_GateMutex_enter__E)
                  80010ea0    000001e0     ti.targets.rts6000.ae66 : LoggerBuf.oe66 (.text:xdc_runtime_LoggerBuf_write4__E)
                  80011080    000001e0                             : Text.oe66 (.text:xdc_runtime_Text_putSite__E)
                  80011260    000001c0     ipc.ae66 : Ipc.obj (.text:ti_sdo_ipc_Ipc_procSyncStart__I)
                  80011420    000001c0     sysbios.ae66 : BIOS.obj (.text:ti_sysbios_knl_Task_checkStacks__E)
                  800115e0    000001c0                  : BIOS.obj (.text:ti_sysbios_timers_timer64_Timer_getFreq__E)
                  800117a0    000001c0                  : BIOS.obj (.text:ti_sysbios_timers_timer64_Timer_start__E)
                  80011960    000001a0     ipc.ae66 : Ipc.obj (.text:GateMP_enter)
                  80011b00    000001a0              : Ipc.obj (.text:GateMP_leave)
                  80011ca0    000001a0              : Ipc.obj (.text:MultiProc_getId)
                  80011e40    000001a0              : Ipc.obj (.text:NameServer_getLocal)
                  80011fe0    000001a0              : Ipc.obj (.text:ti_sdo_ipc_notifyDrivers_NotifyDriverCirc_sendEvent__E)
                  80012180    000001a0     sysbios.ae66 : BIOS.obj (.text:ti_sysbios_family_c66_Cache_block__I)
                  80012320    000001a0                  : BIOS.obj (.text:ti_sysbios_family_c66_Cache_getL2InitSize__I)
                  800124c0    000001a0                  : BIOS.obj (.text:ti_sysbios_knl_Task_schedule__I)
                  80012660    000001a0     ti.targets.rts6000.ae66 : Core-smem.oe66 (.text:xdc_runtime_Core_constructObject__I)
                  80012800    00000180     ipc.ae66 : Ipc.obj (.text:MessageQ_get)
                  80012980    00000180              : Ipc.obj (.text:NameServer_getHandle)
                  80012b00    00000180     sysbios.ae66 : c64p_Exception_asm.obj (.text)
                  80012c80    00000180     ipc.ae66 : Ipc.obj (.text:ti_sdo_ipc_GateMP_attach__F)
                  80012e00    00000180     sysbios.ae66 : BIOS.obj (.text:ti_sysbios_knl_Swi_Instance_init__E)
                  80012f80    00000180                  : BIOS.obj (.text:ti_sysbios_knl_Task_exit__E)
                  80013100    00000180                  : BIOS.obj (.text:ti_sysbios_knl_Task_startCore__E)
                  80013280    00000180                  : BIOS.obj (.text:ti_sysbios_syncs_SyncSem_Instance_init__E)
                  80013400    00000160     ipc.ae66 : Ipc.obj (.text:ti_sdo_ipc_GateMP_openRegion0Reserved__F)
                  80013560    00000160              : Ipc.obj (.text:ti_sdo_ipc_MessageQ_Instance_finalize__E)
                  800136c0    00000160              : Ipc.obj (.text:ti_sdo_ipc_notifyDrivers_NotifyDriverCirc_sharedMemReq__F)
                  80013820    00000160     sysbios.ae66 : BIOS.obj (.text:ti_sysbios_family_c64p_Hwi_Module_startup__E)
                  80013980    00000160                  : BIOS.obj (.text:ti_sysbios_knl_Swi_post__E)
                  80013ae0    00000160     ti.targets.rts6000.ae66 : Text.oe66 (.text:xdc_runtime_Text_putMod__E)
                  80013c40    00000140     ipc.ae66 : Ipc.obj (.text:MessageQ_create)
                  80013d80    00000140              : Ipc.obj (.text:Notify_intLineRegistered)
                  80013ec0    00000140     ti.drv.qmss.ae66 : qmss_drv.oe66 (.text:Qmss_rmServiceGroups)
                  80014000    00000140                      : qmss_drv.oe66 (.text:Qmss_startSubSysCfg)
                  80014140    00000140     ipc.ae66 : Ipc.obj (.text:SharedRegion_getCacheLineSize)
                  80014280    00000140              : Ipc.obj (.text:SharedRegion_getHeap)
                  800143c0    00000140              : Ipc.obj (.text:SharedRegion_isCacheEnabled)
                  80014500    00000140              : Ipc.obj (.text:ti_sdo_ipc_GateMP_createLocal__F)
                  80014640    00000140              : Ipc.obj (.text:ti_sdo_ipc_GateMP_getFreeResource__I)
                  80014780    00000140              : Ipc.obj (.text:ti_sdo_ipc_gates_GatePeterson_enter__E)
                  800148c0    00000140              : Ipc.obj (.text:ti_sdo_ipc_nsremote_NameServerRemoteNotify_attach__E)
                  80014a00    00000140              : Ipc.obj (.text:ti_sdo_ipc_nsremote_NameServerRemoteNotify_cbFxn__I)
                  80014b40    00000140     sysbios.ae66 : BIOS.obj (.text:ti_sysbios_gates_GateSwi_enter__E)
                  80014c80    00000140                  : BIOS.obj (.text:ti_sysbios_knl_Semaphore_Instance_init__E)
                  80014dc0    00000140                  : BIOS.obj (.text:ti_sysbios_knl_Task_blockI__E)
                  80014f00    00000140                  : BIOS.obj (.text:ti_sysbios_knl_Task_postInit__I)
                  80015040    00000140     ti.targets.rts6000.ae66 : Core-mem.oe66 (.text:xdc_runtime_Core_deleteObject__I)
                  80015180    00000140                             : LoggerBuf.oe66 (.text:xdc_runtime_LoggerBuf_setFilterLevel__E)
                  800152c0    00000140                             : Text.oe66 (.text:xdc_runtime_Text_putLab__E)
                  80015400    00000120     ipc.ae66 : Ipc.obj (.text:GateMP_close)
                  80015520    00000120              : Ipc.obj (.text:MultiProc_getName)
                  80015640    00000120     ti.drv.qmss.ae66 : qmss_drv.oe66 (.text:Qmss_rmService)
                  80015760    00000120     boot.ae66 : autoinit.oe66 (.text:_auto_init_elf)
                  80015880    00000120     ipc.ae66 : Ipc.obj (.text:ti_sdo_ipc_Notify_Module_startup__E)
                  800159a0    00000120     app_pe66.oe66 (.text:ti_sdo_ipc_Notify_create)
                  80015ac0    00000120     ipc.ae66 : Ipc.obj (.text:ti_sdo_ipc_gates_GateHWSem_Instance_init__E)
                  80015be0    00000120              : Ipc.obj (.text:ti_sdo_utils_NameServer_removeLocal__I)
                  80015d00    00000120     sysbios.ae66 : BIOS.obj (.text:ti_sysbios_family_c64p_Hwi_Instance_init__E)
                  80015e20    00000120                  : BIOS.obj (.text:ti_sysbios_knl_Swi_restoreHwi__E)
                  80015f40    00000120     ti.targets.rts6000.ae66 : LoggerBuf.oe66 (.text:xdc_runtime_LoggerBuf_getFilterLevel__E)
                  80016060    00000100     rts6600_elf.lib : copy_decompress_rle.c.obj (.text:__TI_decompress_rle_core)
                  80016160    00000100     ipc.ae66 : Ipc.obj (.text:ti_sdo_ipc_Ipc_procSyncFinish__I)
                  80016260    00000100              : Ipc.obj (.text:ti_sdo_ipc_Notify_exec__F)
                  80016360    00000100              : Ipc.obj (.text:ti_sdo_ipc_SharedRegion_attach__F)
                  80016460    00000100              : Ipc.obj (.text:ti_sdo_ipc_family_tci663x_Interrupt_isr__I)
                  80016560    00000100              : Ipc.obj (.text:ti_sdo_ipc_gates_GateHWSem_enter__E)
                  80016660    00000100              : Ipc.obj (.text:ti_sdo_ipc_heaps_HeapMemMP_getStats__E)
                  80016760    00000100     sysbios.ae66 : BIOS.obj (.text:ti_sysbios_family_c64p_Hwi_Instance_finalize__E)
                  80016860    00000100                  : BIOS.obj (.text:ti_sysbios_gates_GateMutexPri_leave__E)
                  80016960    00000100                  : BIOS.obj (.text:ti_sysbios_knl_Task_unblockI__E)
                  80016a60    00000100                  : BIOS.obj (.text:ti_sysbios_timers_timer64_Timer_initDevice__I)
                  80016b60    00000100                  : BIOS.obj (.text:ti_sysbios_xdcruntime_GateThreadSupport_leave__E)
                  80016c60    00000100     ti.targets.rts6000.ae66 : Error.oe66 (.text:xdc_runtime_Error_print__E)
                  80016d60    00000100                             : Memory.oe66 (.text:xdc_runtime_Memory_alloc__E)
                  80016e60    00000100                             : Startup.oe66 (.text:xdc_runtime_Startup_exec__E)
                  80016f60    000000e0     rts6600_elf.lib : hostwrite.c.obj (.text:HOSTwrite)
                  80017040    000000e0     ipc.ae66 : Ipc.obj (.text:HeapMemMP_openByAddr)
                  80017120    000000e0              : Ipc.obj (.text:MessageQ_Params_init__S)
                  80017200    000000e0     rts6600_elf.lib : exit.c.obj (.text:exit)
                  800172e0    000000e0     main.obj (.text)
                  800173c0    000000e0     rts6600_elf.lib : memset.c.obj (.text:memset)
                  800174a0    000000e0     ipc.ae66 : Ipc.obj (.text:ti_sdo_ipc_GateMP_start__F)
                  80017580    000000e0              : Ipc.obj (.text:ti_sdo_ipc_MessageQ_Module_startup__E)
                  80017660    000000e0              : Ipc.obj (.text:ti_sdo_ipc_Notify_Instance_finalize__E)
                  80017740    000000e0              : Ipc.obj (.text:ti_sdo_ipc_SharedRegion_clearReservedMemory__F)
                  80017820    000000e0              : Ipc.obj (.text:ti_sdo_ipc_family_tci663x_Interrupt_intRegister__E)
                  80017900    000000e0              : Ipc.obj (.text:ti_sdo_ipc_gates_GateMPSupportNull_enter__E)
                  800179e0    000000e0              : Ipc.obj (.text:ti_sdo_ipc_gates_GateMPSupportNull_leave__E)
                  80017ac0    000000e0              : Ipc.obj (.text:ti_sdo_ipc_heaps_HeapMemMP_Instance_finalize__E)
                  80017ba0    000000e0              : Ipc.obj (.text:ti_sdo_ipc_nsremote_NameServerRemoteNotify_Instance_finalize__E)
                  80017c80    000000e0              : Ipc.obj (.text:ti_sdo_ipc_transports_TransportShmNotify_put__E)
                  80017d60    000000e0              : Ipc.obj (.text:ti_sdo_utils_NameServer_findLocal__I)
                  80017e40    000000e0     sysbios.ae66 : BIOS.obj (.text:ti_sysbios_heaps_HeapMem_alloc__E)
                  80017f20    000000e0                  : BIOS.obj (.text:ti_sysbios_knl_Swi_Instance_finalize__E)
                  80018000    000000e0                  : BIOS.obj (.text:ti_sysbios_knl_Swi_runLoop__I)
                  800180e0    000000e0                  : BIOS.obj (.text:ti_sysbios_timers_timer64_Timer_startup__E)
                  800181c0    000000e0     ti.targets.rts6000.ae66 : Text.oe66 (.text:xdc_runtime_Text_visitRope2__I)
                  800182a0    000000c0     ipc.ae66 : Ipc.obj (.text:SharedRegion_getId)
                  80018360    000000c0     rts6600_elf.lib : divu.asm.obj (.text:__divu)
                  80018420    000000c0     app_pe66.oe66 (.text:ti_sdo_ipc_GateMP_create)
                  800184e0    000000c0     ipc.ae66 : Ipc.obj (.text:ti_sdo_ipc_GateMP_getRegion0ReservedSize__F)
                  800185a0    000000c0     app_pe66.oe66 (.text:ti_sdo_ipc_MessageQ_create)
                  80018660    000000c0     ipc.ae66 : Ipc.obj (.text:ti_sdo_ipc_MessageQ_grow__I)
                  80018720    000000c0     app_pe66.oe66 (.text:ti_sdo_ipc_gates_GatePeterson_Object__create__S)
                  800187e0    000000c0     app_pe66.oe66 (.text:ti_sdo_ipc_gates_GatePeterson_create)
                  800188a0    000000c0     app_pe66.oe66 (.text:ti_sdo_ipc_heaps_HeapMemMP_Object__create__S)
                  80018960    000000c0     app_pe66.oe66 (.text:ti_sdo_ipc_heaps_HeapMemMP_create)
                  80018a20    000000c0     ipc.ae66 : Ipc.obj (.text:ti_sdo_ipc_notifyDrivers_NotifyDriverCirc_disableEvent__E)
                  80018ae0    000000c0              : Ipc.obj (.text:ti_sdo_ipc_notifyDrivers_NotifyDriverCirc_enable__E)
                  80018ba0    000000c0     app_pe66.oe66 (.text:ti_sdo_ipc_nsremote_NameServerRemoteNotify_Object__create__S)
                  80018c60    000000c0     app_pe66.oe66 (.text:ti_sdo_ipc_nsremote_NameServerRemoteNotify_create)
                  80018d20    000000c0     ipc.ae66 : Ipc.obj (.text:ti_sdo_ipc_transports_TransportShmNotify_Instance_init__E)
                  80018de0    000000c0     app_pe66.oe66 (.text:ti_sdo_ipc_transports_TransportShmNotify_Object__create__S)
                  80018ea0    000000c0     app_pe66.oe66 (.text:ti_sdo_ipc_transports_TransportShmNotify_create)
                  80018f60    000000c0     app_pe66.oe66 (.text:ti_sysbios_family_c64p_Hwi_create)
                  80019020    000000c0     sysbios.ae66 : BIOS.obj (.text:ti_sysbios_gates_GateAll_leave__E)
                  800190e0    000000c0     app_pe66.oe66 (.text:ti_sysbios_hal_Hwi_create)
                  800191a0    000000c0     sysbios.ae66 : BIOS.obj (.text:ti_sysbios_heaps_HeapMem_getStats__E)
                  80019260    000000c0                  : BIOS.obj (.text:ti_sysbios_knl_Clock_logTick__E)
                  80019320    000000c0                  : BIOS.obj (.text:ti_sysbios_knl_Swi_schedule__I)
                  800193e0    000000c0                  : BIOS.obj (.text:ti_sysbios_knl_Task_allBlockedFunction__I)
                  800194a0    000000c0     app_pe66.oe66 (.text:ti_sysbios_knl_Task_create)
                  80019560    000000c0     app_pe66.oe66 (.text:ti_sysbios_syncs_SyncSem_Object__create__S)
                  80019620    000000c0     app_pe66.oe66 (.text:ti_sysbios_syncs_SyncSem_create)
                  800196e0    000000c0     rts6600_elf.lib : tls.c.obj (.text:tls:init:__TI_tls_init)
                  800197a0    000000c0     ti.targets.rts6000.ae66 : Assert.oe66 (.text:xdc_runtime_Assert_raise__I)
                  80019860    000000c0                             : Error.oe66 (.text:xdc_runtime_Error_setX__E)
                  80019920    000000c0     app_pe66.oe66 (.text:xdc_runtime_LoggerBuf_Object__create__S)
                  800199e0    000000c0     ti.targets.rts6000.ae66 : SysMin.oe66 (.text:xdc_runtime_SysMin_abort__E)
                  80019aa0    000000c0                             : SysMin.oe66 (.text:xdc_runtime_SysMin_flush__E)
                  80019b60    000000a0     rts6600_elf.lib : remu.asm.obj (.text:__remu)
                  80019c00    000000a0     boot.ae66 : boot.oe66 (.text:_c_int00)
                  80019ca0    000000a0     sysbios.ae66 : c64p_Hwi_asm.obj (.text:_ti_sysbios_family_c64p_Hwi_plug__E)
                  80019d40    000000a0     rts6600_elf.lib : memcpy64.asm.obj (.text:memcpy)
                  80019de0    000000a0     ipc.ae66 : Ipc.obj (.text:ti_sdo_ipc_family_tci663x_Interrupt_intSend__E)
                  80019e80    000000a0              : Ipc.obj (.text:ti_sdo_ipc_family_tci663x_NotifyCircSetup_attach__E)
                  80019f20    000000a0              : Ipc.obj (.text:ti_sdo_ipc_gates_GatePeterson_leave__E)
                  80019fc0    000000a0              : Ipc.obj (.text:ti_sdo_ipc_gates_GatePeterson_postInit__I)
                  8001a060    000000a0              : Ipc.obj (.text:ti_sdo_ipc_nsremote_NameServerRemoteNotify_detach__E)
                  8001a100    000000a0              : Ipc.obj (.text:ti_sdo_ipc_transports_TransportShmNotifySetup_attach__E)
                  8001a1a0    000000a0              : Ipc.obj (.text:ti_sdo_ipc_transports_TransportShmNotify_notifyFxn__I)
                  8001a240    000000a0              : Ipc.obj (.text:ti_sdo_utils_NameServer_Module_startup__E)
                  8001a2e0    000000a0              : Ipc.obj (.text:ti_sdo_utils_NameServer_postInit__I)
                  8001a380    000000a0     sysbios.ae66 : BIOS.obj (.text:ti_sysbios_family_c64p_Exception_Module_startup__E)
                  8001a420    000000a0                  : BIOS.obj (.text:ti_sysbios_family_c64p_Hwi_dispatchC__I)
                  8001a4c0    000000a0                  : BIOS.obj (.text:ti_sysbios_family_c64p_Hwi_getStackInfo__E)
                  8001a560    000000a0                  : BIOS.obj (.text:ti_sysbios_gates_GateSwi_leave__E)
                  8001a600    000000a0     app_pe66.oe66 (.text:ti_sysbios_knl_Swi_construct)
                  8001a6a0    000000a0     sysbios.ae66 : BIOS.obj (.text:ti_sysbios_timers_timer64_Timer_stop__E)
                  8001a740    000000a0     ti.targets.rts6000.ae66 : Core-params.oe66 (.text:xdc_runtime_Core_assignParams__I)
                  8001a7e0    000000a0                             : SysMin.oe66 (.text:xdc_runtime_SysMin_putch__E)
                  8001a880    000000a0                             : System.oe66 (.text:xdc_runtime_System_formatNum__I)
                  8001a920    000000a0                             : System.oe66 (.text:xdc_runtime_System_putchar__I)
                  8001a9c0    000000a0                             : Text.oe66 (.text:xdc_runtime_Text_printVisFxn__I)
                  8001aa60    000000a0                             : Text.oe66 (.text:xdc_runtime_Text_xprintf__I)
                  8001ab00    000000a0     app_pe66.oe66 (.text:xdc_runtime_knl_GateThread_Object__create__S)
                  8001aba0    000000a0     app_pe66.oe66 (.text:xdc_runtime_knl_GateThread_create)
                  8001ac40    00000080     ipc.ae66 : Ipc.obj (.text:HeapMemMP_restore)
                  8001acc0    00000080     rts6600_elf.lib : trgmsg.c.obj (.text:__TI_readmsg)
                  8001ad40    00000080                     : llshift.c.obj (.text:__c6xabi_llshl)
                  8001adc0    00000080     sysbios.ae66 : c62_TaskSupport_asm.obj (.text:_ti_sysbios_family_c62_TaskSupport_swap__E)
                  8001ae40    00000080     ipc.ae66 : Ipc.obj (.text:ti_sdo_ipc_Ipc_getMasterAddr__I)
                  8001aec0    00000080              : Ipc.obj (.text:ti_sdo_ipc_family_tci663x_Interrupt_intClear__E)
                  8001af40    00000080              : Ipc.obj (.text:ti_sdo_ipc_family_tci663x_Interrupt_intUnregister__E)
                  8001afc0    00000080              : Ipc.obj (.text:ti_sdo_ipc_gates_GateHWSem_Module_startup__E)
                  8001b040    00000080     app_pe66.oe66 (.text:ti_sdo_ipc_gates_GateHWSem_Object__create__S)
                  8001b0c0    00000080     app_pe66.oe66 (.text:ti_sdo_ipc_gates_GateHWSem_create)
                  8001b140    00000080     app_pe66.oe66 (.text:ti_sdo_ipc_gates_GateMPSupportNull_Object__create__S)
                  8001b1c0    00000080     app_pe66.oe66 (.text:ti_sdo_ipc_gates_GateMPSupportNull_create)
                  8001b240    00000080     ipc.ae66 : Ipc.obj (.text:ti_sdo_ipc_notifyDrivers_NotifyDriverCirc_Instance_finalize__E)
                  8001b2c0    00000080     app_pe66.oe66 (.text:ti_sdo_ipc_notifyDrivers_NotifyDriverCirc_create)
                  8001b340    00000080     ipc.ae66 : Ipc.obj (.text:ti_sdo_ipc_transports_TransportShmNotify_Instance_finalize__E)
                  8001b3c0    00000080     app_pe66.oe66 (.text:ti_sysbios_BIOS_atExitFunc__I)
                  8001b440    00000080     app_pe66.oe66 (.text:ti_sysbios_BIOS_registerRTSLock__I)
                  8001b4c0    00000080     sysbios.ae66 : BIOS.obj (.text:ti_sysbios_family_c66_Cache_invL1pAll__E)
                  8001b540    00000080     app_pe66.oe66 (.text:ti_sysbios_gates_GateAll_Object__create__S)
                  8001b5c0    00000080     app_pe66.oe66 (.text:ti_sysbios_gates_GateHwi_Object__create__S)
                  8001b640    00000080     app_pe66.oe66 (.text:ti_sysbios_gates_GateMutexPri_Object__create__S)
                  8001b6c0    00000080     app_pe66.oe66 (.text:ti_sysbios_gates_GateMutex_Object__create__S)
                  8001b740    00000080     app_pe66.oe66 (.text:ti_sysbios_gates_GateSwi_Object__create__S)
                  8001b7c0    00000080     sysbios.ae66 : BIOS.obj (.text:ti_sysbios_hal_Hwi_checkStack)
                  8001b840    00000080                  : BIOS.obj (.text:ti_sysbios_hal_Hwi_initStack)
                  8001b8c0    00000080     app_pe66.oe66 (.text:ti_sysbios_heaps_HeapMem_Object__create__S)
                  8001b940    00000080     sysbios.ae66 : BIOS.obj (.text:ti_sysbios_heaps_HeapMem_init__I)
                  8001b9c0    00000080     app_pe66.oe66 (.text:ti_sysbios_knl_Clock_doTick__I)
                  8001ba40    00000080     sysbios.ae66 : BIOS.obj (.text:ti_sysbios_knl_Idle_run__E)
                  8001bac0    00000080     app_pe66.oe66 (.text:ti_sysbios_knl_Semaphore_create)
                  8001bb40    00000080     sysbios.ae66 : BIOS.obj (.text:ti_sysbios_knl_Semaphore_pendTimeout__I)
                  8001bbc0    00000080                  : BIOS.obj (.text:ti_sysbios_knl_Swi_startup__E)
                  8001bc40    00000080                  : BIOS.obj (.text:ti_sysbios_knl_Task_restore__E)
                  8001bcc0    00000080                  : BIOS.obj (.text:ti_sysbios_syncs_SyncSem_wait__E)
                  8001bd40    00000080     app_pe66.oe66 (.text:ti_sysbios_xdcruntime_GateThreadSupport_create)
                  8001bdc0    00000080     ti.targets.rts6000.ae66 : Core-label.oe66 (.text:xdc_runtime_Core_assignLabel__I)
                  8001be40    00000080                             : LoggerBuf.oe66 (.text:xdc_runtime_LoggerBuf_Instance_init__E)
                  8001bec0    00000080                             : LoggerBuf.oe66 (.text:xdc_runtime_LoggerBuf_Module_startup__E)
                  8001bf40    00000080                             : LoggerBuf.oe66 (.text:xdc_runtime_LoggerBuf_filterOutEvent__I)
                  8001bfc0    00000080     app_pe66.oe66 (.text:xdc_runtime_SysMin_output__I)
                  8001c040    00000080     ti.targets.rts6000.ae66 : System.oe66 (.text:xdc_runtime_System_atexit__E)
                  8001c0c0    00000080                             : System.oe66 (.text:xdc_runtime_System_avprintf__E)
                  8001c140    00000080                             : System.oe66 (.text:xdc_runtime_System_processAtExit__E)
                  8001c1c0    00000080                             : System.oe66 (.text:xdc_runtime_System_vprintf__E)
                  8001c240    00000060     ipc.ae66 : Ipc.obj (.text:HeapMemMP_create)
                  8001c2a0    00000060              : Ipc.obj (.text:HeapMemMP_getRTSCParams$18)
                  8001c300    00000060     rts6600_elf.lib : trgmsg.c.obj (.text:__TI_writemsg)
                  8001c360    00000060                     : llshift.c.obj (.text:__c6xabi_llshru)
                  8001c3c0    00000060                     : imath64.c.obj (.text:_subcull)
                  8001c420    00000060     sysbios.ae66 : c64p_Hwi_asm_switch.obj (.text:_ti_sysbios_family_c64p_Hwi_switchAndDispatch__I)
                  8001c480    00000060                  : c64p_Hwi_asm_switch.obj (.text:_ti_sysbios_family_xxx_Hwi_switchAndRunFunc)
                  8001c4e0    00000060     init.obj (.text)
                  8001c540    00000060     app_pe66.oe66 (.text:ti_sdo_ipc_GateMP_Object__delete__S)
                  8001c5a0    00000060     ipc.ae66 : Ipc.obj (.text:ti_sdo_ipc_Ipc_getSlaveAddr__I)
                  8001c600    00000060              : Ipc.obj (.text:ti_sdo_ipc_Ipc_reservedSizePerProc__I)
                  8001c660    00000060              : Ipc.obj (.text:ti_sdo_ipc_family_tci663x_NotifyCircSetup_numIntLines__E)
                  8001c6c0    00000060              : Ipc.obj (.text:ti_sdo_ipc_family_tci663x_NotifyCircSetup_sharedMemReq__E)
                  8001c720    00000060     app_pe66.oe66 (.text:ti_sdo_ipc_gates_GatePeterson_Object__delete__S)
                  8001c780    00000060     ipc.ae66 : Ipc.obj (.text:ti_sdo_ipc_gates_GatePeterson_sharedMemReq__E)
                  8001c7e0    00000060     app_pe66.oe66 (.text:ti_sdo_ipc_heaps_HeapMemMP_Object__delete__S)
                  8001c840    00000060     app_pe66.oe66 (.text:ti_sdo_ipc_notifyDrivers_NotifyDriverCirc_Object__delete__S)
                  8001c8a0    00000060     app_pe66.oe66 (.text:ti_sdo_ipc_nsremote_NameServerRemoteNotify_Object__delete__S)
                  8001c900    00000060     app_pe66.oe66 (.text:ti_sdo_ipc_transports_TransportShmNotify_Object__delete__S)
                  8001c960    00000060     app_pe66.oe66 (.text:ti_sdo_utils_List_construct)
                  8001c9c0    00000060     app_pe66.oe66 (.text:ti_sysbios_BIOS_errorRaiseHook__I)
                  8001ca20    00000060     app_pe66.oe66 (.text:ti_sysbios_BIOS_removeRTSLock__I)
                  8001ca80    00000060     app_pe66.oe66 (.text:ti_sysbios_BIOS_startFunc__I)
                  8001cae0    00000060     sysbios.ae66 : BIOS.obj (.text:ti_sysbios_family_c62_TaskSupport_start__E)
                  8001cb40    00000060     app_pe66.oe66 (.text:ti_sysbios_family_c64p_Hwi_Object__delete__S)
                  8001cba0    00000060     sysbios.ae66 : BIOS.obj (.text:ti_sysbios_family_c66_Cache_Module_startup__E)
                  8001cc00    00000060                  : BIOS.obj (.text:ti_sysbios_gates_GateAll_enter__E)
                  8001cc60    00000060     app_pe66.oe66 (.text:ti_sysbios_gates_GateMutexPri_Object__delete__S)
                  8001ccc0    00000060     app_pe66.oe66 (.text:ti_sysbios_gates_GateMutexPri_construct)
                  8001cd20    00000060     app_pe66.oe66 (.text:ti_sysbios_gates_GateMutex_Object__delete__S)
                  8001cd80    00000060     app_pe66.oe66 (.text:ti_sysbios_hal_Hwi_Object__delete__S)
                  8001cde0    00000060     sysbios.ae66 : BIOS.obj (.text:ti_sysbios_heaps_HeapMem_free__E)
                  8001ce40    00000060                  : BIOS.obj (.text:ti_sysbios_knl_Clock_Module_startup__E)
                  8001cea0    00000060     app_pe66.oe66 (.text:ti_sysbios_knl_Queue_construct)
                  8001cf00    00000060     app_pe66.oe66 (.text:ti_sysbios_knl_Semaphore_Object__delete__S)
                  8001cf60    00000060     app_pe66.oe66 (.text:ti_sysbios_knl_Semaphore_construct)
                  8001cfc0    00000060     sysbios.ae66 : BIOS.obj (.text:ti_sysbios_knl_Swi_Module_startup__E)
                  8001d020    00000060                  : BIOS.obj (.text:ti_sysbios_knl_Task_enter__I)
                  8001d080    00000060     app_pe66.oe66 (.text:ti_sysbios_syncs_SyncSem_Object__delete__S)
                  8001d0e0    00000060     app_pe66.oe66 (.text:ti_sysbios_xdcruntime_GateThreadSupport_Object__delete__S)
                  8001d140    00000060     app_pe66.oe66 (.text:xdc_runtime_LoggerBuf_Object__delete__S)
                  8001d1a0    00000060     ti.targets.rts6000.ae66 : LoggerBuf.oe66 (.text:xdc_runtime_LoggerBuf_reset__E)
                  8001d200    00000060                             : Memory.oe66 (.text:xdc_runtime_Memory_valloc__E)
                  8001d260    00000060                             : Text.oe66 (.text:xdc_runtime_Text_cordText__E)
                  8001d2c0    00000060     app_pe66.oe66 (.text:xdc_runtime_knl_GateThread_Object__delete__S)
                  8001d320    00000040     ipc.ae66 : Ipc.obj (.text:GateMP_Params_init)
                  8001d360    00000040              : Ipc.obj (.text:HeapMemMP_Params_init)
                  8001d3a0    00000040              : Ipc.obj (.text:Notify_attach)
                  8001d3e0    00000040              : Ipc.obj (.text:Notify_sharedMemReq)
                  8001d420    00000040     ti.drv.qmss.ae66 : qmss_drv.oe66 (.text:Qmss_start)
                  8001d460    00000040     rts6600_elf.lib : strasg.asm.obj (.text:__strasgi_64plus)
                  8001d4a0    00000040                     : args_main.c.obj (.text:_args_main)
                  8001d4e0    00000040     sysbios.ae66 : c62_TaskSupport_asm.obj (.text:_ti_sysbios_family_c62_TaskSupport_buildTaskStack)
                  8001d520    00000040     ipc.ae66 : Ipc.obj (.text:ti_sdo_ipc_Ipc_getRegion0ReservedSize__I)
                  8001d560    00000040     app_pe66.oe66 (.text:ti_sdo_ipc_gates_GateHWSem_Handle__label__S)
                  8001d5a0    00000040     app_pe66.oe66 (.text:ti_sdo_ipc_gates_GateHWSem_Object__delete__S)
                  8001d5e0    00000040     ipc.ae66 : Ipc.obj (.text:ti_sdo_ipc_gates_GateHWSem_leave__E)
                  8001d620    00000040     app_pe66.oe66 (.text:ti_sdo_ipc_gates_GateMPSupportNull_Handle__label__S)
                  8001d660    00000040     app_pe66.oe66 (.text:ti_sdo_ipc_gates_GateMPSupportNull_Object__delete__S)
                  8001d6a0    00000040     app_pe66.oe66 (.text:ti_sdo_ipc_gates_GatePeterson_Handle__label__S)
                  8001d6e0    00000040     ipc.ae66 : Ipc.obj (.text:ti_sdo_ipc_gates_GatePeterson_Instance_finalize__E)
                  8001d720    00000040     app_pe66.oe66 (.text:ti_sdo_ipc_heaps_HeapMemMP_Handle__label__S)
                  8001d760    00000040     app_pe66.oe66 (.text:ti_sdo_ipc_notifyDrivers_NotifyDriverCirc_Handle__label__S)
                  8001d7a0    00000040     ipc.ae66 : Ipc.obj (.text:ti_sdo_ipc_notifyDrivers_NotifyDriverCirc_registerEvent__E)
                  8001d7e0    00000040              : Ipc.obj (.text:ti_sdo_ipc_notifyDrivers_NotifyDriverCirc_unregisterEvent__E)
                  8001d820    00000040     app_pe66.oe66 (.text:ti_sdo_ipc_nsremote_NameServerRemoteNotify_Handle__label__S)
                  8001d860    00000040     ipc.ae66 : Ipc.obj (.text:ti_sdo_ipc_nsremote_NameServerRemoteNotify_swiFxnResponse__I)
                  8001d8a0    00000040              : Ipc.obj (.text:ti_sdo_ipc_transports_TransportShmNotifySetup_isRegistered__E)
                  8001d8e0    00000040     app_pe66.oe66 (.text:ti_sdo_ipc_transports_TransportShmNotify_Handle__label__S)
                  8001d920    00000040     ipc.ae66 : Ipc.obj (.text:ti_sdo_utils_List_dequeue__E)
                  8001d960    00000040     app_pe66.oe66 (.text:ti_sdo_utils_NameServer_Object__get__S)
                  8001d9a0    00000040     app_pe66.oe66 (.text:ti_sysbios_BIOS_exitFunc__I)
                  8001d9e0    00000040     app_pe66.oe66 (.text:ti_sysbios_BIOS_rtsLock__I)
                  8001da20    00000040     app_pe66.oe66 (.text:ti_sysbios_BIOS_rtsUnlock__I)
                  8001da60    00000040     sysbios.ae66 : BIOS.obj (.text:ti_sysbios_family_c64p_Hwi_disableInterrupt__E)
                  8001daa0    00000040                  : BIOS.obj (.text:ti_sysbios_family_c64p_Hwi_enableInterrupt__E)
                  8001dae0    00000040     app_pe66.oe66 (.text:ti_sysbios_gates_GateAll_Handle__label__S)
                  8001db20    00000040     app_pe66.oe66 (.text:ti_sysbios_gates_GateAll_Object__delete__S)
                  8001db60    00000040     app_pe66.oe66 (.text:ti_sysbios_gates_GateHwi_Handle__label__S)
                  8001dba0    00000040     app_pe66.oe66 (.text:ti_sysbios_gates_GateHwi_Object__delete__S)
                  8001dbe0    00000040     app_pe66.oe66 (.text:ti_sysbios_gates_GateMutexPri_Handle__label__S)
                  8001dc20    00000040     sysbios.ae66 : BIOS.obj (.text:ti_sysbios_gates_GateMutexPri_Instance_init__E)
                  8001dc60    00000040     app_pe66.oe66 (.text:ti_sysbios_gates_GateMutexPri_destruct)
                  8001dca0    00000040     app_pe66.oe66 (.text:ti_sysbios_gates_GateMutex_Handle__label__S)
                  8001dce0    00000040     sysbios.ae66 : BIOS.obj (.text:ti_sysbios_gates_GateMutex_Instance_init__E)
                  8001dd20    00000040                  : BIOS.obj (.text:ti_sysbios_gates_GateMutex_leave__E)
                  8001dd60    00000040     app_pe66.oe66 (.text:ti_sysbios_gates_GateSwi_Handle__label__S)
                  8001dda0    00000040     app_pe66.oe66 (.text:ti_sysbios_gates_GateSwi_Object__delete__S)
                  8001dde0    00000040     sysbios.ae66 : BIOS.obj (.text:ti_sysbios_hal_Hwi_Instance_init__E)
                  8001de20    00000040     app_pe66.oe66 (.text:ti_sysbios_heaps_HeapMem_Handle__label__S)
                  8001de60    00000040     app_pe66.oe66 (.text:ti_sysbios_heaps_HeapMem_Object__delete__S)
                  8001dea0    00000040     app_pe66.oe66 (.text:ti_sysbios_heaps_HeapMem_Object__get__S)
                  8001dee0    00000040     app_pe66.oe66 (.text:ti_sysbios_knl_Semaphore_destruct)
                  8001df20    00000040     app_pe66.oe66 (.text:ti_sysbios_knl_Swi_Object__get__S)
                  8001df60    00000040     app_pe66.oe66 (.text:ti_sysbios_knl_Swi_destruct)
                  8001dfa0    00000040     app_pe66.oe66 (.text:ti_sysbios_knl_Task_Object__get__S)
                  8001dfe0    00000040     sysbios.ae66 : BIOS.obj (.text:ti_sysbios_knl_Task_sleepTimeout__I)
                  8001e020    00000040     app_pe66.oe66 (.text:ti_sysbios_syncs_SyncSem_Handle__label__S)
                  8001e060    00000040     ti.targets.rts6000.ae66 : Error.oe66 (.text:xdc_runtime_Error_check__E)
                  8001e0a0    00000040                             : Error.oe66 (.text:xdc_runtime_Error_init__E)
                  8001e0e0    00000040     app_pe66.oe66 (.text:xdc_runtime_GateNull_Handle__label__S)
                  8001e120    00000040     app_pe66.oe66 (.text:xdc_runtime_GateNull_Object__create__S)
                  8001e160    00000040     app_pe66.oe66 (.text:xdc_runtime_GateNull_Object__delete__S)
                  8001e1a0    00000040     app_pe66.oe66 (.text:xdc_runtime_LoggerBuf_Handle__label__S)
                  8001e1e0    00000040     ti.targets.rts6000.ae66 : LoggerBuf.oe66 (.text:xdc_runtime_LoggerBuf_Instance_finalize__E)
                  8001e220    00000040     app_pe66.oe66 (.text:xdc_runtime_LoggerBuf_Object__get__S)
                  8001e260    00000040     ti.targets.rts6000.ae66 : LoggerBuf.oe66 (.text:xdc_runtime_LoggerBuf_write0__E)
                  8001e2a0    00000040                             : LoggerBuf.oe66 (.text:xdc_runtime_LoggerBuf_write1__E)
                  8001e2e0    00000040                             : LoggerBuf.oe66 (.text:xdc_runtime_LoggerBuf_write2__E)
                  8001e320    00000040                             : Registry.oe66 (.text:xdc_runtime_Registry_findById__E)
                  8001e360    00000040                             : SysMin.oe66 (.text:xdc_runtime_SysMin_Module_startup__E)
                  8001e3a0    00000040                             : SysMin.oe66 (.text:xdc_runtime_SysMin_exit__E)
                  8001e3e0    00000040                             : System.oe66 (.text:xdc_runtime_System_abort__E)
                  8001e420    00000040     app_pe66.oe66 (.text:xdc_runtime_System_aprintf__E)
                  8001e460    00000040     ti.targets.rts6000.ae66 : System.oe66 (.text:xdc_runtime_System_exit__E)
                  8001e4a0    00000040     app_pe66.oe66 (.text:xdc_runtime_System_printf__E)
                  8001e4e0    00000040     app_pe66.oe66 (.text:xdc_runtime_knl_GateThread_Handle__label__S)
                  8001e520    00000040     ti.targets.rts6000.ae66 : GateThread.oe66 (.text:xdc_runtime_knl_GateThread_Instance_init__E)
                  8001e560    00000020     ipc.ae66 : Ipc.obj (.text:GateMP_delete)
                  8001e580    00000020              : Ipc.obj (.text:GateMP_getDefaultRemote)
                  8001e5a0    00000020              : Ipc.obj (.text:GateMP_getSharedParams$4)
                  8001e5c0    00000020              : Ipc.obj (.text:HeapMemMP_getSharedParams$18)
                  8001e5e0    00000020              : Ipc.obj (.text:MultiProc_getBaseIdOfCluster)
                  8001e600    00000020              : Ipc.obj (.text:MultiProc_self)
                  8001e620    00000020              : Ipc.obj (.text:NameServer_addUInt32)
                  8001e640    00000020              : Ipc.obj (.text:NameServer_getLocalUInt32)
                  8001e660    00000020              : Ipc.obj (.text:NameServer_removeEntry)
                  8001e680    00000020              : Ipc.obj (.text:Notify_numIntLines)
                  8001e6a0    00000020     ti.drv.qmss.ae66 : qmss_drv.oe66 (.text:Qmss_init)
                  8001e6c0    00000020     ipc.ae66 : Ipc.obj (.text:SharedRegion_invalidSRPtr)
                  8001e6e0    00000020     app_pe66.oe66 (.text:_GateMP_virtToPhys)
                  8001e700    00000020     rts6600_elf.lib : push.asm.obj (.text:__pop_rts)
                  8001e720    00000020                     : push.asm.obj (.text:__push_rts)
                  8001e740    00000020                     : _lock.c.obj (.text:_nop)
                  8001e760    00000020                     : _lock.c.obj (.text:_register_lock)
                  8001e780    00000020                     : _data_synch.c.obj (.text:_register_synch_api)
                  8001e7a0    00000020                     : _lock.c.obj (.text:_register_unlock)
                  8001e7c0    00000020     sysbios.ae66 : c62_TaskSupport_asm.obj (.text:_ti_sysbios_family_c62_TaskSupport_glue)
                  8001e7e0    00000020     rts6600_elf.lib : exit.c.obj (.text:abort)
                  8001e800    00000020                     : copy_decompress_none.c.obj (.text:decompress:none:__TI_decompress_none)
                  8001e820    00000020                     : copy_decompress_rle.c.obj (.text:decompress:rle24:__TI_decompress_rle24)
                  8001e840    00000020     app_pe66.oe66 (.text:ti_sdo_ipc_GateMP_Params__init__S)
                  8001e860    00000020     app_pe66.oe66 (.text:ti_sdo_ipc_GateMP_RemoteCustom1Proxy_Proxy__abstract__S)
                  8001e880    00000020     app_pe66.oe66 (.text:ti_sdo_ipc_GateMP_RemoteCustom1Proxy_Proxy__delegate__S)
                  8001e8a0    00000020     app_pe66.oe66 (.text:ti_sdo_ipc_GateMP_RemoteCustom1Proxy_create)
                  8001e8c0    00000020     app_pe66.oe66 (.text:ti_sdo_ipc_GateMP_RemoteCustom1Proxy_delete)
                  8001e8e0    00000020     app_pe66.oe66 (.text:ti_sdo_ipc_GateMP_RemoteCustom2Proxy_Proxy__abstract__S)
                  8001e900    00000020     app_pe66.oe66 (.text:ti_sdo_ipc_GateMP_RemoteCustom2Proxy_Proxy__delegate__S)
                  8001e920    00000020     app_pe66.oe66 (.text:ti_sdo_ipc_GateMP_RemoteCustom2Proxy_create)
                  8001e940    00000020     app_pe66.oe66 (.text:ti_sdo_ipc_GateMP_RemoteCustom2Proxy_delete)
                  8001e960    00000020     app_pe66.oe66 (.text:ti_sdo_ipc_GateMP_RemoteSystemProxy_Proxy__abstract__S)
                  8001e980    00000020     app_pe66.oe66 (.text:ti_sdo_ipc_GateMP_RemoteSystemProxy_Proxy__delegate__S)
                  8001e9a0    00000020     app_pe66.oe66 (.text:ti_sdo_ipc_GateMP_RemoteSystemProxy_create)
                  8001e9c0    00000020     app_pe66.oe66 (.text:ti_sdo_ipc_GateMP_RemoteSystemProxy_delete)
                  8001e9e0    00000020     app_pe66.oe66 (.text:ti_sdo_ipc_GateMP_delete)
                  8001ea00    00000020     ipc.ae66 : Ipc.obj (.text:ti_sdo_ipc_GateMP_getSharedAddr__F)
                  8001ea20    00000020              : Ipc.obj (.text:ti_sdo_ipc_GateMP_setDefaultRemote__F)
                  8001ea40    00000020     app_pe66.oe66 (.text:ti_sdo_ipc_MessageQ_Object__get__S)
                  8001ea60    00000020     app_pe66.oe66 (.text:ti_sdo_ipc_MessageQ_Params__init__S)
                  8001ea80    00000020     app_pe66.oe66 (.text:ti_sdo_ipc_Notify_Module_GateProxy_enter__E)
                  8001eaa0    00000020     app_pe66.oe66 (.text:ti_sdo_ipc_Notify_Module_GateProxy_leave__E)
                  8001eac0    00000020     ipc.ae66 : Ipc.obj (.text:ti_sdo_ipc_family_tci663x_Interrupt_intDisable__E)
                  8001eae0    00000020              : Ipc.obj (.text:ti_sdo_ipc_family_tci663x_Interrupt_intEnable__E)
                  8001eb00    00000020     app_pe66.oe66 (.text:ti_sdo_ipc_gates_GateHWSem_Params__init__S)
                  8001eb20    00000020     ipc.ae66 : Ipc.obj (.text:ti_sdo_ipc_gates_GateHWSem_getReservedMask__E)
                  8001eb40    00000020              : Ipc.obj (.text:ti_sdo_ipc_gates_GateHWSem_query__E)
                  8001eb60    00000020              : Ipc.obj (.text:ti_sdo_ipc_gates_GateHWSem_sharedMemReq__E)
                  8001eb80    00000020              : Ipc.obj (.text:ti_sdo_ipc_gates_GateMPSupportNull_Instance_init__E)
                  8001eba0    00000020     app_pe66.oe66 (.text:ti_sdo_ipc_gates_GateMPSupportNull_Params__init__S)
                  8001ebc0    00000020     ipc.ae66 : Ipc.obj (.text:ti_sdo_ipc_gates_GateMPSupportNull_getReservedMask__E)
                  8001ebe0    00000020              : Ipc.obj (.text:ti_sdo_ipc_gates_GateMPSupportNull_query__E)
                  8001ec00    00000020              : Ipc.obj (.text:ti_sdo_ipc_gates_GateMPSupportNull_sharedMemReq__E)
                  8001ec20    00000020     app_pe66.oe66 (.text:ti_sdo_ipc_gates_GatePeterson_Params__init__S)
                  8001ec40    00000020     ipc.ae66 : Ipc.obj (.text:ti_sdo_ipc_gates_GatePeterson_getReservedMask__E)
                  8001ec60    00000020              : Ipc.obj (.text:ti_sdo_ipc_gates_GatePeterson_query__E)
                  8001ec80    00000020     app_pe66.oe66 (.text:ti_sdo_ipc_heaps_HeapMemMP_Params__init__S)
                  8001eca0    00000020     ipc.ae66 : Ipc.obj (.text:ti_sdo_ipc_heaps_HeapMemMP_isBlocking__E)
                  8001ecc0    00000020     app_pe66.oe66 (.text:ti_sdo_ipc_notifyDrivers_NotifyDriverCirc_Params__init__S)
                  8001ece0    00000020     app_pe66.oe66 (.text:ti_sdo_ipc_notifyDrivers_NotifyDriverCirc_delete)
                  8001ed00    00000020     ipc.ae66 : Ipc.obj (.text:ti_sdo_ipc_notifyDrivers_NotifyDriverCirc_disable__E)
                  8001ed20    00000020              : Ipc.obj (.text:ti_sdo_ipc_notifyDrivers_NotifyDriverCirc_enableEvent__E)
                  8001ed40    00000020              : Ipc.obj (.text:ti_sdo_ipc_notifyDrivers_NotifyDriverCirc_setNotifyHandle__E)
                  8001ed60    00000020     app_pe66.oe66 (.text:ti_sdo_ipc_nsremote_NameServerRemoteNotify_Object__first__S)
                  8001ed80    00000020     app_pe66.oe66 (.text:ti_sdo_ipc_nsremote_NameServerRemoteNotify_Object__next__S)
                  8001eda0    00000020     app_pe66.oe66 (.text:ti_sdo_ipc_nsremote_NameServerRemoteNotify_Params__init__S)
                  8001edc0    00000020     app_pe66.oe66 (.text:ti_sdo_ipc_nsremote_NameServerRemoteNotify_delete)
                  8001ede0    00000020     ipc.ae66 : Ipc.obj (.text:ti_sdo_ipc_nsremote_NameServerRemoteNotify_sharedMemReq__E)
                  8001ee00    00000020              : Ipc.obj (.text:ti_sdo_ipc_transports_TransportShmNotifySetup_sharedMemReq__E)
                  8001ee20    00000020     app_pe66.oe66 (.text:ti_sdo_ipc_transports_TransportShmNotify_Params__init__S)
                  8001ee40    00000020     ipc.ae66 : Ipc.obj (.text:ti_sdo_ipc_transports_TransportShmNotify_control__E)
                  8001ee60    00000020              : Ipc.obj (.text:ti_sdo_ipc_transports_TransportShmNotify_getStatus__E)
                  8001ee80    00000020              : Ipc.obj (.text:ti_sdo_ipc_transports_TransportShmNotify_setErrFxn__E)
                  8001eea0    00000020              : Ipc.obj (.text:ti_sdo_utils_List_Instance_init__E)
                  8001eec0    00000020     app_pe66.oe66 (.text:ti_sdo_utils_List_Object__get__S)
                  8001eee0    00000020     app_pe66.oe66 (.text:ti_sdo_utils_List_destruct)
                  8001ef00    00000020     ipc.ae66 : Ipc.obj (.text:ti_sdo_utils_List_enqueueHead__E)
                  8001ef20    00000020              : Ipc.obj (.text:ti_sdo_utils_List_enqueue__E)
                  8001ef40    00000020              : Ipc.obj (.text:ti_sdo_utils_List_get__E)
                  8001ef60    00000020              : Ipc.obj (.text:ti_sdo_utils_List_next__E)
                  8001ef80    00000020              : Ipc.obj (.text:ti_sdo_utils_List_putHead__E)
                  8001efa0    00000020              : Ipc.obj (.text:ti_sdo_utils_List_put__E)
                  8001efc0    00000020              : Ipc.obj (.text:ti_sdo_utils_List_remove__E)
                  8001efe0    00000020     app_pe66.oe66 (.text:ti_sdo_utils_MultiProc_Module__startupDone__S)
                  8001f000    00000020     ipc.ae66 : Ipc.obj (.text:ti_sdo_utils_MultiProc_getClusterId__F)
                  8001f020    00000020     app_pe66.oe66 (.text:ti_sdo_utils_NameServer_Module__startupDone__F)
                  8001f040    00000020     app_pe66.oe66 (.text:ti_sdo_utils_NameServer_Object__first__S)
                  8001f060    00000020     app_pe66.oe66 (.text:ti_sdo_utils_NameServer_Object__next__S)
                  8001f080    00000020     app_pe66.oe66 (.text:ti_sysbios_BIOS_RtsGateProxy_enter__E)
                  8001f0a0    00000020     app_pe66.oe66 (.text:ti_sysbios_BIOS_RtsGateProxy_leave__E)
                  8001f0c0    00000020     sysbios.ae66 : BIOS.obj (.text:ti_sysbios_BIOS_exit__E)
                  8001f0e0    00000020                  : BIOS.obj (.text:ti_sysbios_BIOS_linkedWithIncorrectBootLibrary__E)
                  8001f100    00000020     app_pe66.oe66 (.text:ti_sysbios_BIOS_nullFunc__I)
                  8001f120    00000020     sysbios.ae66 : BIOS.obj (.text:ti_sysbios_BIOS_setThreadType__E)
                  8001f140    00000020                  : BIOS.obj (.text:ti_sysbios_BIOS_start__E)
                  8001f160    00000020     app_pe66.oe66 (.text:ti_sysbios_family_c62_TaskSupport_Module__startupDone__S)
                  8001f180    00000020     sysbios.ae66 : BIOS.obj (.text:ti_sysbios_family_c62_TaskSupport_checkStack__E)
                  8001f1a0    00000020                  : BIOS.obj (.text:ti_sysbios_family_c62_TaskSupport_getStackAlignment__E)
                  8001f1c0    00000020     app_pe66.oe66 (.text:ti_sysbios_family_c64p_Hwi_Module__startupDone__F)
                  8001f1e0    00000020     sysbios.ae66 : BIOS.obj (.text:ti_sysbios_family_c64p_Hwi_clearInterrupt__E)
                  8001f200    00000020                  : BIOS.obj (.text:ti_sysbios_family_c64p_Hwi_startup__E)
                  8001f220    00000020                  : BIOS.obj (.text:ti_sysbios_family_c64p_Hwi_switchFromBootStack__E)
                  8001f240    00000020                  : BIOS.obj (.text:ti_sysbios_family_c64p_Hwi_unPluggedInterrupt__I)
                  8001f260    00000020                  : BIOS.obj (.text:ti_sysbios_family_c64p_TimestampProvider_Module_startup__E)
                  8001f280    00000020                  : BIOS.obj (.text:ti_sysbios_family_c64p_TimestampProvider_get32__E)
                  8001f2a0    00000020                  : BIOS.obj (.text:ti_sysbios_family_c64p_TimestampProvider_get64__E)
                  8001f2c0    00000020                  : BIOS.obj (.text:ti_sysbios_family_c64p_tci6488_TimerSupport_enable__E)
                  8001f2e0    00000020                  : BIOS.obj (.text:ti_sysbios_family_c66_Cache_RTSSynchInv__I)
                  8001f300    00000020                  : BIOS.obj (.text:ti_sysbios_family_c66_Cache_RTSSynchWbInv__I)
                  8001f320    00000020                  : BIOS.obj (.text:ti_sysbios_family_c66_Cache_RTSSynchWb__I)
                  8001f340    00000020                  : BIOS.obj (.text:ti_sysbios_family_c66_Cache_inv__E)
                  8001f360    00000020                  : BIOS.obj (.text:ti_sysbios_family_c66_Cache_wait__E)
                  8001f380    00000020                  : BIOS.obj (.text:ti_sysbios_family_c66_Cache_wbInv__E)
                  8001f3a0    00000020                  : BIOS.obj (.text:ti_sysbios_family_c66_Cache_wb__E)
                  8001f3c0    00000020                  : BIOS.obj (.text:ti_sysbios_gates_GateAll_Instance_init__E)
                  8001f3e0    00000020                  : BIOS.obj (.text:ti_sysbios_gates_GateAll_query__E)
                  8001f400    00000020                  : BIOS.obj (.text:ti_sysbios_gates_GateHwi_Instance_init__E)
                  8001f420    00000020                  : BIOS.obj (.text:ti_sysbios_gates_GateHwi_enter__E)
                  8001f440    00000020                  : BIOS.obj (.text:ti_sysbios_gates_GateHwi_leave__E)
                  8001f460    00000020                  : BIOS.obj (.text:ti_sysbios_gates_GateHwi_query__E)
                  8001f480    00000020                  : BIOS.obj (.text:ti_sysbios_gates_GateMutexPri_Instance_finalize__E)
                  8001f4a0    00000020                  : BIOS.obj (.text:ti_sysbios_gates_GateMutexPri_query__E)
                  8001f4c0    00000020                  : BIOS.obj (.text:ti_sysbios_gates_GateMutex_Instance_finalize__E)
                  8001f4e0    00000020                  : BIOS.obj (.text:ti_sysbios_gates_GateMutex_query__E)
                  8001f500    00000020                  : BIOS.obj (.text:ti_sysbios_gates_GateSwi_Instance_init__E)
                  8001f520    00000020                  : BIOS.obj (.text:ti_sysbios_gates_GateSwi_query__E)
                  8001f540    00000020     app_pe66.oe66 (.text:ti_sysbios_hal_Hwi_HwiProxy_create)
                  8001f560    00000020     app_pe66.oe66 (.text:ti_sysbios_hal_Hwi_HwiProxy_delete)
                  8001f580    00000020     sysbios.ae66 : BIOS.obj (.text:ti_sysbios_hal_Hwi_Instance_finalize__E)
                  8001f5a0    00000020                  : BIOS.obj (.text:ti_sysbios_hal_Hwi_Module_startup__E)
                  8001f5c0    00000020     app_pe66.oe66 (.text:ti_sysbios_hal_Hwi_Params__init__S)
                  8001f5e0    00000020     app_pe66.oe66 (.text:ti_sysbios_hal_Hwi_delete)
                  8001f600    00000020     app_pe66.oe66 (.text:ti_sysbios_heaps_HeapMem_Module_GateProxy_enter__E)
                  8001f620    00000020     app_pe66.oe66 (.text:ti_sysbios_heaps_HeapMem_Module_GateProxy_leave__E)
                  8001f640    00000020     sysbios.ae66 : BIOS.obj (.text:ti_sysbios_heaps_HeapMem_isBlocking__E)
                  8001f660    00000020     app_pe66.oe66 (.text:ti_sysbios_knl_Clock_TimerProxy_getMaxTicks__E)
                  8001f680    00000020     sysbios.ae66 : BIOS.obj (.text:ti_sysbios_knl_Idle_loop__E)
                  8001f6a0    00000020                  : BIOS.obj (.text:ti_sysbios_knl_Queue_Instance_init__E)
                  8001f6c0    00000020     app_pe66.oe66 (.text:ti_sysbios_knl_Queue_Object__get__S)
                  8001f6e0    00000020     app_pe66.oe66 (.text:ti_sysbios_knl_Queue_destruct)
                  8001f700    00000020     sysbios.ae66 : BIOS.obj (.text:ti_sysbios_knl_Queue_empty__E)
                  8001f720    00000020                  : BIOS.obj (.text:ti_sysbios_knl_Semaphore_Instance_finalize__E)
                  8001f740    00000020     app_pe66.oe66 (.text:ti_sysbios_knl_Semaphore_Params__init__S)
                  8001f760    00000020     app_pe66.oe66 (.text:ti_sysbios_knl_Semaphore_delete)
                  8001f780    00000020     app_pe66.oe66 (.text:ti_sysbios_knl_Swi_Params__init__S)
                  8001f7a0    00000020     sysbios.ae66 : BIOS.obj (.text:ti_sysbios_knl_Swi_disable__E)
                  8001f7c0    00000020                  : BIOS.obj (.text:ti_sysbios_knl_Task_disable__E)
                  8001f7e0    00000020                  : BIOS.obj (.text:ti_sysbios_knl_Task_startup__E)
                  8001f800    00000020                  : BIOS.obj (.text:ti_sysbios_syncs_SyncSem_Instance_finalize__E)
                  8001f820    00000020     app_pe66.oe66 (.text:ti_sysbios_syncs_SyncSem_delete)
                  8001f840    00000020     sysbios.ae66 : BIOS.obj (.text:ti_sysbios_syncs_SyncSem_query__E)
                  8001f860    00000020                  : BIOS.obj (.text:ti_sysbios_syncs_SyncSem_signal__E)
                  8001f880    00000020     app_pe66.oe66 (.text:ti_sysbios_timers_timer64_Timer_Module__startupDone__F)
                  8001f8a0    00000020     sysbios.ae66 : BIOS.obj (.text:ti_sysbios_timers_timer64_Timer_getMaxTicks__E)
                  8001f8c0    00000020                  : BIOS.obj (.text:ti_sysbios_xdcruntime_GateThreadSupport_Instance_finalize__E)
                  8001f8e0    00000020                  : BIOS.obj (.text:ti_sysbios_xdcruntime_GateThreadSupport_Instance_init__E)
                  8001f900    00000020                  : BIOS.obj (.text:ti_sysbios_xdcruntime_GateThreadSupport_enter__E)
                  8001f920    00000020     ti.targets.rts6000.ae66 : Error.oe66 (.text:xdc_runtime_Error_getSite__E)
                  8001f940    00000020                             : Error.oe66 (.text:xdc_runtime_Error_raiseX__E)
                  8001f960    00000020                             : GateNull.oe66 (.text:xdc_runtime_GateNull_enter__E)
                  8001f980    00000020                             : GateNull.oe66 (.text:xdc_runtime_GateNull_leave__E)
                  8001f9a0    00000020                             : GateNull.oe66 (.text:xdc_runtime_GateNull_query__E)
                  8001f9c0    00000020                             : Gate.oe66 (.text:xdc_runtime_Gate_enterSystem__E)
                  8001f9e0    00000020                             : Gate.oe66 (.text:xdc_runtime_Gate_leaveSystem__E)
                  8001fa00    00000020     app_pe66.oe66 (.text:xdc_runtime_IHeap_alloc)
                  8001fa20    00000020     app_pe66.oe66 (.text:xdc_runtime_IHeap_free)
                  8001fa40    00000020     app_pe66.oe66 (.text:xdc_runtime_LoggerBuf_Module_GateProxy_enter__E)
                  8001fa60    00000020     app_pe66.oe66 (.text:xdc_runtime_LoggerBuf_Module_GateProxy_leave__E)
                  8001fa80    00000020     ti.targets.rts6000.ae66 : LoggerBuf.oe66 (.text:xdc_runtime_LoggerBuf_disable__E)
                  8001faa0    00000020                             : LoggerBuf.oe66 (.text:xdc_runtime_LoggerBuf_enable__E)
                  8001fac0    00000020                             : Memory.oe66 (.text:xdc_runtime_Memory_calloc__E)
                  8001fae0    00000020                             : Memory.oe66 (.text:xdc_runtime_Memory_free__E)
                  8001fb00    00000020                             : Memory.oe66 (.text:xdc_runtime_Memory_getMaxDefaultTypeAlign__E)
                  8001fb20    00000020     app_pe66.oe66 (.text:xdc_runtime_Startup_Module__startupDone__S)
                  8001fb40    00000020     app_pe66.oe66 (.text:xdc_runtime_Startup_exec__I)
                  8001fb60    00000020     ti.targets.rts6000.ae66 : Startup.oe66 (.text:xdc_runtime_Startup_rtsDone__E)
                  8001fb80    00000020                             : SysMin.oe66 (.text:xdc_runtime_SysMin_ready__E)
                  8001fba0    00000020     app_pe66.oe66 (.text:xdc_runtime_System_Module_GateProxy_enter__E)
                  8001fbc0    00000020     app_pe66.oe66 (.text:xdc_runtime_System_Module_GateProxy_leave__E)
                  8001fbe0    00000020     ti.targets.rts6000.ae66 : System.oe66 (.text:xdc_runtime_System_Module_startup__E)
                  8001fc00    00000020                             : System.oe66 (.text:xdc_runtime_System_vsnprintf__E)
                  8001fc20    00000020                             : Text.oe66 (.text:xdc_runtime_Text_ropeText__E)
                  8001fc40    00000020     app_pe66.oe66 (.text:xdc_runtime_Text_visitRope__I)
                  8001fc60    00000020     ti.targets.rts6000.ae66 : GateThread.oe66 (.text:xdc_runtime_knl_GateThread_Instance_finalize__E)
                  8001fc80    00000020     app_pe66.oe66 (.text:xdc_runtime_knl_GateThread_Module__startupDone__S)
                  8001fca0    00000020     app_pe66.oe66 (.text:xdc_runtime_knl_GateThread_Proxy_create)
                  8001fcc0    00000020     app_pe66.oe66 (.text:xdc_runtime_knl_GateThread_Proxy_delete)
                  8001fce0    00000020     app_pe66.oe66 (.text:xdc_runtime_knl_GateThread_Proxy_enter__E)
                  8001fd00    00000020     app_pe66.oe66 (.text:xdc_runtime_knl_GateThread_Proxy_leave__E)
                  8001fd20    00000020     ti.targets.rts6000.ae66 : GateThread.oe66 (.text:xdc_runtime_knl_GateThread_enter__E)
                  8001fd40    00000020                             : GateThread.oe66 (.text:xdc_runtime_knl_GateThread_leave__E)

.far       0    8001fd60    000111b2     UNINITIALIZED
                  8001fd60    0000c800     (.common:ti_sysbios_heaps_HeapMem_Instance_State_0_buf__A)
                  8002c560    00004000     app_pe66.oe66 (.far:taskStackSection)
                  80030560    000005a8     ti.drv.qmss.ae66 : qmss_drv.oe66 (.far:local:uninit)
                  80030b08    00000200     (.common:xdc_runtime_LoggerBuf_Instance_State_0_entryArr__A)
                  80030d08    00000200     (.common:xdc_runtime_SysMin_Module_State_0_outbuf__A)
                  80030f08    00000008     (.common:parmbuf)
                  80030f10    00000002                      : qmss_drv.oe66 (.far:local:init)

.const     0    80030f18    00004c1f     
                  80030f18    00002e42     app_pe66.oe66 (.const:xdc_runtime_Text_charTab__A)
                  80033d5a    00000002     app_pe66.oe66 (.const:ti_sdo_ipc_GateMP_Module__id__C)
                  80033d5c    00000518     sysbios.ae66 : BIOS.obj (.const:.string)
                  80034274    00000004     ti.targets.rts6000.ae66 : Assert.oe66 (.const:.string)
                  80034278    00000400     app_pe66.oe66 (.const:ti_sysbios_family_c66_Cache_marvalues__C)
                  80034678    00000184     app_pe66.oe66 (.const:xdc_runtime_Text_nodeTab__A)
                  800347fc    000000c0     app_pe66.oe66 (.const:.string)
                  800348bc    000000b0     qmss_init.obj (.const:.string)
                  8003496c    00000064     main.obj (.const:.string)
                  800349d0    00000058     ti.targets.rts6000.ae66 : Error.oe66 (.const:.string)
                  80034a28    00000054     ipc.ae66 : Ipc.obj (.const:.string)
                  80034a7c    00000044     app_pe66.oe66 (.const:ti_sysbios_knl_Task_Object__PARAMS__C)
                  80034ac0    00000044     app_pe66.oe66 (.const:xdc_runtime_Startup_sfxnTab__A)
                  80034b04    00000040     ti.targets.rts6000.ae66 : Text.oe66 (.const:.string)
                  80034b44    0000003c     app_pe66.oe66 (.const:xdc_runtime_LoggerBuf_Module__FXNS__C)
                  80034b80    00000038     app_pe66.oe66 (.const:ti_sdo_ipc_notifyDrivers_NotifyDriverCirc_Module__FXNS__C)
                  80034bb8    00000034     app_pe66.oe66 (.const:ti_sdo_ipc_GateMP_Object__PARAMS__C)
                  80034bec    00000034     app_pe66.oe66 (.const:ti_sdo_ipc_notifyDrivers_NotifyDriverCirc_Object__PARAMS__C)
                  80034c20    00000030     app_pe66.oe66 (.const:ti_sdo_ipc_heaps_HeapMemMP_Object__PARAMS__C)
                  80034c50    00000030     app_pe66.oe66 (.const:ti_sysbios_family_c64p_Hwi_Object__PARAMS__C)
                  80034c80    0000002c     ti.targets.rts6000.ae66 : Startup.oe66 (.const:.string)
                  80034cac    0000002c     app_pe66.oe66 (.const:ti_sdo_ipc_gates_GateHWSem_Module__FXNS__C)
                  80034cd8    0000002c     app_pe66.oe66 (.const:ti_sdo_ipc_gates_GateMPSupportNull_Module__FXNS__C)
                  80034d04    0000002c     app_pe66.oe66 (.const:ti_sdo_ipc_gates_GatePeterson_Module__FXNS__C)
                  80034d30    0000002c     app_pe66.oe66 (.const:ti_sysbios_hal_Hwi_Object__PARAMS__C)
                  80034d5c    00000028     app_pe66.oe66 (.const:ti_sdo_ipc_heaps_HeapMemMP_Module__FXNS__C)
                  80034d84    00000028     app_pe66.oe66 (.const:ti_sdo_ipc_nsremote_NameServerRemoteNotify_Module__FXNS__C)
                  80034dac    00000028     app_pe66.oe66 (.const:ti_sdo_ipc_transports_TransportShmNotify_Module__FXNS__C)
                  80034dd4    00000028     app_pe66.oe66 (.const:ti_sysbios_heaps_HeapMem_Module__FXNS__C)
                  80034dfc    00000028     app_pe66.oe66 (.const:ti_sysbios_knl_Swi_Object__PARAMS__C)
                  80034e24    00000028     app_pe66.oe66 (.const:xdc_runtime_LoggerBuf_Object__PARAMS__C)
                  80034e4c    00000024     init.obj (.const:.string)
                  80034e70    00000024     app_pe66.oe66 (.const:ti_sdo_ipc_gates_GateHWSem_Object__PARAMS__C)
                  80034e94    00000024     app_pe66.oe66 (.const:ti_sdo_ipc_gates_GateMPSupportNull_Object__PARAMS__C)
                  80034eb8    00000024     app_pe66.oe66 (.const:ti_sdo_ipc_gates_GatePeterson_Object__PARAMS__C)
                  80034edc    00000024     app_pe66.oe66 (.const:ti_sysbios_gates_GateAll_Module__FXNS__C)
                  80034f00    00000024     app_pe66.oe66 (.const:ti_sysbios_gates_GateHwi_Module__FXNS__C)
                  80034f24    00000024     app_pe66.oe66 (.const:ti_sysbios_gates_GateMutexPri_Module__FXNS__C)
                  80034f48    00000024     app_pe66.oe66 (.const:ti_sysbios_gates_GateMutex_Module__FXNS__C)
                  80034f6c    00000024     app_pe66.oe66 (.const:ti_sysbios_gates_GateSwi_Module__FXNS__C)
                  80034f90    00000024     app_pe66.oe66 (.const:ti_sysbios_heaps_HeapMem_Object__PARAMS__C)
                  80034fb4    00000024     app_pe66.oe66 (.const:ti_sysbios_knl_Semaphore_Object__PARAMS__C)
                  80034fd8    00000024     app_pe66.oe66 (.const:ti_sysbios_syncs_SyncSem_Module__FXNS__C)
                  80034ffc    00000024     app_pe66.oe66 (.const:xdc_runtime_GateNull_Module__FXNS__C)
                  80035020    00000024     app_pe66.oe66 (.const:xdc_runtime_knl_GateThread_Module__FXNS__C)
                  80035044    00000004     app_pe66.oe66 (.const:ti_sdo_ipc_GateMP_A_invalidClose__C)
                  80035048    00000022     app_pe66.oe66 (.const:xdc_runtime_Startup_sfxnRts__A)
                  8003506a    00000002     app_pe66.oe66 (.const:ti_sdo_ipc_GateMP_Module__loggerDefined__C)
                  8003506c    00000020     app_pe66.oe66 (.const:ti_sdo_ipc_GateMP_Object__DESC__C)
                  8003508c    00000020     app_pe66.oe66 (.const:ti_sdo_ipc_MessageQ_Object__DESC__C)
                  800350ac    00000020     app_pe66.oe66 (.const:ti_sdo_ipc_MessageQ_Object__PARAMS__C)
                  800350cc    00000020     app_pe66.oe66 (.const:ti_sdo_ipc_Notify_Object__DESC__C)
                  800350ec    00000020     app_pe66.oe66 (.const:ti_sdo_ipc_gates_GateHWSem_Object__DESC__C)
                  8003510c    00000020     app_pe66.oe66 (.const:ti_sdo_ipc_gates_GateMPSupportNull_Object__DESC__C)
                  8003512c    00000020     app_pe66.oe66 (.const:ti_sdo_ipc_gates_GatePeterson_Object__DESC__C)
                  8003514c    00000020     app_pe66.oe66 (.const:ti_sdo_ipc_heaps_HeapMemMP_Object__DESC__C)
                  8003516c    00000020     app_pe66.oe66 (.const:ti_sdo_ipc_notifyDrivers_NotifyDriverCirc_Object__DESC__C)
                  8003518c    00000020     app_pe66.oe66 (.const:ti_sdo_ipc_nsremote_NameServerRemoteNotify_Object__DESC__C)
                  800351ac    00000020     app_pe66.oe66 (.const:ti_sdo_ipc_nsremote_NameServerRemoteNotify_Object__PARAMS__C)
                  800351cc    00000020     app_pe66.oe66 (.const:ti_sdo_ipc_transports_TransportShmNotify_Object__DESC__C)
                  800351ec    00000020     app_pe66.oe66 (.const:ti_sdo_utils_List_Object__DESC__C)
                  8003520c    00000020     app_pe66.oe66 (.const:ti_sysbios_family_c64p_Hwi_Object__DESC__C)
                  8003522c    00000020     app_pe66.oe66 (.const:ti_sysbios_gates_GateAll_Object__DESC__C)
                  8003524c    00000020     app_pe66.oe66 (.const:ti_sysbios_gates_GateHwi_Object__DESC__C)
                  8003526c    00000020     app_pe66.oe66 (.const:ti_sysbios_gates_GateMutexPri_Object__DESC__C)
                  8003528c    00000020     app_pe66.oe66 (.const:ti_sysbios_gates_GateMutex_Object__DESC__C)
                  800352ac    00000020     app_pe66.oe66 (.const:ti_sysbios_gates_GateSwi_Object__DESC__C)
                  800352cc    00000020     app_pe66.oe66 (.const:ti_sysbios_hal_Hwi_Object__DESC__C)
                  800352ec    00000020     app_pe66.oe66 (.const:ti_sysbios_heaps_HeapMem_Object__DESC__C)
                  8003530c    00000020     app_pe66.oe66 (.const:ti_sysbios_knl_Queue_Object__DESC__C)
                  8003532c    00000020     app_pe66.oe66 (.const:ti_sysbios_knl_Semaphore_Object__DESC__C)
                  8003534c    00000020     app_pe66.oe66 (.const:ti_sysbios_knl_Swi_Object__DESC__C)
                  8003536c    00000020     app_pe66.oe66 (.const:ti_sysbios_knl_Task_Object__DESC__C)
                  8003538c    00000020     app_pe66.oe66 (.const:ti_sysbios_syncs_SyncSem_Object__DESC__C)
                  800353ac    00000020     app_pe66.oe66 (.const:ti_sysbios_xdcruntime_GateThreadSupport_Object__DESC__C)
                  800353cc    00000020     app_pe66.oe66 (.const:xdc_runtime_GateNull_Object__DESC__C)
                  800353ec    00000020     app_pe66.oe66 (.const:xdc_runtime_LoggerBuf_Object__DESC__C)
                  8003540c    00000020     app_pe66.oe66 (.const:xdc_runtime_knl_GateThread_Object__DESC__C)
                  8003542c    0000001c     app_pe66.oe66 (.const:ti_sdo_ipc_transports_TransportShmNotify_Object__PARAMS__C)
                  80035448    0000001c     app_pe66.oe66 (.const:ti_sysbios_syncs_SyncSem_Object__PARAMS__C)
                  80035464    00000018     ti.targets.rts6000.ae66 : System.oe66 (.const:.string)
                  8003547c    00000018     app_pe66.oe66 (.const:ti_sdo_ipc_Notify_Object__PARAMS__C)
                  80035494    00000018     app_pe66.oe66 (.const:ti_sdo_utils_List_Object__PARAMS__C)
                  800354ac    00000018     app_pe66.oe66 (.const:ti_sysbios_gates_GateAll_Object__PARAMS__C)
                  800354c4    00000018     app_pe66.oe66 (.const:ti_sysbios_gates_GateHwi_Object__PARAMS__C)
                  800354dc    00000018     app_pe66.oe66 (.const:ti_sysbios_gates_GateMutexPri_Object__PARAMS__C)
                  800354f4    00000018     app_pe66.oe66 (.const:ti_sysbios_gates_GateMutex_Object__PARAMS__C)
                  8003550c    00000018     app_pe66.oe66 (.const:ti_sysbios_gates_GateSwi_Object__PARAMS__C)
                  80035524    00000018     app_pe66.oe66 (.const:ti_sysbios_knl_Queue_Object__PARAMS__C)
                  8003553c    00000018     app_pe66.oe66 (.const:ti_sysbios_xdcruntime_GateThreadSupport_Object__PARAMS__C)
                  80035554    00000018     app_pe66.oe66 (.const:xdc_runtime_GateNull_Object__PARAMS__C)
                  8003556c    00000018     app_pe66.oe66 (.const:xdc_runtime_knl_GateThread_Object__PARAMS__C)
                  80035584    00000004     app_pe66.oe66 (.const:ti_sdo_ipc_GateMP_A_invalidDelete__C)
                  80035588    00000008     ti.drv.qmss.ae66 : qmss_drv.oe66 (.const:qmssQueueFree)
                  80035590    00000008                      : qmss_drv.oe66 (.const:qmssQueueFreeSize)
                  80035598    00000008     app_pe66.oe66 (.const:ti_sdo_utils_MultiProc_nameList__A)
                  800355a0    00000008     app_pe66.oe66 (.const:ti_sysbios_knl_Idle_funcList__C)
                  800355a8    00000008     app_pe66.oe66 (.const:xdc_runtime_Startup_firstFxns__A)
                  800355b0    00000008     app_pe66.oe66 (.const:xdc_runtime_Startup_firstFxns__C)
                  800355b8    00000008     app_pe66.oe66 (.const:xdc_runtime_Startup_lastFxns__C)
                  800355c0    00000004     app_pe66.oe66 (.const:ti_sdo_ipc_GateMP_E_gateUnavailable__C)
                  800355c4    00000004     app_pe66.oe66 (.const:ti_sdo_ipc_GateMP_E_localGate__C)
                  800355c8    00000004     app_pe66.oe66 (.const:ti_sdo_ipc_GateMP_LM_create__C)
                  800355cc    00000004     app_pe66.oe66 (.const:ti_sdo_ipc_GateMP_LM_delete__C)
                  800355d0    00000004     app_pe66.oe66 (.const:ti_sdo_ipc_GateMP_LM_enter__C)
                  800355d4    00000004     app_pe66.oe66 (.const:ti_sdo_ipc_GateMP_LM_leave__C)
                  800355d8    00000004     app_pe66.oe66 (.const:ti_sdo_ipc_GateMP_LM_open__C)
                  800355dc    00000004     app_pe66.oe66 (.const:ti_sdo_ipc_GateMP_Module__diagsEnabled__C)
                  800355e0    00000004     app_pe66.oe66 (.const:ti_sdo_ipc_GateMP_Module__diagsIncluded__C)
                  800355e4    00000004     app_pe66.oe66 (.const:ti_sdo_ipc_GateMP_Module__diagsMask__C)
                  800355e8    00000004     app_pe66.oe66 (.const:ti_sdo_ipc_GateMP_Module__loggerFxn2__C)
                  800355ec    00000004     app_pe66.oe66 (.const:ti_sdo_ipc_GateMP_Module__loggerFxn4__C)
                  800355f0    00000004     app_pe66.oe66 (.const:ti_sdo_ipc_GateMP_Module__loggerObj__C)
                  800355f4    00000004     app_pe66.oe66 (.const:ti_sdo_ipc_Ipc_A_addrNotCacheAligned__C)
                  800355f8    00000004     app_pe66.oe66 (.const:ti_sdo_ipc_Ipc_A_addrNotInSharedRegion__C)
                  800355fc    00000004     app_pe66.oe66 (.const:ti_sdo_ipc_Ipc_A_internal__C)
                  80035600    00000004     app_pe66.oe66 (.const:ti_sdo_ipc_Ipc_A_invArgument__C)
                  80035604    00000004     app_pe66.oe66 (.const:ti_sdo_ipc_Ipc_A_invParam__C)
                  80035608    00000004     app_pe66.oe66 (.const:ti_sdo_ipc_Ipc_A_nullArgument__C)
                  8003560c    00000004     app_pe66.oe66 (.const:ti_sdo_ipc_Ipc_E_internal__C)
                  80035610    00000004     app_pe66.oe66 (.const:ti_sdo_ipc_Ipc_E_nameFailed__C)
                  80035614    00000004     app_pe66.oe66 (.const:ti_sdo_ipc_Ipc_E_versionMismatch__C)
                  80035618    00000004     app_pe66.oe66 (.const:ti_sdo_ipc_Ipc_Module__diagsEnabled__C)
                  8003561c    00000004     app_pe66.oe66 (.const:ti_sdo_ipc_Ipc_Module__diagsIncluded__C)
                  80035620    00000004     app_pe66.oe66 (.const:ti_sdo_ipc_Ipc_Module__diagsMask__C)
                  80035624    00000004     app_pe66.oe66 (.const:ti_sdo_ipc_Ipc_numUserFxns__C)
                  80035628    00000004     app_pe66.oe66 (.const:ti_sdo_ipc_Ipc_procSync__C)
                  8003562c    00000004     app_pe66.oe66 (.const:ti_sdo_ipc_Ipc_userFxns__C)
                  80035630    00000004     app_pe66.oe66 (.const:ti_sdo_ipc_MessageQ_A_invalidMsg__C)
                  80035634    00000004     app_pe66.oe66 (.const:ti_sdo_ipc_MessageQ_A_invalidObj__C)
                  80035638    00000004     app_pe66.oe66 (.const:ti_sdo_ipc_MessageQ_A_invalidQueueId__C)
                  8003563c    00000004     app_pe66.oe66 (.const:ti_sdo_ipc_MessageQ_A_procIdInvalid__C)
                  80035640    00000004     app_pe66.oe66 (.const:ti_sdo_ipc_MessageQ_A_unregisteredTransport__C)
                  80035644    00000004     app_pe66.oe66 (.const:ti_sdo_ipc_MessageQ_E_indexNotAvailable__C)
                  80035648    00000004     app_pe66.oe66 (.const:ti_sdo_ipc_MessageQ_E_maxReached__C)
                  8003564c    00000004     app_pe66.oe66 (.const:ti_sdo_ipc_MessageQ_E_nameFailed__C)
                  80035650    00000004     app_pe66.oe66 (.const:ti_sdo_ipc_MessageQ_Instance_State_highList__O)
                  80035654    00000004     app_pe66.oe66 (.const:ti_sdo_ipc_MessageQ_Instance_State_normalList__O)
                  80035658    00000004     app_pe66.oe66 (.const:ti_sdo_ipc_MessageQ_LM_get__C)
                  8003565c    00000004     app_pe66.oe66 (.const:ti_sdo_ipc_MessageQ_LM_putLocal__C)
                  80035660    00000004     app_pe66.oe66 (.const:ti_sdo_ipc_MessageQ_Module__diagsEnabled__C)
                  80035664    00000004     app_pe66.oe66 (.const:ti_sdo_ipc_MessageQ_Module__diagsIncluded__C)
                  80035668    00000004     app_pe66.oe66 (.const:ti_sdo_ipc_MessageQ_Module__diagsMask__C)
                  8003566c    00000004     app_pe66.oe66 (.const:ti_sdo_ipc_MessageQ_Module__loggerFxn4__C)
                  80035670    00000004     app_pe66.oe66 (.const:ti_sdo_ipc_MessageQ_Module__loggerObj__C)
                  80035674    00000004     app_pe66.oe66 (.const:ti_sdo_ipc_MessageQ_Object__count__C)
                  80035678    00000004     app_pe66.oe66 (.const:ti_sdo_ipc_MessageQ_Object__heap__C)
                  8003567c    00000004     app_pe66.oe66 (.const:ti_sdo_ipc_MessageQ_maxRuntimeEntries__C)
                  80035680    00000004     app_pe66.oe66 (.const:ti_sdo_ipc_MessageQ_numReservedEntries__C)
                  80035684    00000004     app_pe66.oe66 (.const:ti_sdo_ipc_Notify_A_alreadyRegistered__C)
                  80035688    00000004     app_pe66.oe66 (.const:ti_sdo_ipc_Notify_A_internal__C)
                  8003568c    00000004     app_pe66.oe66 (.const:ti_sdo_ipc_Notify_A_invArgument__C)
                  80035690    00000004     app_pe66.oe66 (.const:ti_sdo_ipc_Notify_A_notRegistered__C)
                  80035694    00000004     app_pe66.oe66 (.const:ti_sdo_ipc_Notify_A_reservedEvent__C)
                  80035698    00000004     app_pe66.oe66 (.const:ti_sdo_ipc_Notify_Module__diagsEnabled__C)
                  8003569c    00000004     app_pe66.oe66 (.const:ti_sdo_ipc_Notify_Module__diagsIncluded__C)
                  800356a0    00000004     app_pe66.oe66 (.const:ti_sdo_ipc_Notify_Module__diagsMask__C)
                  800356a4    00000004     app_pe66.oe66 (.const:ti_sdo_ipc_Notify_Module__gateObj__C)
                  800356a8    00000004     app_pe66.oe66 (.const:ti_sdo_ipc_Notify_Object__heap__C)
                  800356ac    00000004     app_pe66.oe66 (.const:ti_sdo_ipc_Notify_numEvents__C)
                  800356b0    00000004     app_pe66.oe66 (.const:ti_sdo_ipc_SharedRegion_A_addrOutOfRange__C)
                  800356b4    00000004     app_pe66.oe66 (.const:ti_sdo_ipc_SharedRegion_A_idTooLarge__C)
                  800356b8    00000004     app_pe66.oe66 (.const:ti_sdo_ipc_SharedRegion_A_noHeap__C)
                  800356bc    00000004     app_pe66.oe66 (.const:ti_sdo_ipc_SharedRegion_A_region0Invalid__C)
                  800356c0    00000004     app_pe66.oe66 (.const:ti_sdo_ipc_SharedRegion_A_regionInvalid__C)
                  800356c4    00000004     app_pe66.oe66 (.const:ti_sdo_ipc_SharedRegion_A_reserveTooMuch__C)
                  800356c8    00000004     app_pe66.oe66 (.const:ti_sdo_ipc_SharedRegion_INVALIDSRPTR__C)
                  800356cc    00000004     app_pe66.oe66 (.const:ti_sdo_ipc_SharedRegion_Module__diagsEnabled__C)
                  800356d0    00000004     app_pe66.oe66 (.const:ti_sdo_ipc_SharedRegion_Module__diagsIncluded__C)
                  800356d4    00000004     app_pe66.oe66 (.const:ti_sdo_ipc_SharedRegion_Module__diagsMask__C)
                  800356d8    00000004     app_pe66.oe66 (.const:ti_sdo_ipc_SharedRegion_numOffsetBits__C)
                  800356dc    00000004     app_pe66.oe66 (.const:ti_sdo_ipc_SharedRegion_offsetMask__C)
                  800356e0    00000004     app_pe66.oe66 (.const:ti_sdo_ipc_family_tci663x_Interrupt_A_clusterBaseId__C)
                  800356e4    00000004     app_pe66.oe66 (.const:ti_sdo_ipc_family_tci663x_Interrupt_A_hostConfig__C)
                  800356e8    00000004     app_pe66.oe66 (.const:ti_sdo_ipc_family_tci663x_Interrupt_INTERDSPINT__C)
                  800356ec    00000004     app_pe66.oe66 (.const:ti_sdo_ipc_family_tci663x_Interrupt_IPCAR0__C)
                  800356f0    00000004     app_pe66.oe66 (.const:ti_sdo_ipc_family_tci663x_Interrupt_IPCGR0__C)
                  800356f4    00000004     app_pe66.oe66 (.const:ti_sdo_ipc_family_tci663x_Interrupt_IPCGRH__C)
                  800356f8    00000004     app_pe66.oe66 (.const:ti_sdo_ipc_family_tci663x_Interrupt_KICK0__C)
                  800356fc    00000004     app_pe66.oe66 (.const:ti_sdo_ipc_family_tci663x_Interrupt_KICK1__C)
                  80035700    00000004     app_pe66.oe66 (.const:ti_sdo_ipc_family_tci663x_Interrupt_Module__diagsEnabled__C)
                  80035704    00000004     app_pe66.oe66 (.const:ti_sdo_ipc_family_tci663x_Interrupt_Module__diagsIncluded__C)
                  80035708    00000004     app_pe66.oe66 (.const:ti_sdo_ipc_family_tci663x_Interrupt_Module__diagsMask__C)
                  8003570c    00000004     app_pe66.oe66 (.const:ti_sdo_ipc_family_tci663x_Interrupt_ipcIntr__C)
                  80035710    00000004     app_pe66.oe66 (.const:ti_sdo_ipc_gates_GateHWSem_A_invSemNum__C)
                  80035714    00000004     app_pe66.oe66 (.const:ti_sdo_ipc_gates_GateHWSem_Module__diagsEnabled__C)
                  80035718    00000004     app_pe66.oe66 (.const:ti_sdo_ipc_gates_GateHWSem_Module__diagsIncluded__C)
                  8003571c    00000004     app_pe66.oe66 (.const:ti_sdo_ipc_gates_GateHWSem_Module__diagsMask__C)
                  80035720    00000004     app_pe66.oe66 (.const:ti_sdo_ipc_gates_GateHWSem_baseAddr__C)
                  80035724    00000004     app_pe66.oe66 (.const:ti_sdo_ipc_gates_GateHWSem_numSems__C)
                  80035728    00000004     app_pe66.oe66 (.const:ti_sdo_ipc_gates_GateHWSem_reservedMaskArr__A)
                  8003572c    00000004     app_pe66.oe66 (.const:ti_sdo_ipc_gates_GateHWSem_reservedMaskArr__C)
                  80035730    00000004     app_pe66.oe66 (.const:ti_sdo_ipc_gates_GateMPSupportNull_A_invalidAction__C)
                  80035734    00000004     app_pe66.oe66 (.const:ti_sdo_ipc_gates_GateMPSupportNull_Module__diagsEnabled__C)
                  80035738    00000004     app_pe66.oe66 (.const:ti_sdo_ipc_gates_GateMPSupportNull_Module__diagsIncluded__C)
                  8003573c    00000004     app_pe66.oe66 (.const:ti_sdo_ipc_gates_GateMPSupportNull_Module__diagsMask__C)
                  80035740    00000004     app_pe66.oe66 (.const:ti_sdo_ipc_gates_GateMPSupportNull_action__C)
                  80035744    00000004     app_pe66.oe66 (.const:ti_sdo_ipc_gates_GatePeterson_E_gateRemotelyOpened__C)
                  80035748    00000004     app_pe66.oe66 (.const:ti_sdo_ipc_gates_GatePeterson_Module__diagsEnabled__C)
                  8003574c    00000004     app_pe66.oe66 (.const:ti_sdo_ipc_gates_GatePeterson_Module__diagsIncluded__C)
                  80035750    00000004     app_pe66.oe66 (.const:ti_sdo_ipc_gates_GatePeterson_Module__diagsMask__C)
                  80035754    00000004     app_pe66.oe66 (.const:ti_sdo_ipc_gates_GatePeterson_numInstances__C)
                  80035758    00000004     app_pe66.oe66 (.const:ti_sdo_ipc_heaps_HeapMemMP_A_align__C)
                  8003575c    00000004     app_pe66.oe66 (.const:ti_sdo_ipc_heaps_HeapMemMP_A_heapSize__C)
                  80035760    00000004     app_pe66.oe66 (.const:ti_sdo_ipc_heaps_HeapMemMP_A_invalidFree__C)
                  80035764    00000004     app_pe66.oe66 (.const:ti_sdo_ipc_heaps_HeapMemMP_A_zeroBlock__C)
                  80035768    00000004     app_pe66.oe66 (.const:ti_sdo_ipc_heaps_HeapMemMP_E_memory__C)
                  8003576c    00000004     app_pe66.oe66 (.const:ti_sdo_ipc_heaps_HeapMemMP_Module__diagsEnabled__C)
                  80035770    00000004     app_pe66.oe66 (.const:ti_sdo_ipc_heaps_HeapMemMP_Module__diagsIncluded__C)
                  80035774    00000004     app_pe66.oe66 (.const:ti_sdo_ipc_heaps_HeapMemMP_Module__diagsMask__C)
                  80035778    00000004     app_pe66.oe66 (.const:ti_sdo_ipc_interfaces_IGateMPSupport_Interface__BASE__C)
                  8003577c    00000004     app_pe66.oe66 (.const:ti_sdo_ipc_interfaces_IMessageQTransport_Interface__BASE__C)
                  80035780    00000004     app_pe66.oe66 (.const:ti_sdo_ipc_interfaces_INetworkTransport_Interface__BASE__C)
                  80035784    00000004     app_pe66.oe66 (.const:ti_sdo_ipc_interfaces_INotifyDriver_Interface__BASE__C)
                  80035788    00000004     app_pe66.oe66 (.const:ti_sdo_ipc_interfaces_ITransport_Interface__BASE__C)
                  8003578c    00000004     app_pe66.oe66 (.const:ti_sdo_ipc_notifyDrivers_NotifyDriverCirc_A_notSupported__C)
                  80035790    00000004     app_pe66.oe66 (.const:ti_sdo_ipc_notifyDrivers_NotifyDriverCirc_Module__diagsEnabled__C)
                  80035794    00000004     app_pe66.oe66 (.const:ti_sdo_ipc_notifyDrivers_NotifyDriverCirc_Module__diagsIncluded__C)
                  80035798    00000004     app_pe66.oe66 (.const:ti_sdo_ipc_notifyDrivers_NotifyDriverCirc_Module__diagsMask__C)
                  8003579c    00000004     app_pe66.oe66 (.const:ti_sdo_ipc_notifyDrivers_NotifyDriverCirc_maxIndex__C)
                  800357a0    00000004     app_pe66.oe66 (.const:ti_sdo_ipc_notifyDrivers_NotifyDriverCirc_modIndex__C)
                  800357a4    00000004     app_pe66.oe66 (.const:ti_sdo_ipc_notifyDrivers_NotifyDriverCirc_numMsgs__C)
                  800357a8    00000004     app_pe66.oe66 (.const:ti_sdo_ipc_nsremote_NameServerRemoteNotify_A_invalidValueLen__C)
                  800357ac    00000004     app_pe66.oe66 (.const:ti_sdo_ipc_nsremote_NameServerRemoteNotify_A_messageSize__C)
                  800357b0    00000004     app_pe66.oe66 (.const:ti_sdo_ipc_nsremote_NameServerRemoteNotify_Instance_State_semMultiBlock__O)
                  800357b4    00000004     app_pe66.oe66 (.const:ti_sdo_ipc_nsremote_NameServerRemoteNotify_Instance_State_semRemoteWait__O)
                  800357b8    00000004     app_pe66.oe66 (.const:ti_sdo_ipc_nsremote_NameServerRemoteNotify_Instance_State_swiRequest__O)
                  800357bc    00000004     app_pe66.oe66 (.const:ti_sdo_ipc_nsremote_NameServerRemoteNotify_Instance_State_swiResponse__O)
                  800357c0    00000004     app_pe66.oe66 (.const:ti_sdo_ipc_nsremote_NameServerRemoteNotify_Module__diagsEnabled__C)
                  800357c4    00000004     app_pe66.oe66 (.const:ti_sdo_ipc_nsremote_NameServerRemoteNotify_Module__diagsIncluded__C)
                  800357c8    00000004     app_pe66.oe66 (.const:ti_sdo_ipc_nsremote_NameServerRemoteNotify_Module__diagsMask__C)
                  800357cc    00000004     app_pe66.oe66 (.const:ti_sdo_ipc_nsremote_NameServerRemoteNotify_notifyEventId__C)
                  800357d0    00000004     app_pe66.oe66 (.const:ti_sdo_ipc_nsremote_NameServerRemoteNotify_timeout__C)
                  800357d4    00000004     app_pe66.oe66 (.const:ti_sdo_ipc_transports_TransportShmNotifySetup_priority__C)
                  800357d8    00000004     app_pe66.oe66 (.const:ti_sdo_utils_INameServerRemote_Interface__BASE__C)
                  800357dc    00000004     app_pe66.oe66 (.const:ti_sdo_utils_MultiProc_A_invalidMultiProcId__C)
                  800357e0    00000004     app_pe66.oe66 (.const:ti_sdo_utils_MultiProc_A_invalidProcName__C)
                  800357e4    00000004     app_pe66.oe66 (.const:ti_sdo_utils_MultiProc_Module__diagsEnabled__C)
                  800357e8    00000004     app_pe66.oe66 (.const:ti_sdo_utils_MultiProc_Module__diagsIncluded__C)
                  800357ec    00000004     app_pe66.oe66 (.const:ti_sdo_utils_MultiProc_Module__diagsMask__C)
                  800357f0    00000004     app_pe66.oe66 (.const:ti_sdo_utils_MultiProc_nameList__C)
                  800357f4    00000004     app_pe66.oe66 (.const:ti_sdo_utils_MultiProc_procAddrMode__C)
                  800357f8    00000004     app_pe66.oe66 (.const:ti_sdo_utils_NameServer_A_invArgument__C)
                  800357fc    00000004     app_pe66.oe66 (.const:ti_sdo_utils_NameServer_A_invalidLen__C)
                  80035800    00000004     app_pe66.oe66 (.const:ti_sdo_utils_NameServer_E_entryExists__C)
                  80035804    00000004     app_pe66.oe66 (.const:ti_sdo_utils_NameServer_E_maxReached__C)
                  80035808    00000004     app_pe66.oe66 (.const:ti_sdo_utils_NameServer_Instance_State_freeList__O)
                  8003580c    00000004     app_pe66.oe66 (.const:ti_sdo_utils_NameServer_Instance_State_nameList__O)
                  80035810    00000004     app_pe66.oe66 (.const:ti_sdo_utils_NameServer_Module__diagsEnabled__C)
                  80035814    00000004     app_pe66.oe66 (.const:ti_sdo_utils_NameServer_Module__diagsIncluded__C)
                  80035818    00000004     app_pe66.oe66 (.const:ti_sdo_utils_NameServer_Module__diagsMask__C)
                  8003581c    00000004     app_pe66.oe66 (.const:ti_sdo_utils_NameServer_Object__count__C)
                  80035820    00000004     app_pe66.oe66 (.const:ti_sysbios_family_c62_TaskSupport_stackAlignment__C)
                  80035824    00000004     app_pe66.oe66 (.const:ti_sysbios_family_c64p_Exception_E_exceptionMax__C)
                  80035828    00000004     app_pe66.oe66 (.const:ti_sysbios_family_c64p_Exception_exceptionHook__C)
                  8003582c    00000004     app_pe66.oe66 (.const:ti_sysbios_family_c64p_Exception_externalHook__C)
                  80035830    00000004     app_pe66.oe66 (.const:ti_sysbios_family_c64p_Exception_internalHook__C)
                  80035834    00000004     app_pe66.oe66 (.const:ti_sysbios_family_c64p_Exception_nmiHook__C)
                  80035838    00000004     app_pe66.oe66 (.const:ti_sysbios_family_c64p_Hwi_E_alreadyDefined__C)
                  8003583c    00000004     app_pe66.oe66 (.const:ti_sysbios_family_c64p_Hwi_E_handleNotFound__C)
                  80035840    00000004     app_pe66.oe66 (.const:ti_sysbios_family_c64p_Hwi_E_invalidIntNum__C)
                  80035844    00000004     app_pe66.oe66 (.const:ti_sysbios_family_c64p_Hwi_INTRMUX1Address__C)
                  80035848    00000004     app_pe66.oe66 (.const:ti_sysbios_family_c64p_Hwi_LD_end__C)
                  8003584c    00000004     app_pe66.oe66 (.const:ti_sysbios_family_c64p_Hwi_LM_begin__C)
                  80035850    00000004     app_pe66.oe66 (.const:ti_sysbios_family_c64p_Hwi_Module__diagsEnabled__C)
                  80035854    00000004     app_pe66.oe66 (.const:ti_sysbios_family_c64p_Hwi_Module__diagsIncluded__C)
                  80035858    00000004     app_pe66.oe66 (.const:ti_sysbios_family_c64p_Hwi_Module__diagsMask__C)
                  8003585c    00000004     app_pe66.oe66 (.const:ti_sysbios_family_c64p_Hwi_Module__loggerFxn1__C)
                  80035860    00000004     app_pe66.oe66 (.const:ti_sysbios_family_c64p_Hwi_Module__loggerFxn8__C)
                  80035864    00000004     app_pe66.oe66 (.const:ti_sysbios_family_c64p_Hwi_Module__loggerObj__C)
                  80035868    00000004     app_pe66.oe66 (.const:ti_sysbios_family_c66_Cache_E_invalidL1CacheSize__C)
                  8003586c    00000004     app_pe66.oe66 (.const:ti_sysbios_family_c66_Cache_E_invalidL2CacheSize__C)
                  80035870    00000004     app_pe66.oe66 (.const:ti_sysbios_family_c66_Cache_atomicBlockSize__C)
                  80035874    00000004     app_pe66.oe66 (.const:ti_sysbios_gates_GateMutexPri_A_badContext__C)
                  80035878    00000004     app_pe66.oe66 (.const:ti_sysbios_gates_GateMutexPri_A_enterTaskDisabled__C)
                  8003587c    00000004     app_pe66.oe66 (.const:ti_sysbios_gates_GateMutexPri_Instance_State_pendQ__O)
                  80035880    00000004     app_pe66.oe66 (.const:ti_sysbios_gates_GateMutexPri_Module__diagsEnabled__C)
                  80035884    00000004     app_pe66.oe66 (.const:ti_sysbios_gates_GateMutexPri_Module__diagsIncluded__C)
                  80035888    00000004     app_pe66.oe66 (.const:ti_sysbios_gates_GateMutexPri_Module__diagsMask__C)
                  8003588c    00000004     app_pe66.oe66 (.const:ti_sysbios_gates_GateMutex_A_badContext__C)
                  80035890    00000004     app_pe66.oe66 (.const:ti_sysbios_gates_GateMutex_Instance_State_sem__O)
                  80035894    00000004     app_pe66.oe66 (.const:ti_sysbios_gates_GateMutex_Module__diagsEnabled__C)
                  80035898    00000004     app_pe66.oe66 (.const:ti_sysbios_gates_GateMutex_Module__diagsIncluded__C)
                  8003589c    00000004     app_pe66.oe66 (.const:ti_sysbios_gates_GateMutex_Module__diagsMask__C)
                  800358a0    00000004     app_pe66.oe66 (.const:ti_sysbios_gates_GateSwi_A_badContext__C)
                  800358a4    00000004     app_pe66.oe66 (.const:ti_sysbios_gates_GateSwi_Module__diagsEnabled__C)
                  800358a8    00000004     app_pe66.oe66 (.const:ti_sysbios_gates_GateSwi_Module__diagsIncluded__C)
                  800358ac    00000004     app_pe66.oe66 (.const:ti_sysbios_gates_GateSwi_Module__diagsMask__C)
                  800358b0    00000004     app_pe66.oe66 (.const:ti_sysbios_hal_Hwi_E_stackOverflow__C)
                  800358b4    00000004     app_pe66.oe66 (.const:ti_sysbios_heaps_HeapMem_A_align__C)
                  800358b8    00000004     app_pe66.oe66 (.const:ti_sysbios_heaps_HeapMem_A_heapSize__C)
                  800358bc    00000004     app_pe66.oe66 (.const:ti_sysbios_heaps_HeapMem_A_invalidFree__C)
                  800358c0    00000004     app_pe66.oe66 (.const:ti_sysbios_heaps_HeapMem_A_zeroBlock__C)
                  800358c4    00000004     app_pe66.oe66 (.const:ti_sysbios_heaps_HeapMem_E_memory__C)
                  800358c8    00000004     app_pe66.oe66 (.const:ti_sysbios_heaps_HeapMem_Module__diagsEnabled__C)
                  800358cc    00000004     app_pe66.oe66 (.const:ti_sysbios_heaps_HeapMem_Module__diagsIncluded__C)
                  800358d0    00000004     app_pe66.oe66 (.const:ti_sysbios_heaps_HeapMem_Module__diagsMask__C)
                  800358d4    00000004     app_pe66.oe66 (.const:ti_sysbios_heaps_HeapMem_Module__gateObj__C)
                  800358d8    00000004     app_pe66.oe66 (.const:ti_sysbios_heaps_HeapMem_Object__count__C)
                  800358dc    00000004     app_pe66.oe66 (.const:ti_sysbios_heaps_HeapMem_reqAlign__C)
                  800358e0    00000004     app_pe66.oe66 (.const:ti_sysbios_knl_Clock_LM_begin__C)
                  800358e4    00000004     app_pe66.oe66 (.const:ti_sysbios_knl_Clock_LM_tick__C)
                  800358e8    00000004     app_pe66.oe66 (.const:ti_sysbios_knl_Clock_LW_delayed__C)
                  800358ec    00000004     app_pe66.oe66 (.const:ti_sysbios_knl_Clock_Module_State_clockQ__O)
                  800358f0    00000004     app_pe66.oe66 (.const:ti_sysbios_knl_Clock_Module__diagsEnabled__C)
                  800358f4    00000004     app_pe66.oe66 (.const:ti_sysbios_knl_Clock_Module__diagsIncluded__C)
                  800358f8    00000004     app_pe66.oe66 (.const:ti_sysbios_knl_Clock_Module__diagsMask__C)
                  800358fc    00000004     app_pe66.oe66 (.const:ti_sysbios_knl_Clock_Module__loggerFxn1__C)
                  80035900    00000004     app_pe66.oe66 (.const:ti_sysbios_knl_Clock_Module__loggerFxn2__C)
                  80035904    00000004     app_pe66.oe66 (.const:ti_sysbios_knl_Clock_Module__loggerObj__C)
                  80035908    00000004     app_pe66.oe66 (.const:ti_sysbios_knl_Clock_tickPeriod__C)
                  8003590c    00000004     app_pe66.oe66 (.const:ti_sysbios_knl_Semaphore_A_badContext__C)
                  80035910    00000004     app_pe66.oe66 (.const:ti_sysbios_knl_Idle_funcList__A)
                  80035914    00000004     app_pe66.oe66 (.const:ti_sysbios_knl_Semaphore_A_noEvents__C)
                  80035918    00000004     app_pe66.oe66 (.const:ti_sysbios_knl_Semaphore_A_overflow__C)
                  8003591c    00000004     app_pe66.oe66 (.const:ti_sysbios_knl_Semaphore_A_pendTaskDisabled__C)
                  80035920    00000004     app_pe66.oe66 (.const:ti_sysbios_knl_Semaphore_Instance_State_pendQ__O)
                  80035924    00000004     app_pe66.oe66 (.const:ti_sysbios_knl_Semaphore_LM_pend__C)
                  80035928    00000004     app_pe66.oe66 (.const:ti_sysbios_knl_Semaphore_LM_post__C)
                  8003592c    00000004     app_pe66.oe66 (.const:ti_sysbios_knl_Semaphore_Module__diagsEnabled__C)
                  80035930    00000004     app_pe66.oe66 (.const:ti_sysbios_knl_Semaphore_Module__diagsIncluded__C)
                  80035934    00000004     app_pe66.oe66 (.const:ti_sysbios_knl_Semaphore_Module__diagsMask__C)
                  80035938    00000004     app_pe66.oe66 (.const:ti_sysbios_knl_Semaphore_Module__loggerFxn2__C)
                  8003593c    00000004     app_pe66.oe66 (.const:ti_sysbios_knl_Semaphore_Module__loggerFxn4__C)
                  80035940    00000004     app_pe66.oe66 (.const:ti_sysbios_knl_Semaphore_Module__loggerObj__C)
                  80035944    00000004     app_pe66.oe66 (.const:ti_sysbios_knl_Swi_A_badPriority__C)
                  80035948    00000004     app_pe66.oe66 (.const:ti_sysbios_knl_Swi_LD_end__C)
                  8003594c    00000004     app_pe66.oe66 (.const:ti_sysbios_knl_Swi_LM_begin__C)
                  80035950    00000004     app_pe66.oe66 (.const:ti_sysbios_knl_Swi_LM_post__C)
                  80035954    00000004     app_pe66.oe66 (.const:ti_sysbios_knl_Swi_Module__diagsEnabled__C)
                  80035958    00000004     app_pe66.oe66 (.const:ti_sysbios_knl_Swi_Module__diagsIncluded__C)
                  8003595c    00000004     app_pe66.oe66 (.const:ti_sysbios_knl_Swi_Module__diagsMask__C)
                  80035960    00000004     app_pe66.oe66 (.const:ti_sysbios_knl_Swi_Module__loggerFxn1__C)
                  80035964    00000004     app_pe66.oe66 (.const:ti_sysbios_knl_Swi_Module__loggerFxn4__C)
                  80035968    00000004     app_pe66.oe66 (.const:ti_sysbios_knl_Swi_Module__loggerObj__C)
                  8003596c    00000004     app_pe66.oe66 (.const:ti_sysbios_knl_Swi_Object__count__C)
                  80035970    00000004     app_pe66.oe66 (.const:ti_sysbios_knl_Task_A_badPriority__C)
                  80035974    00000004     app_pe66.oe66 (.const:ti_sysbios_knl_Task_A_badTaskState__C)
                  80035978    00000004     app_pe66.oe66 (.const:ti_sysbios_knl_Task_A_badThreadType__C)
                  8003597c    00000004     app_pe66.oe66 (.const:ti_sysbios_knl_Task_A_badTimeout__C)
                  80035980    00000004     app_pe66.oe66 (.const:ti_sysbios_knl_Task_A_noPendElem__C)
                  80035984    00000004     app_pe66.oe66 (.const:ti_sysbios_knl_Task_A_sleepTaskDisabled__C)
                  80035988    00000004     app_pe66.oe66 (.const:ti_sysbios_knl_Task_E_spOutOfBounds__C)
                  8003598c    00000004     app_pe66.oe66 (.const:ti_sysbios_knl_Task_E_stackOverflow__C)
                  80035990    00000004     app_pe66.oe66 (.const:ti_sysbios_knl_Task_LD_block__C)
                  80035994    00000004     app_pe66.oe66 (.const:ti_sysbios_knl_Task_LD_exit__C)
                  80035998    00000004     app_pe66.oe66 (.const:ti_sysbios_knl_Task_LD_ready__C)
                  8003599c    00000004     app_pe66.oe66 (.const:ti_sysbios_knl_Task_LM_setPri__C)
                  800359a0    00000004     app_pe66.oe66 (.const:ti_sysbios_knl_Task_LM_sleep__C)
                  800359a4    00000004     app_pe66.oe66 (.const:ti_sysbios_knl_Task_LM_switch__C)
                  800359a8    00000004     app_pe66.oe66 (.const:ti_sysbios_knl_Task_Module_State_inactiveQ__O)
                  800359ac    00000004     app_pe66.oe66 (.const:ti_sysbios_knl_Task_Module__diagsEnabled__C)
                  800359b0    00000004     app_pe66.oe66 (.const:ti_sysbios_knl_Task_Module__diagsIncluded__C)
                  800359b4    00000004     app_pe66.oe66 (.const:ti_sysbios_knl_Task_Module__diagsMask__C)
                  800359b8    00000004     app_pe66.oe66 (.const:ti_sysbios_knl_Task_Module__loggerFxn2__C)
                  800359bc    00000004     app_pe66.oe66 (.const:ti_sysbios_knl_Task_Module__loggerFxn4__C)
                  800359c0    00000004     app_pe66.oe66 (.const:ti_sysbios_knl_Task_Module__loggerObj__C)
                  800359c4    00000004     app_pe66.oe66 (.const:ti_sysbios_knl_Task_Object__count__C)
                  800359c8    00000004     app_pe66.oe66 (.const:ti_sysbios_knl_Task_allBlockedFunc__C)
                  800359cc    00000004     app_pe66.oe66 (.const:ti_sysbios_knl_Task_defaultStackHeap__C)
                  800359d0    00000004     app_pe66.oe66 (.const:ti_sysbios_knl_Task_defaultStackSize__C)
                  800359d4    00000004     app_pe66.oe66 (.const:ti_sysbios_knl_Task_numConstructedTasks__C)
                  800359d8    00000004     app_pe66.oe66 (.const:ti_sysbios_syncs_SyncSem_Module__diagsEnabled__C)
                  800359dc    00000004     app_pe66.oe66 (.const:ti_sysbios_syncs_SyncSem_Module__diagsIncluded__C)
                  800359e0    00000004     app_pe66.oe66 (.const:ti_sysbios_syncs_SyncSem_Module__diagsMask__C)
                  800359e4    00000004     app_pe66.oe66 (.const:ti_sysbios_timers_timer64_Timer_A_notAvailable__C)
                  800359e8    00000004     app_pe66.oe66 (.const:ti_sysbios_timers_timer64_Timer_E_cannotSupport__C)
                  800359ec    00000004     app_pe66.oe66 (.const:ti_sysbios_timers_timer64_Timer_Module__diagsEnabled__C)
                  800359f0    00000004     app_pe66.oe66 (.const:ti_sysbios_timers_timer64_Timer_Module__diagsIncluded__C)
                  800359f4    00000004     app_pe66.oe66 (.const:ti_sysbios_timers_timer64_Timer_Module__diagsMask__C)
                  800359f8    00000004     app_pe66.oe66 (.const:ti_sysbios_timers_timer64_Timer_anyMaskHigh__C)
                  800359fc    00000004     app_pe66.oe66 (.const:ti_sysbios_timers_timer64_Timer_anyMask__C)
                  80035a00    00000004     app_pe66.oe66 (.const:ti_sysbios_timers_timer64_Timer_freqDivisor__C)
                  80035a04    00000004     app_pe66.oe66 (.const:ti_sysbios_timers_timer64_Timer_numLocalTimers__C)
                  80035a08    00000004     app_pe66.oe66 (.const:ti_sysbios_timers_timer64_Timer_numTimerDevices__C)
                  80035a0c    00000004     app_pe66.oe66 (.const:ti_sysbios_xdcruntime_GateThreadSupport_Instance_State_gate__O)
                  80035a10    00000004     app_pe66.oe66 (.const:xdc_runtime_Assert_E_assertFailed__C)
                  80035a14    00000004     app_pe66.oe66 (.const:xdc_runtime_Core_A_initializedParams__C)
                  80035a18    00000004     app_pe66.oe66 (.const:xdc_runtime_Core_Module__diagsEnabled__C)
                  80035a1c    00000004     app_pe66.oe66 (.const:xdc_runtime_Core_Module__diagsIncluded__C)
                  80035a20    00000004     app_pe66.oe66 (.const:xdc_runtime_Core_Module__diagsMask__C)
                  80035a24    00000004     app_pe66.oe66 (.const:xdc_runtime_Error_E_memory__C)
                  80035a28    00000004     app_pe66.oe66 (.const:xdc_runtime_Error_Module__diagsEnabled__C)
                  80035a2c    00000004     app_pe66.oe66 (.const:xdc_runtime_Error_Module__diagsIncluded__C)
                  80035a30    00000004     app_pe66.oe66 (.const:xdc_runtime_Error_Module__diagsMask__C)
                  80035a34    00000004     app_pe66.oe66 (.const:xdc_runtime_Error_Module__loggerFxn8__C)
                  80035a38    00000004     app_pe66.oe66 (.const:xdc_runtime_Error_Module__loggerObj__C)
                  80035a3c    00000004     app_pe66.oe66 (.const:xdc_runtime_Error_policyFxn__C)
                  80035a40    00000004     app_pe66.oe66 (.const:xdc_runtime_Error_policy__C)
                  80035a44    00000004     app_pe66.oe66 (.const:xdc_runtime_Error_raiseHook__C)
                  80035a48    00000004     app_pe66.oe66 (.const:xdc_runtime_IFilterLogger_Interface__BASE__C)
                  80035a4c    00000004     app_pe66.oe66 (.const:xdc_runtime_IGateProvider_Interface__BASE__C)
                  80035a50    00000004     app_pe66.oe66 (.const:xdc_runtime_IHeap_Interface__BASE__C)
                  80035a54    00000004     app_pe66.oe66 (.const:xdc_runtime_ILogger_Interface__BASE__C)
                  80035a58    00000004     app_pe66.oe66 (.const:xdc_runtime_IModule_Interface__BASE__C)
                  80035a5c    00000004     app_pe66.oe66 (.const:xdc_runtime_Log_L_error__C)
                  80035a60    00000004     app_pe66.oe66 (.const:xdc_runtime_LoggerBuf_E_badLevel__C)
                  80035a64    00000004     app_pe66.oe66 (.const:xdc_runtime_LoggerBuf_Module__gateObj__C)
                  80035a68    00000004     app_pe66.oe66 (.const:xdc_runtime_LoggerBuf_Object__count__C)
                  80035a6c    00000004     app_pe66.oe66 (.const:xdc_runtime_LoggerBuf_statusLogger__C)
                  80035a70    00000004     app_pe66.oe66 (.const:xdc_runtime_Memory_defaultHeapInstance__C)
                  80035a74    00000004     app_pe66.oe66 (.const:xdc_runtime_Startup_execImpl__C)
                  80035a78    00000004     app_pe66.oe66 (.const:xdc_runtime_Startup_maxPasses__C)
                  80035a7c    00000004     app_pe66.oe66 (.const:xdc_runtime_Startup_sfxnRts__C)
                  80035a80    00000004     app_pe66.oe66 (.const:xdc_runtime_Startup_sfxnTab__C)
                  80035a84    00000004     app_pe66.oe66 (.const:xdc_runtime_SysMin_bufSize__C)
                  80035a88    00000004     app_pe66.oe66 (.const:xdc_runtime_SysMin_outputFunc__C)
                  80035a8c    00000004     app_pe66.oe66 (.const:xdc_runtime_System_Module__gateObj__C)
                  80035a90    00000004     app_pe66.oe66 (.const:xdc_runtime_System_abortFxn__C)
                  80035a94    00000004     app_pe66.oe66 (.const:xdc_runtime_System_exitFxn__C)
                  80035a98    00000004     app_pe66.oe66 (.const:xdc_runtime_System_extendFxn__C)
                  80035a9c    00000004     app_pe66.oe66 (.const:xdc_runtime_System_maxAtexitHandlers__C)
                  80035aa0    00000004     app_pe66.oe66 (.const:xdc_runtime_Text_charTab__C)
                  80035aa4    00000004     app_pe66.oe66 (.const:xdc_runtime_Text_nameEmpty__C)
                  80035aa8    00000004     app_pe66.oe66 (.const:xdc_runtime_Text_nameStatic__C)
                  80035aac    00000004     app_pe66.oe66 (.const:xdc_runtime_Text_nameUnknown__C)
                  80035ab0    00000004     app_pe66.oe66 (.const:xdc_runtime_Text_nodeTab__C)
                  80035ab4    00000004     app_pe66.oe66 (.const:xdc_runtime_Text_visitRopeFxn__C)
                  80035ab8    00000004     app_pe66.oe66 (.const:xdc_runtime_knl_ISync_Interface__BASE__C)
                  80035abc    00000002     app_pe66.oe66 (.const:ti_sdo_ipc_Ipc_Module__id__C)
                  80035abe    00000002     app_pe66.oe66 (.const:ti_sdo_ipc_Ipc_generateSlaveDataForHost__C)
                  80035ac0    00000002     app_pe66.oe66 (.const:ti_sdo_ipc_MessageQ_Module__id__C)
                  80035ac2    00000002     app_pe66.oe66 (.const:ti_sdo_ipc_MessageQ_Module__loggerDefined__C)
                  80035ac4    00000002     app_pe66.oe66 (.const:ti_sdo_ipc_Notify_Module__id__C)
                  80035ac6    00000002     app_pe66.oe66 (.const:ti_sdo_ipc_Notify_numLines__C)
                  80035ac8    00000002     app_pe66.oe66 (.const:ti_sdo_ipc_Notify_reservedEvents__C)
                  80035aca    00000002     app_pe66.oe66 (.const:ti_sdo_ipc_SharedRegion_Module__id__C)
                  80035acc    00000002     app_pe66.oe66 (.const:ti_sdo_ipc_SharedRegion_numEntries__C)
                  80035ace    00000002     app_pe66.oe66 (.const:ti_sdo_ipc_SharedRegion_translate__C)
                  80035ad0    00000002     app_pe66.oe66 (.const:ti_sdo_ipc_family_tci663x_Interrupt_Module__id__C)
                  80035ad2    00000002     app_pe66.oe66 (.const:ti_sdo_ipc_family_tci663x_Interrupt_enableKick__C)
                  80035ad4    00000002     app_pe66.oe66 (.const:ti_sdo_ipc_family_tci663x_NotifyCircSetup_includeHost__C)
                  80035ad6    00000002     app_pe66.oe66 (.const:ti_sdo_ipc_gates_GateHWSem_Module__id__C)
                  80035ad8    00000002     app_pe66.oe66 (.const:ti_sdo_ipc_gates_GateMPSupportNull_Module__id__C)
                  80035ada    00000002     app_pe66.oe66 (.const:ti_sdo_ipc_gates_GatePeterson_Module__id__C)
                  80035adc    00000002     app_pe66.oe66 (.const:ti_sdo_ipc_heaps_HeapMemMP_Module__id__C)
                  80035ade    00000002     app_pe66.oe66 (.const:ti_sdo_ipc_notifyDrivers_NotifyDriverCirc_Module__id__C)
                  80035ae0    00000002     app_pe66.oe66 (.const:ti_sdo_ipc_notifyDrivers_NotifyDriverCirc_enableStats__C)
                  80035ae2    00000002     app_pe66.oe66 (.const:ti_sdo_ipc_nsremote_NameServerRemoteNotify_Module__id__C)
                  80035ae4    00000002     app_pe66.oe66 (.const:ti_sdo_ipc_transports_TransportShmNotify_alwaysWriteBackMsg__C)
                  80035ae6    00000002     app_pe66.oe66 (.const:ti_sdo_ipc_transports_TransportShmNotify_notifyEventId__C)
                  80035ae8    00000002     app_pe66.oe66 (.const:ti_sdo_utils_MultiProc_Module__id__C)
                  80035aea    00000002     app_pe66.oe66 (.const:ti_sdo_utils_MultiProc_numProcessors__C)
                  80035aec    00000002     app_pe66.oe66 (.const:ti_sdo_utils_MultiProc_numProcsInCluster__C)
                  80035aee    00000002     app_pe66.oe66 (.const:ti_sdo_utils_NameServer_Module__id__C)
                  80035af0    00000002     app_pe66.oe66 (.const:ti_sysbios_family_c64p_Exception_Module__id__C)
                  80035af2    00000002     app_pe66.oe66 (.const:ti_sysbios_family_c64p_Exception_useInternalBuffer__C)
                  80035af4    00000002     app_pe66.oe66 (.const:ti_sysbios_family_c64p_Hwi_Module__id__C)
                  80035af6    00000002     app_pe66.oe66 (.const:ti_sysbios_family_c64p_Hwi_Module__loggerDefined__C)
                  80035af8    00000002     app_pe66.oe66 (.const:ti_sysbios_family_c66_Cache_Module__id__C)
                  80035afa    00000002     app_pe66.oe66 (.const:ti_sysbios_family_c66_Cache_registerRTSSynch__C)
                  80035afc    00000002     app_pe66.oe66 (.const:ti_sysbios_gates_GateMutexPri_Module__id__C)
                  80035afe    00000002     app_pe66.oe66 (.const:ti_sysbios_gates_GateMutex_Module__id__C)
                  80035b00    00000002     app_pe66.oe66 (.const:ti_sysbios_gates_GateSwi_Module__id__C)
                  80035b02    00000002     app_pe66.oe66 (.const:ti_sysbios_hal_Hwi_Module__id__C)
                  80035b04    00000002     app_pe66.oe66 (.const:ti_sysbios_heaps_HeapMem_Module__id__C)
                  80035b06    00000002     app_pe66.oe66 (.const:ti_sysbios_knl_Clock_Module__id__C)
                  80035b08    00000002     app_pe66.oe66 (.const:ti_sysbios_knl_Clock_Module__loggerDefined__C)
                  80035b0a    00000002     app_pe66.oe66 (.const:ti_sysbios_knl_Semaphore_Module__id__C)
                  80035b0c    00000002     app_pe66.oe66 (.const:ti_sysbios_knl_Semaphore_Module__loggerDefined__C)
                  80035b0e    00000002     app_pe66.oe66 (.const:ti_sysbios_knl_Swi_Module__id__C)
                  80035b10    00000002     app_pe66.oe66 (.const:ti_sysbios_knl_Swi_Module__loggerDefined__C)
                  80035b12    00000002     app_pe66.oe66 (.const:ti_sysbios_knl_Task_Module__id__C)
                  80035b14    00000002     app_pe66.oe66 (.const:ti_sysbios_knl_Task_Module__loggerDefined__C)
                  80035b16    00000002     app_pe66.oe66 (.const:ti_sysbios_syncs_SyncSem_Module__id__C)
                  80035b18    00000002     app_pe66.oe66 (.const:ti_sysbios_timers_timer64_Timer_Module__id__C)
                  80035b1a    00000002     app_pe66.oe66 (.const:ti_sysbios_timers_timer64_Timer_startupNeeded__C)
                  80035b1c    00000002     app_pe66.oe66 (.const:ti_sysbios_timers_timer64_Timer_useTimer64pRegMap__C)
                  80035b1e    00000002     app_pe66.oe66 (.const:xdc_runtime_Core_Module__id__C)
                  80035b20    00000002     app_pe66.oe66 (.const:xdc_runtime_Error_Module__loggerDefined__C)
                  80035b22    00000002     app_pe66.oe66 (.const:xdc_runtime_Error_maxDepth__C)
                  80035b24    00000002     app_pe66.oe66 (.const:xdc_runtime_LoggerBuf_Module__id__C)
                  80035b26    00000002     app_pe66.oe66 (.const:xdc_runtime_LoggerBuf_filterByLevel__C)
                  80035b28    00000002     app_pe66.oe66 (.const:xdc_runtime_Main_Module__id__C)
                  80035b2a    00000002     app_pe66.oe66 (.const:xdc_runtime_Memory_Module__id__C)
                  80035b2c    00000002     app_pe66.oe66 (.const:xdc_runtime_SysMin_flushAtExit__C)
                  80035b2e    00000002     app_pe66.oe66 (.const:xdc_runtime_Text_charCnt__C)
                  80035b30    00000002     app_pe66.oe66 (.const:xdc_runtime_Text_isLoaded__C)
                  80035b32    00000002     app_pe66.oe66 (.const:xdc_runtime_Text_registryModsLastId__C)
                  80035b34    00000002     app_pe66.oe66 (.const:xdc_runtime_Text_unnamedModsLastId__C)
                  80035b36    00000001     app_pe66.oe66 (.const:ti_sysbios_timers_timer64_Timer_localTimerBaseId__C)

.fardata   0    80035b38    00002654     UNINITIALIZED
                  80035b38    000009d8     cppi_device.obj (.fardata:cppiGblCPDMACfgParams)
                  80036510    00000800     app_pe66.oe66 (.fardata:ti_sdo_ipc_GateMP_Module_State_0_remoteCustom1Gates__A)
                  80036d10    00000344     qmss_device.obj (.fardata:GlobalQmGroup0)
                  80037054    000002d0     qmss_device.obj (.fardata:qmssGblCfgParams)
                  80037324    00000004     rts6600_elf.lib : _lock.c.obj (.fardata:_lock)
                  80037328    0000023c     qmss_device.obj (.fardata:GlobalQmGroup1)
                  80037564    00000004     rts6600_elf.lib : _lock.c.obj (.fardata:_unlock)
                  80037568    00000180     app_pe66.oe66 (.fardata:ti_sysbios_timers_timer64_Timer_Module_State_0_device__A)
                  800376e8    000000b4     app_pe66.oe66 (.fardata:ti_sdo_utils_NameServer_Object__table__V)
                  8003779c    00000004     app_pe66.oe66 (.fardata:ti_sdo_ipc_SharedRegion_Module__state__V)
                  800377a0    00000090     app_pe66.oe66 (.fardata:ti_sdo_ipc_SharedRegion_Module_State_0_regions__A)
                  80037830    00000080     app_pe66.oe66 (.fardata:ti_sdo_ipc_GateMP_Module_State_0_remoteSystemGates__A)
                  800378b0    00000080     app_pe66.oe66 (.fardata:ti_sysbios_knl_Swi_Module_State_0_readyQ__A)
                  80037930    00000080     app_pe66.oe66 (.fardata:ti_sysbios_knl_Task_Module_State_0_readyQ__A)
                  800379b0    00000080     app_pe66.oe66 (.fardata:ti_sysbios_timers_timer64_Timer_Module_State_0_gctrl__A)
                  80037a30    00000080     app_pe66.oe66 (.fardata:ti_sysbios_timers_timer64_Timer_Module_State_0_handles__A)
                  80037ab0    00000080     app_pe66.oe66 (.fardata:ti_sysbios_timers_timer64_Timer_Module_State_0_intFreqs__A)
                  80037b30    0000006c     app_pe66.oe66 (.fardata:ti_sysbios_family_c64p_Hwi_Module__state__V)
                  80037b9c    00000068     app_pe66.oe66 (.fardata:ti_sdo_ipc_MessageQ_Module__state__V)
                  80037c04    00000004     app_pe66.oe66 (.fardata:ti_sdo_ipc_heaps_HeapMemMP_Module__state__V)
                  80037c08    0000005c     app_pe66.oe66 (.fardata:ti_sysbios_knl_Task_Object__table__V)
                  80037c64    00000050     app_pe66.oe66 (.fardata:ti_sdo_ipc_GateMP_Module__state__V)
                  80037cb4    00000004     app_pe66.oe66 (.fardata:ti_sdo_ipc_transports_TransportShmNotifySetup_Module__state__V)
                  80037cb8    00000050     app_pe66.oe66 (.fardata:ti_sysbios_timers_timer64_Timer_Object__table__V)
                  80037d08    00000048     app_pe66.oe66 (.fardata:ti_sysbios_knl_Task_Module__state__V)
                  80037d50    00000040     app_pe66.oe66 (.fardata:ti_sysbios_gates_GateMutex_Object__table__V)
                  80037d90    00000030     app_pe66.oe66 (.fardata:ti_sysbios_family_c64p_Exception_Module__state__V)
                  80037dc0    00000030     app_pe66.oe66 (.fardata:ti_sysbios_knl_Swi_Object__table__V)
                  80037df0    0000002c     app_pe66.oe66 (.fardata:ti_sysbios_knl_Clock_Module__state__V)
                  80037e1c    00000004     app_pe66.oe66 (.fardata:xdc_runtime_Memory_Module__state__V)
                  80037e20    00000028     app_pe66.oe66 (.fardata:ti_sdo_ipc_Ipc_Module_State_0_procEntry__A)
                  80037e48    00000024     app_pe66.oe66 (.fardata:ti_sysbios_BIOS_Module__state__V)
                  80037e6c    00000002     app_pe66.oe66 (.fardata:xdc_runtime_Error_Module__state__V)
                  80037e6e    00000002     --HOLE--
                  80037e70    00000024     app_pe66.oe66 (.fardata:xdc_runtime_LoggerBuf_Object__table__V)
                  80037e94    00000004     --HOLE--
                  80037e98    00000020     app_pe66.oe66 (.fardata:ti_sdo_ipc_MessageQ_Module_State_0_heaps__A)
                  80037eb8    00000020     app_pe66.oe66 (.fardata:xdc_runtime_Error_IgnoreBlock)
                  80037ed8    0000001c     app_pe66.oe66 (.fardata:ti_sysbios_knl_Swi_Module__state__V)
                  80037ef4    00000004     --HOLE--
                  80037ef8    00000018     app_pe66.oe66 (.fardata:ti_sysbios_family_c64p_Hwi_Object__table__V)
                  80037f10    00000018     app_pe66.oe66 (.fardata:ti_sysbios_gates_GateMutexPri_Object__table__V)
                  80037f28    00000018     app_pe66.oe66 (.fardata:ti_sysbios_heaps_HeapMem_Object__table__V)
                  80037f40    00000018     app_pe66.oe66 (.fardata:ti_sysbios_timers_timer64_Timer_Module__state__V)
                  80037f58    00000014     cppi_device.obj (.fardata:cppiGblCfgParams)
                  80037f6c    00000014     ti.drv.cppi.ae66 : cppi_drv.oe66 (.fardata:cppiLObj)
                  80037f80    00000014     app_pe66.oe66 (.fardata:ti_sdo_ipc_family_tci663x_Interrupt_Module__state__V)
                  80037f94    00000004     --HOLE--
                  80037f98    00000010     app_pe66.oe66 (.fardata:ti_sdo_ipc_MessageQ_Module_State_0_transports__A)
                  80037fa8    00000010     app_pe66.oe66 (.fardata:ti_sdo_ipc_family_tci663x_Interrupt_Module_State_0_clientTab__A)
                  80037fb8    00000010     app_pe66.oe66 (.fardata:ti_sdo_ipc_family_tci663x_Interrupt_Module_State_0_hwTab__A)
                  80037fc8    00000010     app_pe66.oe66 (.fardata:ti_sysbios_gates_GateAll_Object__table__V)
                  80037fd8    00000010     app_pe66.oe66 (.fardata:xdc_runtime_System_Module_State_0_atexitHandlers__A)
                  80037fe8    0000000c     rts6600_elf.lib : exit.c.obj (.fardata)
                  80037ff4    0000000c     app_pe66.oe66 (.fardata:ti_sdo_ipc_Ipc_Module__state__V)
                  80038000    0000000c     app_pe66.oe66 (.fardata:ti_sdo_utils_NameServer_Module__state__V)
                  8003800c    00000004     --HOLE--
                  80038010    0000000c     app_pe66.oe66 (.fardata:ti_sysbios_gates_GateSwi_Object__table__V)
                  8003801c    0000000c     app_pe66.oe66 (.fardata:xdc_runtime_SysMin_Module__state__V)
                  80038028    00000008     app_pe66.oe66 (.fardata:ti_sdo_ipc_GateMP_Module__root__V)
                  80038030    00000008     app_pe66.oe66 (.fardata:ti_sdo_ipc_MessageQ_Module__root__V)
                  80038038    00000008     app_pe66.oe66 (.fardata:ti_sdo_ipc_Notify_Module_State_0_notifyHandles__A)
                  80038040    00000008     app_pe66.oe66 (.fardata:ti_sdo_ipc_Notify_Module__root__V)
                  80038048    00000008     app_pe66.oe66 (.fardata:ti_sdo_ipc_Notify_Module__state__V)
                  80038050    00000008     app_pe66.oe66 (.fardata:ti_sdo_ipc_gates_GateHWSem_Module__root__V)
                  80038058    00000008     app_pe66.oe66 (.fardata:ti_sdo_ipc_gates_GateMPSupportNull_Module__root__V)
                  80038060    00000008     app_pe66.oe66 (.fardata:ti_sdo_ipc_gates_GatePeterson_Module__root__V)
                  80038068    00000008     app_pe66.oe66 (.fardata:ti_sdo_ipc_heaps_HeapMemMP_Module__root__V)
                  80038070    00000008     app_pe66.oe66 (.fardata:ti_sdo_ipc_notifyDrivers_NotifyDriverCirc_Module__root__V)
                  80038078    00000008     app_pe66.oe66 (.fardata:ti_sdo_ipc_nsremote_NameServerRemoteNotify_Module__root__V)
                  80038080    00000008     app_pe66.oe66 (.fardata:ti_sdo_ipc_transports_TransportShmNotifySetup_Module_State_0_handles__A)
                  80038088    00000008     app_pe66.oe66 (.fardata:ti_sdo_ipc_transports_TransportShmNotify_Module__root__V)
                  80038090    00000008     app_pe66.oe66 (.fardata:ti_sdo_utils_List_Module__root__V)
                  80038098    00000008     app_pe66.oe66 (.fardata:ti_sdo_utils_MultiProc_Module__state__V)
                  800380a0    00000008     app_pe66.oe66 (.fardata:ti_sdo_utils_NameServer_Module_State_0_nsRemoteHandle__A)
                  800380a8    00000008     app_pe66.oe66 (.fardata:ti_sdo_utils_NameServer_Module__root__V)
                  800380b0    00000008     app_pe66.oe66 (.fardata:ti_sysbios_family_c64p_Hwi_Module__root__V)
                  800380b8    00000008     app_pe66.oe66 (.fardata:ti_sysbios_gates_GateAll_Module__root__V)
                  800380c0    00000008     app_pe66.oe66 (.fardata:ti_sysbios_gates_GateHwi_Module__root__V)
                  800380c8    00000008     app_pe66.oe66 (.fardata:ti_sysbios_gates_GateMutexPri_Module__root__V)
                  800380d0    00000008     app_pe66.oe66 (.fardata:ti_sysbios_gates_GateMutex_Module__root__V)
                  800380d8    00000008     app_pe66.oe66 (.fardata:ti_sysbios_gates_GateSwi_Module__root__V)
                  800380e0    00000008     app_pe66.oe66 (.fardata:ti_sysbios_hal_Hwi_Module__root__V)
                  800380e8    00000008     app_pe66.oe66 (.fardata:ti_sysbios_hal_Hwi_Object__table__V)
                  800380f0    00000008     app_pe66.oe66 (.fardata:ti_sysbios_heaps_HeapMem_Module__root__V)
                  800380f8    00000008     app_pe66.oe66 (.fardata:ti_sysbios_knl_Queue_Module__root__V)
                  80038100    00000008     app_pe66.oe66 (.fardata:ti_sysbios_knl_Semaphore_Module__root__V)
                  80038108    00000008     app_pe66.oe66 (.fardata:ti_sysbios_knl_Swi_Module__root__V)
                  80038110    00000008     app_pe66.oe66 (.fardata:ti_sysbios_knl_Task_Module__root__V)
                  80038118    00000008     app_pe66.oe66 (.fardata:ti_sysbios_syncs_SyncSem_Module__root__V)
                  80038120    00000008     app_pe66.oe66 (.fardata:ti_sysbios_xdcruntime_GateThreadSupport_Module__root__V)
                  80038128    00000008     app_pe66.oe66 (.fardata:xdc_runtime_GateNull_Module__root__V)
                  80038130    00000008     app_pe66.oe66 (.fardata:xdc_runtime_LoggerBuf_Module__root__V)
                  80038138    00000008     app_pe66.oe66 (.fardata:xdc_runtime_Registry_Module__state__V)
                  80038140    00000008     app_pe66.oe66 (.fardata:xdc_runtime_Startup_Module__state__V)
                  80038148    00000008     app_pe66.oe66 (.fardata:xdc_runtime_System_Module__state__V)
                  80038150    00000008     app_pe66.oe66 (.fardata:xdc_runtime_knl_GateThread_Module__root__V)
                  80038158    00000006     app_pe66.oe66 (.fardata:xdc_runtime_LoggerBuf_Module__state__V)
                  8003815e    00000002     --HOLE--
                  80038160    00000004     app_pe66.oe66 (.fardata:ti_sdo_ipc_Notify_Module_State_0_notifyHandles_0__A)
                  80038164    00000004     --HOLE--
                  80038168    00000004     app_pe66.oe66 (.fardata:ti_sdo_ipc_Notify_Module_State_0_notifyHandles_1__A)
                  8003816c    00000004     --HOLE--
                  80038170    00000004     app_pe66.oe66 (.fardata:ti_sdo_utils_MultiProc_Module_State_0_clusterProcList__A)
                  80038174    00000004     --HOLE--
                  80038178    00000004     app_pe66.oe66 (.fardata:ti_sysbios_gates_GateHwi_Object__table__V)
                  8003817c    00000004     --HOLE--
                  80038180    00000004     app_pe66.oe66 (.fardata:ti_sysbios_knl_Task_Module_State_0_idleTask__A)
                  80038184    00000004     --HOLE--
                  80038188    00000004     app_pe66.oe66 (.fardata:xdc_runtime_GateNull_Object__table__V)

.cio       0    80038190    00000120     UNINITIALIZED
                  80038190    00000120     rts6600_elf.lib : trgmsg.c.obj (.cio)

.switch    0    800382d0    00000010     
                  800382d0    00000010     ipc.ae66 : Ipc.obj (.switch:ti_sdo_ipc_GateMP_Instance_finalize__E)

MODULE SUMMARY

       Module                       code     ro data   rw data
       ------                       ----     -------   -------
    .\
       main.obj                     224      100       2      
    +--+----------------------------+--------+---------+---------+
       Total:                       224      100       2      
                                                              
    .\init\
       cppi_device.obj              0        0         2540   
       qmss_device.obj              0        0         2128   
       qmss_osal.obj                1728     0         24     
       qmss_init.obj                608      176       0      
       init.obj                     96       36        0      
    +--+----------------------------+--------+---------+---------+
       Total:                       2432     212       4692   
                                                              
    D:\pxqwork\project\app-n\basic-platform\Debug\configPkg\package\cfg\
       app_pe66.oe66                13856    17547     73676  
    +--+----------------------------+--------+---------+---------+
       Total:                       13856    17547     73676  
                                                              
    C:\ti\ccs901\ccs\tools\compiler\ti-cgt-c6000_8.3.3\lib\rts6600_elf.lib
       imath64.c.obj                672      0         0      
       trgmsg.c.obj                 224      0         288    
       copy_decompress_rle.c.obj    288      0         0      
       exit.c.obj                   256      0         12     
       hostwrite.c.obj              224      0         0      
       llshift.c.obj                224      0         0      
       memset.c.obj                 224      0         0      
       divu.asm.obj                 192      0         0      
       tls.c.obj                    192      0         0      
       memcpy64.asm.obj             160      0         0      
       remu.asm.obj                 160      0         0      
       _lock.c.obj                  96       0         8      
       args_main.c.obj              64       0         0      
       push.asm.obj                 64       0         0      
       strasg.asm.obj               64       0         0      
       _data_synch.c.obj            32       0         0      
       copy_decompress_none.c.obj   32       0         0      
       hostopen.c.obj               0        0         8      
    +--+----------------------------+--------+---------+---------+
       Total:                       3168     0         316    
                                                              
    C:\ti\sdk-k2h\bios_6_73_01_01\packages\ti\targets\rts6000\lib\boot.ae66
       autoinit.oe66                288      0         0      
       boot.oe66                    160      0         0      
    +--+----------------------------+--------+---------+---------+
       Total:                       448      0         0      
                                                              
    C:\ti\sdk-k2h\bios_6_73_01_01\packages\ti\targets\rts6000\lib\ti.targets.rts6000.ae66
       System.oe66                  3232     24        0      
       LoggerBuf.oe66               2592     0         0      
       Text.oe66                    1824     64        0      
       Error.oe66                   1152     88        0      
       Startup.oe66                 896      44        0      
       Core-mem.oe66                896      0         0      
       SysMin.oe66                  704      0         0      
       Memory.oe66                  448      0         0      
       Core-smem.oe66               416      0         0      
       Assert.oe66                  192      4         0      
       Core-params.oe66             160      0         0      
       GateThread.oe66              160      0         0      
       Core-label.oe66              128      0         0      
       GateNull.oe66                96       0         0      
       Gate.oe66                    64       0         0      
       Registry.oe66                64       0         0      
    +--+----------------------------+--------+---------+---------+
       Total:                       13024    224       0      
                                                              
    C:\ti\sdk-k2h\pdk_k2hk_4_0_12\packages\ti\drv\cppi\lib\c66\ti.drv.cppi.ae66
       cppi_drv.oe66                1152     0         3988   
    +--+----------------------------+--------+---------+---------+
       Total:                       1152     0         3988   
                                                              
    C:\ti\sdk-k2h\pdk_k2hk_4_0_12\packages\ti\drv\qmss\lib\c66\ti.drv.qmss.ae66
       qmss_drv.oe66                3936     16        28204  
    +--+----------------------------+--------+---------+---------+
       Total:                       3936     16        28204  
                                                              
    D:\pxqwork\project\app-n\basic-platform\src\ipc\ipc.ae66
       Ipc.obj                      54592    100       0      
    +--+----------------------------+--------+---------+---------+
       Total:                       54592    100       0      
                                                              
    D:\pxqwork\project\app-n\basic-platform\src\sysbios\sysbios.ae66
       BIOS.obj                     36608    1304      0      
       c64p_Hwi_disp_always.obj     512      0         0      
       c64p_Exception_asm.obj       384      0         0      
       c62_TaskSupport_asm.obj      224      0         0      
       c64p_Hwi_asm_switch.obj      192      0         0      
       c64p_Hwi_asm.obj             160      0         0      
    +--+----------------------------+--------+---------+---------+
       Total:                       38080    1304      0      
                                                              
       Stack:                       0        0         16384  
       Linker Generated:            0        5089      0      
    +--+----------------------------+--------+---------+---------+
       Grand Total:                 130912   24592     127262 


LINKER GENERATED COPY TABLES

__TI_cinit_table @ 800399b8 records: 6, size/record: 8, table size: 48
	.fardata: load addr=80038600, load size=00001374 bytes, run addr=80035b38, run size=00002654 bytes, compression=rle
	.far: load addr=80039974, load size=0000000d bytes, run addr=8001fd60, run size=000111b2 bytes, compression=rle
	.cppi: load addr=80039981, load size=0000000b bytes, run addr=0c206900, run size=00000f80 bytes, compression=rle
	.qmss: load addr=8003998c, load size=0000000b bytes, run addr=0c200000, run size=00006882 bytes, compression=rle
	.bss: load addr=80039997, load size=00000009 bytes, run addr=800382b0, run size=00000006 bytes, compression=rle
	.neardata: load addr=800399a0, load size=00000009 bytes, run addr=800382b8, run size=00000018 bytes, compression=rle


LINKER GENERATED HANDLER TABLE

__TI_handler_table @ 800399ac records: 2, size/record: 4, table size: 8
	index: 0, handler: __TI_decompress_rle24
	index: 1, handler: __TI_decompress_none


GLOBAL SYMBOLS: SORTED ALPHABETICALLY BY Name 

address   name                                                                      
-------   ----                                                                      
8001e7e0  C$$EXIT                                                                   
8001c358  C$$IO$$                                                                   
80007a80  Cppi_init                                                                 
8001d320  GateMP_Params_init                                                        
80015400  GateMP_close                                                              
8001e560  GateMP_delete                                                             
80011960  GateMP_enter                                                              
8001e580  GateMP_getDefaultRemote                                                   
80011b00  GateMP_leave                                                              
8000f900  GateMP_openByAddr                                                         
80010900  GateMP_sharedMemReq                                                       
80036d10  GlobalQmGroup0                                                            
80037328  GlobalQmGroup1                                                            
80016f60  HOSTwrite                                                                 
8001d360  HeapMemMP_Params_init                                                     
8001c240  HeapMemMP_create                                                          
80017040  HeapMemMP_openByAddr                                                      
8001ac40  HeapMemMP_restore                                                         
8000fb00  HeapMemMP_sharedMemReq                                                    
80004240  Ipc_attach                                                                
800382b0  Ipc_sr0MemorySetup                                                        
8000fd00  Ipc_start                                                                 
80017120  MessageQ_Params_init__S                                                   
80013c40  MessageQ_create                                                           
80012800  MessageQ_get                                                              
80002600  MessageQ_put                                                              
8001e5e0  MultiProc_getBaseIdOfCluster                                              
80011ca0  MultiProc_getId                                                           
80015520  MultiProc_getName                                                         
8001e600  MultiProc_self                                                            
80007f00  NameServer_add                                                            
8001e620  NameServer_addUInt32                                                      
80012980  NameServer_getHandle                                                      
80011e40  NameServer_getLocal                                                       
8001e640  NameServer_getLocalUInt32                                                 
8001e660  NameServer_removeEntry                                                    
8001d3a0  Notify_attach                                                             
80013d80  Notify_intLineRegistered                                                  
8001e680  Notify_numIntLines                                                        
800094a0  Notify_registerEventSingle                                                
80008c60  Notify_sendEvent                                                          
8001d3e0  Notify_sharedMemReq                                                       
80009ca0  Notify_unregisterEventSingle                                              
80003ea8  Osal_cppiBeginMemAccess                                                   
80003e58  Osal_cppiCsEnter                                                          
80003e74  Osal_cppiCsExit                                                           
80003ee4  Osal_cppiEndMemAccess                                                     
80003e28  Osal_cppiFree                                                             
80003e8c  Osal_cppiLog                                                              
80003dec  Osal_cppiMalloc                                                           
80003fa8  Osal_qmssAccCsEnter                                                       
80003fb0  Osal_qmssAccCsExit                                                        
80003ff8  Osal_qmssBeginMemAccess                                                   
80003f74  Osal_qmssCsEnter                                                          
80003f90  Osal_qmssCsExit                                                           
80004034  Osal_qmssEndMemAccess                                                     
80003f48  Osal_qmssFree                                                             
80003fe4  Osal_qmssLog                                                              
80003f14  Osal_qmssMalloc                                                           
80003fc8  Osal_qmssMtCsEnter                                                        
80003fd0  Osal_qmssMtCsExit                                                         
80004114  Osal_rmBeginMemAccess                                                     
800040cc  Osal_rmCsEnter                                                            
800040d4  Osal_rmCsExit                                                             
80004150  Osal_rmEndMemAccess                                                       
800040a0  Osal_rmFree                                                               
800041e8  Osal_rmLog                                                                
8000406c  Osal_rmMalloc                                                             
800040e8  Osal_rmMtCsEnter                                                          
80004100  Osal_rmMtCsExit                                                           
800041b4  Osal_rmTaskBlock                                                          
80004188  Osal_rmTaskBlockCreate                                                    
800041d4  Osal_rmTaskBlockDelete                                                    
800041c8  Osal_rmTaskUnblock                                                        
8001e6a0  Qmss_init                                                                 
80000c60  Qmss_initSubSys                                                           
80015640  Qmss_rmService                                                            
80013ec0  Qmss_rmServiceGroups                                                      
8001d420  Qmss_start                                                                
80014000  Qmss_startSubSysCfg                                                       
80014140  SharedRegion_getCacheLineSize                                             
8000ff00  SharedRegion_getEntry                                                     
80014280  SharedRegion_getHeap                                                      
800182a0  SharedRegion_getId                                                        
8000f080  SharedRegion_getPtr                                                       
8000f2a0  SharedRegion_getSRPtr                                                     
8001e6c0  SharedRegion_invalidSRPtr                                                 
800143c0  SharedRegion_isCacheEnabled                                               
8001e6e0  _GateMP_virtToPhys                                                        
80000000  __ASM__                                                                   
80038190  __CIOBUF_                                                                 
80000060  __ISA__                                                                   
80000078  __PLAT__                                                                  
80000098  __TARG__                                                                  
800399b8  __TI_CINIT_Base                                                           
800399e8  __TI_CINIT_Limit                                                          
800399ac  __TI_Handler_Table_Base                                                   
800399b4  __TI_Handler_Table_Limit                                                  
UNDEFED   __TI_INITARRAY_Base                                                       
UNDEFED   __TI_INITARRAY_Limit                                                      
00804000  __TI_STACK_END                                                            
00004000  __TI_STACK_SIZE                                                           
800382b0  __TI_STATIC_BASE                                                          
UNDEFED   __TI_TLS_INIT_Base                                                        
UNDEFED   __TI_TLS_INIT_Limit                                                       
80037fe8  __TI_cleanup_ptr                                                          
8001e800  __TI_decompress_none                                                      
8001e820  __TI_decompress_rle24                                                     
80037fec  __TI_dtors_ptr                                                            
80037ff0  __TI_enable_exit_profile_output                                           
ffffffff  __TI_pprof_out_hndl                                                       
ffffffff  __TI_prof_data_size                                                       
ffffffff  __TI_prof_data_start                                                      
8001acc0  __TI_readmsg                                                              
800196e0  __TI_tls_init                                                             
8001c300  __TI_writemsg                                                             
800000c0  __TRDR__                                                                  
ffffffff  __binit__                                                                 
80018360  __c6xabi_divu                                                             
8000e780  __c6xabi_divull                                                           
8001ad40  __c6xabi_llshl                                                            
8001c360  __c6xabi_llshru                                                           
8001e700  __c6xabi_pop_rts                                                          
8001e720  __c6xabi_push_rts                                                         
80019b60  __c6xabi_remu                                                             
8001d460  __c6xabi_strasgi_64plus                                                   
ffffffff  __c_args__                                                                
80018360  __divu                                                                    
8001e700  __pop_rts                                                                 
8001e720  __push_rts                                                                
80019b60  __remu                                                                    
8001d460  __strasgi_64plus                                                          
8001d4a0  _args_main                                                                
00000000  _argsize                                                                  
80015760  _auto_init_elf                                                            
80019c00  _c_int00                                                                  
80037324  _lock                                                                     
8001e740  _nop                                                                      
8001e760  _register_lock                                                            
8001e780  _register_synch_api                                                       
8001e7a0  _register_unlock                                                          
00800000  _stack                                                                    
8001c3c0  _subcull                                                                  
80037564  _unlock                                                                   
8001e7e0  abort                                                                     
ffffffff  binit                                                                     
800382b4  core_id                                                                   
800382c4  cppiFreeCounter                                                           
80035b38  cppiGblCPDMACfgParams                                                     
80037f58  cppiGblCfgParams                                                          
8000de78  cppiInit                                                                  
80037f6c  cppiLObj                                                                  
800382c0  cppiMallocCounter                                                         
0c206900  cppiObject                                                                
80017200  exit                                                                      
8000de18  ipcInit                                                                   
80017354  main                                                                      
80019d40  memcpy                                                                    
800173c0  memset                                                                    
80030f08  parmbuf                                                                   
800382bc  qmssFreeCounter                                                           
0c204180  qmssGObj                                                                  
0c206880  qmssGObjIsValid                                                           
80037054  qmssGblCfgParams                                                          
0c204080  qmssGroupControl                                                          
80030560  qmssLObj                                                                  
80030f10  qmssLObjIsValid                                                           
800382b8  qmssMallocCounter                                                         
80035588  qmssQueueFree                                                             
80035590  qmssQueueFreeSize                                                         
800382cc  rmFreeCounter                                                             
800382c8  rmMallocCounter                                                           
8001c4e0  sysInit                                                                   
800172e0  taskFxn                                                                   
80035044  ti_sdo_ipc_GateMP_A_invalidClose__C                                       
80035584  ti_sdo_ipc_GateMP_A_invalidDelete__C                                      
800355c0  ti_sdo_ipc_GateMP_E_gateUnavailable__C                                    
800355c4  ti_sdo_ipc_GateMP_E_localGate__C                                          
80006620  ti_sdo_ipc_GateMP_Instance_finalize__E                                    
80000000  ti_sdo_ipc_GateMP_Instance_init__E                                        
800355c8  ti_sdo_ipc_GateMP_LM_create__C                                            
800355cc  ti_sdo_ipc_GateMP_LM_delete__C                                            
800355d0  ti_sdo_ipc_GateMP_LM_enter__C                                             
800355d4  ti_sdo_ipc_GateMP_LM_leave__C                                             
800355d8  ti_sdo_ipc_GateMP_LM_open__C                                              
80036510  ti_sdo_ipc_GateMP_Module_State_0_remoteCustom1Gates__A                    
80037830  ti_sdo_ipc_GateMP_Module_State_0_remoteSystemGates__A                     
800355dc  ti_sdo_ipc_GateMP_Module__diagsEnabled__C                                 
800355e0  ti_sdo_ipc_GateMP_Module__diagsIncluded__C                                
800355e4  ti_sdo_ipc_GateMP_Module__diagsMask__C                                    
80033d5a  ti_sdo_ipc_GateMP_Module__id__C                                           
8003506a  ti_sdo_ipc_GateMP_Module__loggerDefined__C                                
800355e8  ti_sdo_ipc_GateMP_Module__loggerFxn2__C                                   
800355ec  ti_sdo_ipc_GateMP_Module__loggerFxn4__C                                   
800355f0  ti_sdo_ipc_GateMP_Module__loggerObj__C                                    
80038028  ti_sdo_ipc_GateMP_Module__root__V                                         
80037c64  ti_sdo_ipc_GateMP_Module__state__V                                        
8003506c  ti_sdo_ipc_GateMP_Object__DESC__C                                         
80034bb8  ti_sdo_ipc_GateMP_Object__PARAMS__C                                       
8001c540  ti_sdo_ipc_GateMP_Object__delete__S                                       
8001e840  ti_sdo_ipc_GateMP_Params__init__S                                         
8001d6a0  ti_sdo_ipc_GateMP_RemoteCustom1Proxy_Handle__label__S                     
8001ec20  ti_sdo_ipc_GateMP_RemoteCustom1Proxy_Params__init__S                      
8001e860  ti_sdo_ipc_GateMP_RemoteCustom1Proxy_Proxy__abstract__S                   
8001e880  ti_sdo_ipc_GateMP_RemoteCustom1Proxy_Proxy__delegate__S                   
8001e8a0  ti_sdo_ipc_GateMP_RemoteCustom1Proxy_create                               
8001e8c0  ti_sdo_ipc_GateMP_RemoteCustom1Proxy_delete                               
8001ec40  ti_sdo_ipc_GateMP_RemoteCustom1Proxy_getReservedMask__E                   
8001ec60  ti_sdo_ipc_GateMP_RemoteCustom1Proxy_query__E                             
8001c780  ti_sdo_ipc_GateMP_RemoteCustom1Proxy_sharedMemReq__E                      
8001d620  ti_sdo_ipc_GateMP_RemoteCustom2Proxy_Handle__label__S                     
8001eba0  ti_sdo_ipc_GateMP_RemoteCustom2Proxy_Params__init__S                      
8001e8e0  ti_sdo_ipc_GateMP_RemoteCustom2Proxy_Proxy__abstract__S                   
8001e900  ti_sdo_ipc_GateMP_RemoteCustom2Proxy_Proxy__delegate__S                   
8001e920  ti_sdo_ipc_GateMP_RemoteCustom2Proxy_create                               
8001e940  ti_sdo_ipc_GateMP_RemoteCustom2Proxy_delete                               
8001ebc0  ti_sdo_ipc_GateMP_RemoteCustom2Proxy_getReservedMask__E                   
8001ebe0  ti_sdo_ipc_GateMP_RemoteCustom2Proxy_query__E                             
8001ec00  ti_sdo_ipc_GateMP_RemoteCustom2Proxy_sharedMemReq__E                      
8001d560  ti_sdo_ipc_GateMP_RemoteSystemProxy_Handle__label__S                      
8001eb00  ti_sdo_ipc_GateMP_RemoteSystemProxy_Params__init__S                       
8001e960  ti_sdo_ipc_GateMP_RemoteSystemProxy_Proxy__abstract__S                    
8001e980  ti_sdo_ipc_GateMP_RemoteSystemProxy_Proxy__delegate__S                    
8001e9a0  ti_sdo_ipc_GateMP_RemoteSystemProxy_create                                
8001e9c0  ti_sdo_ipc_GateMP_RemoteSystemProxy_delete                                
8001eb20  ti_sdo_ipc_GateMP_RemoteSystemProxy_getReservedMask__E                    
8001eb40  ti_sdo_ipc_GateMP_RemoteSystemProxy_query__E                              
8001eb60  ti_sdo_ipc_GateMP_RemoteSystemProxy_sharedMemReq__E                       
80012c80  ti_sdo_ipc_GateMP_attach__E                                               
80012c80  ti_sdo_ipc_GateMP_attach__F                                               
80018420  ti_sdo_ipc_GateMP_create                                                  
80014500  ti_sdo_ipc_GateMP_createLocal__E                                          
80014500  ti_sdo_ipc_GateMP_createLocal__F                                          
8001e9e0  ti_sdo_ipc_GateMP_delete                                                  
80014640  ti_sdo_ipc_GateMP_getFreeResource__I                                      
800184e0  ti_sdo_ipc_GateMP_getRegion0ReservedSize__E                               
800184e0  ti_sdo_ipc_GateMP_getRegion0ReservedSize__F                               
8001ea00  ti_sdo_ipc_GateMP_getSharedAddr__E                                        
8001ea00  ti_sdo_ipc_GateMP_getSharedAddr__F                                        
80013400  ti_sdo_ipc_GateMP_openRegion0Reserved__E                                  
80013400  ti_sdo_ipc_GateMP_openRegion0Reserved__F                                  
8001ea20  ti_sdo_ipc_GateMP_setDefaultRemote__E                                     
8001ea20  ti_sdo_ipc_GateMP_setDefaultRemote__F                                     
800054c0  ti_sdo_ipc_GateMP_setRegion0Reserved__E                                   
800054c0  ti_sdo_ipc_GateMP_setRegion0Reserved__F                                   
800174a0  ti_sdo_ipc_GateMP_start__E                                                
800174a0  ti_sdo_ipc_GateMP_start__F                                                
800355f4  ti_sdo_ipc_Ipc_A_addrNotCacheAligned__C                                   
800355f8  ti_sdo_ipc_Ipc_A_addrNotInSharedRegion__C                                 
800355fc  ti_sdo_ipc_Ipc_A_internal__C                                              
80035600  ti_sdo_ipc_Ipc_A_invArgument__C                                           
80035604  ti_sdo_ipc_Ipc_A_invParam__C                                              
80035608  ti_sdo_ipc_Ipc_A_nullArgument__C                                          
8003560c  ti_sdo_ipc_Ipc_E_internal__C                                              
80035610  ti_sdo_ipc_Ipc_E_nameFailed__C                                            
80035614  ti_sdo_ipc_Ipc_E_versionMismatch__C                                       
80037e20  ti_sdo_ipc_Ipc_Module_State_0_procEntry__A                                
80035618  ti_sdo_ipc_Ipc_Module__diagsEnabled__C                                    
8003561c  ti_sdo_ipc_Ipc_Module__diagsIncluded__C                                   
80035620  ti_sdo_ipc_Ipc_Module__diagsMask__C                                       
80035abc  ti_sdo_ipc_Ipc_Module__id__C                                              
80037ff4  ti_sdo_ipc_Ipc_Module__state__V                                           
80035abe  ti_sdo_ipc_Ipc_generateSlaveDataForHost__C                                
8001ae40  ti_sdo_ipc_Ipc_getMasterAddr__I                                           
8001d520  ti_sdo_ipc_Ipc_getRegion0ReservedSize__I                                  
8001c5a0  ti_sdo_ipc_Ipc_getSlaveAddr__I                                            
80035624  ti_sdo_ipc_Ipc_numUserFxns__C                                             
80016160  ti_sdo_ipc_Ipc_procSyncFinish__I                                          
80011260  ti_sdo_ipc_Ipc_procSyncStart__I                                           
80035628  ti_sdo_ipc_Ipc_procSync__C                                                
8001c600  ti_sdo_ipc_Ipc_reservedSizePerProc__I                                     
8003562c  ti_sdo_ipc_Ipc_userFxns__C                                                
80035630  ti_sdo_ipc_MessageQ_A_invalidMsg__C                                       
80035634  ti_sdo_ipc_MessageQ_A_invalidObj__C                                       
80035638  ti_sdo_ipc_MessageQ_A_invalidQueueId__C                                   
8003563c  ti_sdo_ipc_MessageQ_A_procIdInvalid__C                                    
80035640  ti_sdo_ipc_MessageQ_A_unregisteredTransport__C                            
80035644  ti_sdo_ipc_MessageQ_E_indexNotAvailable__C                                
80035648  ti_sdo_ipc_MessageQ_E_maxReached__C                                       
8003564c  ti_sdo_ipc_MessageQ_E_nameFailed__C                                       
80035650  ti_sdo_ipc_MessageQ_Instance_State_highList__O                            
80035654  ti_sdo_ipc_MessageQ_Instance_State_normalList__O                          
80013560  ti_sdo_ipc_MessageQ_Instance_finalize__E                                  
8000a080  ti_sdo_ipc_MessageQ_Instance_init__E                                      
80035658  ti_sdo_ipc_MessageQ_LM_get__C                                             
8003565c  ti_sdo_ipc_MessageQ_LM_putLocal__C                                        
80037e98  ti_sdo_ipc_MessageQ_Module_State_0_heaps__A                               
80037f98  ti_sdo_ipc_MessageQ_Module_State_0_transports__A                          
80035660  ti_sdo_ipc_MessageQ_Module__diagsEnabled__C                               
80035664  ti_sdo_ipc_MessageQ_Module__diagsIncluded__C                              
80035668  ti_sdo_ipc_MessageQ_Module__diagsMask__C                                  
80035ac0  ti_sdo_ipc_MessageQ_Module__id__C                                         
80035ac2  ti_sdo_ipc_MessageQ_Module__loggerDefined__C                              
8003566c  ti_sdo_ipc_MessageQ_Module__loggerFxn4__C                                 
80035670  ti_sdo_ipc_MessageQ_Module__loggerObj__C                                  
80038030  ti_sdo_ipc_MessageQ_Module__root__V                                       
80037b9c  ti_sdo_ipc_MessageQ_Module__state__V                                      
80017580  ti_sdo_ipc_MessageQ_Module_startup__E                                     
8003508c  ti_sdo_ipc_MessageQ_Object__DESC__C                                       
800350ac  ti_sdo_ipc_MessageQ_Object__PARAMS__C                                     
80035674  ti_sdo_ipc_MessageQ_Object__count__C                                      
8001ea40  ti_sdo_ipc_MessageQ_Object__get__S                                        
80035678  ti_sdo_ipc_MessageQ_Object__heap__C                                       
8001ea60  ti_sdo_ipc_MessageQ_Params__init__S                                       
8001a100  ti_sdo_ipc_MessageQ_SetupTransportProxy_attach__E                         
8001d8a0  ti_sdo_ipc_MessageQ_SetupTransportProxy_isRegistered__E                   
8001ee00  ti_sdo_ipc_MessageQ_SetupTransportProxy_sharedMemReq__E                   
800185a0  ti_sdo_ipc_MessageQ_create                                                
80018660  ti_sdo_ipc_MessageQ_grow__I                                               
8003567c  ti_sdo_ipc_MessageQ_maxRuntimeEntries__C                                  
80035680  ti_sdo_ipc_MessageQ_numReservedEntries__C                                 
8000c960  ti_sdo_ipc_MessageQ_registerTransport__E                                  
8000c960  ti_sdo_ipc_MessageQ_registerTransport__F                                  
8000cc00  ti_sdo_ipc_MessageQ_unregisterTransport__E                                
8000cc00  ti_sdo_ipc_MessageQ_unregisterTransport__F                                
80035684  ti_sdo_ipc_Notify_A_alreadyRegistered__C                                  
80035688  ti_sdo_ipc_Notify_A_internal__C                                           
8003568c  ti_sdo_ipc_Notify_A_invArgument__C                                        
80035690  ti_sdo_ipc_Notify_A_notRegistered__C                                      
80035694  ti_sdo_ipc_Notify_A_reservedEvent__C                                      
80017660  ti_sdo_ipc_Notify_Instance_finalize__E                                    
8000b560  ti_sdo_ipc_Notify_Instance_init__E                                        
8001dd60  ti_sdo_ipc_Notify_Module_GateProxy_Handle__label__S                       
8001ea80  ti_sdo_ipc_Notify_Module_GateProxy_enter__E                               
8001eaa0  ti_sdo_ipc_Notify_Module_GateProxy_leave__E                               
8001f520  ti_sdo_ipc_Notify_Module_GateProxy_query__E                               
80038160  ti_sdo_ipc_Notify_Module_State_0_notifyHandles_0__A                       
80038168  ti_sdo_ipc_Notify_Module_State_0_notifyHandles_1__A                       
80038038  ti_sdo_ipc_Notify_Module_State_0_notifyHandles__A                         
80035698  ti_sdo_ipc_Notify_Module__diagsEnabled__C                                 
8003569c  ti_sdo_ipc_Notify_Module__diagsIncluded__C                                
800356a0  ti_sdo_ipc_Notify_Module__diagsMask__C                                    
800356a4  ti_sdo_ipc_Notify_Module__gateObj__C                                      
80035ac4  ti_sdo_ipc_Notify_Module__id__C                                           
80038040  ti_sdo_ipc_Notify_Module__root__V                                         
80038048  ti_sdo_ipc_Notify_Module__state__V                                        
80015880  ti_sdo_ipc_Notify_Module_startup__E                                       
800350cc  ti_sdo_ipc_Notify_Object__DESC__C                                         
8003547c  ti_sdo_ipc_Notify_Object__PARAMS__C                                       
800356a8  ti_sdo_ipc_Notify_Object__heap__C                                         
80019e80  ti_sdo_ipc_Notify_SetupProxy_attach__E                                    
8001c660  ti_sdo_ipc_Notify_SetupProxy_numIntLines__E                               
8001c6c0  ti_sdo_ipc_Notify_SetupProxy_sharedMemReq__E                              
800159a0  ti_sdo_ipc_Notify_create                                                  
80016260  ti_sdo_ipc_Notify_exec__E                                                 
80016260  ti_sdo_ipc_Notify_exec__F                                                 
800356ac  ti_sdo_ipc_Notify_numEvents__C                                            
80035ac6  ti_sdo_ipc_Notify_numLines__C                                             
80035ac8  ti_sdo_ipc_Notify_reservedEvents__C                                       
800356b0  ti_sdo_ipc_SharedRegion_A_addrOutOfRange__C                               
800356b4  ti_sdo_ipc_SharedRegion_A_idTooLarge__C                                   
800356b8  ti_sdo_ipc_SharedRegion_A_noHeap__C                                       
800356bc  ti_sdo_ipc_SharedRegion_A_region0Invalid__C                               
800356c0  ti_sdo_ipc_SharedRegion_A_regionInvalid__C                                
800356c4  ti_sdo_ipc_SharedRegion_A_reserveTooMuch__C                               
800356c8  ti_sdo_ipc_SharedRegion_INVALIDSRPTR__C                                   
800377a0  ti_sdo_ipc_SharedRegion_Module_State_0_regions__A                         
800356cc  ti_sdo_ipc_SharedRegion_Module__diagsEnabled__C                           
800356d0  ti_sdo_ipc_SharedRegion_Module__diagsIncluded__C                          
800356d4  ti_sdo_ipc_SharedRegion_Module__diagsMask__C                              
80035aca  ti_sdo_ipc_SharedRegion_Module__id__C                                     
8003779c  ti_sdo_ipc_SharedRegion_Module__state__V                                  
80016360  ti_sdo_ipc_SharedRegion_attach__E                                         
80016360  ti_sdo_ipc_SharedRegion_attach__F                                         
80017740  ti_sdo_ipc_SharedRegion_clearReservedMemory__E                            
80017740  ti_sdo_ipc_SharedRegion_clearReservedMemory__F                            
80035acc  ti_sdo_ipc_SharedRegion_numEntries__C                                     
800356d8  ti_sdo_ipc_SharedRegion_numOffsetBits__C                                  
800356dc  ti_sdo_ipc_SharedRegion_offsetMask__C                                     
8000bb60  ti_sdo_ipc_SharedRegion_reserveMemory__E                                  
8000bb60  ti_sdo_ipc_SharedRegion_reserveMemory__F                                  
80010300  ti_sdo_ipc_SharedRegion_start__E                                          
80010300  ti_sdo_ipc_SharedRegion_start__F                                          
80035ace  ti_sdo_ipc_SharedRegion_translate__C                                      
800356e0  ti_sdo_ipc_family_tci663x_Interrupt_A_clusterBaseId__C                    
800356e4  ti_sdo_ipc_family_tci663x_Interrupt_A_hostConfig__C                       
800356e8  ti_sdo_ipc_family_tci663x_Interrupt_INTERDSPINT__C                        
800356ec  ti_sdo_ipc_family_tci663x_Interrupt_IPCAR0__C                             
800356f0  ti_sdo_ipc_family_tci663x_Interrupt_IPCGR0__C                             
800356f4  ti_sdo_ipc_family_tci663x_Interrupt_IPCGRH__C                             
800356f8  ti_sdo_ipc_family_tci663x_Interrupt_KICK0__C                              
800356fc  ti_sdo_ipc_family_tci663x_Interrupt_KICK1__C                              
80037fa8  ti_sdo_ipc_family_tci663x_Interrupt_Module_State_0_clientTab__A           
80037fb8  ti_sdo_ipc_family_tci663x_Interrupt_Module_State_0_hwTab__A               
80035700  ti_sdo_ipc_family_tci663x_Interrupt_Module__diagsEnabled__C               
80035704  ti_sdo_ipc_family_tci663x_Interrupt_Module__diagsIncluded__C              
80035708  ti_sdo_ipc_family_tci663x_Interrupt_Module__diagsMask__C                  
80035ad0  ti_sdo_ipc_family_tci663x_Interrupt_Module__id__C                         
80037f80  ti_sdo_ipc_family_tci663x_Interrupt_Module__state__V                      
8000cea0  ti_sdo_ipc_family_tci663x_Interrupt_Module_startup__E                     
80035ad2  ti_sdo_ipc_family_tci663x_Interrupt_enableKick__C                         
8001aec0  ti_sdo_ipc_family_tci663x_Interrupt_intClear__E                           
8001eac0  ti_sdo_ipc_family_tci663x_Interrupt_intDisable__E                         
8001eae0  ti_sdo_ipc_family_tci663x_Interrupt_intEnable__E                          
80017820  ti_sdo_ipc_family_tci663x_Interrupt_intRegister__E                        
80019de0  ti_sdo_ipc_family_tci663x_Interrupt_intSend__E                            
8001af40  ti_sdo_ipc_family_tci663x_Interrupt_intUnregister__E                      
8003570c  ti_sdo_ipc_family_tci663x_Interrupt_ipcIntr__C                            
80016460  ti_sdo_ipc_family_tci663x_Interrupt_isr__I                                
80019e80  ti_sdo_ipc_family_tci663x_NotifyCircSetup_attach__E                       
80035ad4  ti_sdo_ipc_family_tci663x_NotifyCircSetup_includeHost__C                  
8001c660  ti_sdo_ipc_family_tci663x_NotifyCircSetup_numIntLines__E                  
8001c6c0  ti_sdo_ipc_family_tci663x_NotifyCircSetup_sharedMemReq__E                 
80035710  ti_sdo_ipc_gates_GateHWSem_A_invSemNum__C                                 
8001d560  ti_sdo_ipc_gates_GateHWSem_Handle__label__S                               
80015ac0  ti_sdo_ipc_gates_GateHWSem_Instance_init__E                               
80034cac  ti_sdo_ipc_gates_GateHWSem_Module__FXNS__C                                
80035714  ti_sdo_ipc_gates_GateHWSem_Module__diagsEnabled__C                        
80035718  ti_sdo_ipc_gates_GateHWSem_Module__diagsIncluded__C                       
8003571c  ti_sdo_ipc_gates_GateHWSem_Module__diagsMask__C                           
80035ad6  ti_sdo_ipc_gates_GateHWSem_Module__id__C                                  
80038050  ti_sdo_ipc_gates_GateHWSem_Module__root__V                                
8001afc0  ti_sdo_ipc_gates_GateHWSem_Module_startup__E                              
800350ec  ti_sdo_ipc_gates_GateHWSem_Object__DESC__C                                
80034e70  ti_sdo_ipc_gates_GateHWSem_Object__PARAMS__C                              
8001b040  ti_sdo_ipc_gates_GateHWSem_Object__create__S                              
8001d5a0  ti_sdo_ipc_gates_GateHWSem_Object__delete__S                              
8001eb00  ti_sdo_ipc_gates_GateHWSem_Params__init__S                                
80035720  ti_sdo_ipc_gates_GateHWSem_baseAddr__C                                    
8001b0c0  ti_sdo_ipc_gates_GateHWSem_create                                         
80016560  ti_sdo_ipc_gates_GateHWSem_enter__E                                       
8001eb20  ti_sdo_ipc_gates_GateHWSem_getReservedMask__E                             
8001d5e0  ti_sdo_ipc_gates_GateHWSem_leave__E                                       
80035724  ti_sdo_ipc_gates_GateHWSem_numSems__C                                     
8001eb40  ti_sdo_ipc_gates_GateHWSem_query__E                                       
80035728  ti_sdo_ipc_gates_GateHWSem_reservedMaskArr__A                             
8003572c  ti_sdo_ipc_gates_GateHWSem_reservedMaskArr__C                             
8001eb60  ti_sdo_ipc_gates_GateHWSem_sharedMemReq__E                                
80035730  ti_sdo_ipc_gates_GateMPSupportNull_A_invalidAction__C                     
8001d620  ti_sdo_ipc_gates_GateMPSupportNull_Handle__label__S                       
8001eb80  ti_sdo_ipc_gates_GateMPSupportNull_Instance_init__E                       
80034cd8  ti_sdo_ipc_gates_GateMPSupportNull_Module__FXNS__C                        
80035734  ti_sdo_ipc_gates_GateMPSupportNull_Module__diagsEnabled__C                
80035738  ti_sdo_ipc_gates_GateMPSupportNull_Module__diagsIncluded__C               
8003573c  ti_sdo_ipc_gates_GateMPSupportNull_Module__diagsMask__C                   
80035ad8  ti_sdo_ipc_gates_GateMPSupportNull_Module__id__C                          
80038058  ti_sdo_ipc_gates_GateMPSupportNull_Module__root__V                        
8003510c  ti_sdo_ipc_gates_GateMPSupportNull_Object__DESC__C                        
80034e94  ti_sdo_ipc_gates_GateMPSupportNull_Object__PARAMS__C                      
8001b140  ti_sdo_ipc_gates_GateMPSupportNull_Object__create__S                      
8001d660  ti_sdo_ipc_gates_GateMPSupportNull_Object__delete__S                      
8001eba0  ti_sdo_ipc_gates_GateMPSupportNull_Params__init__S                        
80035740  ti_sdo_ipc_gates_GateMPSupportNull_action__C                              
8001b1c0  ti_sdo_ipc_gates_GateMPSupportNull_create                                 
80017900  ti_sdo_ipc_gates_GateMPSupportNull_enter__E                               
8001ebc0  ti_sdo_ipc_gates_GateMPSupportNull_getReservedMask__E                     
800179e0  ti_sdo_ipc_gates_GateMPSupportNull_leave__E                               
8001ebe0  ti_sdo_ipc_gates_GateMPSupportNull_query__E                               
8001ec00  ti_sdo_ipc_gates_GateMPSupportNull_sharedMemReq__E                        
80035744  ti_sdo_ipc_gates_GatePeterson_E_gateRemotelyOpened__C                     
8001d6a0  ti_sdo_ipc_gates_GatePeterson_Handle__label__S                            
8001d6e0  ti_sdo_ipc_gates_GatePeterson_Instance_finalize__E                        
8000abc0  ti_sdo_ipc_gates_GatePeterson_Instance_init__E                            
80034d04  ti_sdo_ipc_gates_GatePeterson_Module__FXNS__C                             
80035748  ti_sdo_ipc_gates_GatePeterson_Module__diagsEnabled__C                     
8003574c  ti_sdo_ipc_gates_GatePeterson_Module__diagsIncluded__C                    
80035750  ti_sdo_ipc_gates_GatePeterson_Module__diagsMask__C                        
80035ada  ti_sdo_ipc_gates_GatePeterson_Module__id__C                               
80038060  ti_sdo_ipc_gates_GatePeterson_Module__root__V                             
8003512c  ti_sdo_ipc_gates_GatePeterson_Object__DESC__C                             
80034eb8  ti_sdo_ipc_gates_GatePeterson_Object__PARAMS__C                           
80018720  ti_sdo_ipc_gates_GatePeterson_Object__create__S                           
8001c720  ti_sdo_ipc_gates_GatePeterson_Object__delete__S                           
8001ec20  ti_sdo_ipc_gates_GatePeterson_Params__init__S                             
800187e0  ti_sdo_ipc_gates_GatePeterson_create                                      
80014780  ti_sdo_ipc_gates_GatePeterson_enter__E                                    
8001ec40  ti_sdo_ipc_gates_GatePeterson_getReservedMask__E                          
80019f20  ti_sdo_ipc_gates_GatePeterson_leave__E                                    
80035754  ti_sdo_ipc_gates_GatePeterson_numInstances__C                             
80019fc0  ti_sdo_ipc_gates_GatePeterson_postInit__I                                 
8001ec60  ti_sdo_ipc_gates_GatePeterson_query__E                                    
8001c780  ti_sdo_ipc_gates_GatePeterson_sharedMemReq__E                             
80035758  ti_sdo_ipc_heaps_HeapMemMP_A_align__C                                     
8003575c  ti_sdo_ipc_heaps_HeapMemMP_A_heapSize__C                                  
80035760  ti_sdo_ipc_heaps_HeapMemMP_A_invalidFree__C                               
80035764  ti_sdo_ipc_heaps_HeapMemMP_A_zeroBlock__C                                 
80035768  ti_sdo_ipc_heaps_HeapMemMP_E_memory__C                                    
8001d720  ti_sdo_ipc_heaps_HeapMemMP_Handle__label__S                               
80017ac0  ti_sdo_ipc_heaps_HeapMemMP_Instance_finalize__E                           
800075c0  ti_sdo_ipc_heaps_HeapMemMP_Instance_init__E                               
80034d5c  ti_sdo_ipc_heaps_HeapMemMP_Module__FXNS__C                                
8003576c  ti_sdo_ipc_heaps_HeapMemMP_Module__diagsEnabled__C                        
80035770  ti_sdo_ipc_heaps_HeapMemMP_Module__diagsIncluded__C                       
80035774  ti_sdo_ipc_heaps_HeapMemMP_Module__diagsMask__C                           
80035adc  ti_sdo_ipc_heaps_HeapMemMP_Module__id__C                                  
80038068  ti_sdo_ipc_heaps_HeapMemMP_Module__root__V                                
80037c04  ti_sdo_ipc_heaps_HeapMemMP_Module__state__V                               
8003514c  ti_sdo_ipc_heaps_HeapMemMP_Object__DESC__C                                
80034c20  ti_sdo_ipc_heaps_HeapMemMP_Object__PARAMS__C                              
800188a0  ti_sdo_ipc_heaps_HeapMemMP_Object__create__S                              
8001c7e0  ti_sdo_ipc_heaps_HeapMemMP_Object__delete__S                              
8001ec80  ti_sdo_ipc_heaps_HeapMemMP_Params__init__S                                
80004880  ti_sdo_ipc_heaps_HeapMemMP_alloc__E                                       
80018960  ti_sdo_ipc_heaps_HeapMemMP_create                                         
80006b80  ti_sdo_ipc_heaps_HeapMemMP_free__E                                        
80016660  ti_sdo_ipc_heaps_HeapMemMP_getStats__E                                    
8001eca0  ti_sdo_ipc_heaps_HeapMemMP_isBlocking__E                                  
8000c120  ti_sdo_ipc_heaps_HeapMemMP_postInit__I                                    
80035778  ti_sdo_ipc_interfaces_IGateMPSupport_Interface__BASE__C                   
8003577c  ti_sdo_ipc_interfaces_IMessageQTransport_Interface__BASE__C               
80035780  ti_sdo_ipc_interfaces_INetworkTransport_Interface__BASE__C                
80035784  ti_sdo_ipc_interfaces_INotifyDriver_Interface__BASE__C                    
80035788  ti_sdo_ipc_interfaces_ITransport_Interface__BASE__C                       
8003578c  ti_sdo_ipc_notifyDrivers_NotifyDriverCirc_A_notSupported__C               
8001d760  ti_sdo_ipc_notifyDrivers_NotifyDriverCirc_Handle__label__S                
8001b240  ti_sdo_ipc_notifyDrivers_NotifyDriverCirc_Instance_finalize__E            
8000af00  ti_sdo_ipc_notifyDrivers_NotifyDriverCirc_Instance_init__E                
8001aec0  ti_sdo_ipc_notifyDrivers_NotifyDriverCirc_InterruptProxy_intClear__E      
8001eac0  ti_sdo_ipc_notifyDrivers_NotifyDriverCirc_InterruptProxy_intDisable__E    
8001eae0  ti_sdo_ipc_notifyDrivers_NotifyDriverCirc_InterruptProxy_intEnable__E     
80017820  ti_sdo_ipc_notifyDrivers_NotifyDriverCirc_InterruptProxy_intRegister__E   
80019de0  ti_sdo_ipc_notifyDrivers_NotifyDriverCirc_InterruptProxy_intSend__E       
8001af40  ti_sdo_ipc_notifyDrivers_NotifyDriverCirc_InterruptProxy_intUnregister__E 
80034b80  ti_sdo_ipc_notifyDrivers_NotifyDriverCirc_Module__FXNS__C                 
80035790  ti_sdo_ipc_notifyDrivers_NotifyDriverCirc_Module__diagsEnabled__C         
80035794  ti_sdo_ipc_notifyDrivers_NotifyDriverCirc_Module__diagsIncluded__C        
80035798  ti_sdo_ipc_notifyDrivers_NotifyDriverCirc_Module__diagsMask__C            
80035ade  ti_sdo_ipc_notifyDrivers_NotifyDriverCirc_Module__id__C                   
80038070  ti_sdo_ipc_notifyDrivers_NotifyDriverCirc_Module__root__V                 
8003516c  ti_sdo_ipc_notifyDrivers_NotifyDriverCirc_Object__DESC__C                 
80034bec  ti_sdo_ipc_notifyDrivers_NotifyDriverCirc_Object__PARAMS__C               
8001c840  ti_sdo_ipc_notifyDrivers_NotifyDriverCirc_Object__delete__S               
8001ecc0  ti_sdo_ipc_notifyDrivers_NotifyDriverCirc_Params__init__S                 
8001b2c0  ti_sdo_ipc_notifyDrivers_NotifyDriverCirc_create                          
8001ece0  ti_sdo_ipc_notifyDrivers_NotifyDriverCirc_delete                          
80018a20  ti_sdo_ipc_notifyDrivers_NotifyDriverCirc_disableEvent__E                 
8001ed00  ti_sdo_ipc_notifyDrivers_NotifyDriverCirc_disable__E                      
8001ed20  ti_sdo_ipc_notifyDrivers_NotifyDriverCirc_enableEvent__E                  
80035ae0  ti_sdo_ipc_notifyDrivers_NotifyDriverCirc_enableStats__C                  
80018ae0  ti_sdo_ipc_notifyDrivers_NotifyDriverCirc_enable__E                       
8000d680  ti_sdo_ipc_notifyDrivers_NotifyDriverCirc_isr__I                          
8003579c  ti_sdo_ipc_notifyDrivers_NotifyDriverCirc_maxIndex__C                     
800357a0  ti_sdo_ipc_notifyDrivers_NotifyDriverCirc_modIndex__C                     
800357a4  ti_sdo_ipc_notifyDrivers_NotifyDriverCirc_numMsgs__C                      
8001d7a0  ti_sdo_ipc_notifyDrivers_NotifyDriverCirc_registerEvent__E                
80011fe0  ti_sdo_ipc_notifyDrivers_NotifyDriverCirc_sendEvent__E                    
8001ed40  ti_sdo_ipc_notifyDrivers_NotifyDriverCirc_setNotifyHandle__E              
800136c0  ti_sdo_ipc_notifyDrivers_NotifyDriverCirc_sharedMemReq__E                 
800136c0  ti_sdo_ipc_notifyDrivers_NotifyDriverCirc_sharedMemReq__F                 
8001d7e0  ti_sdo_ipc_notifyDrivers_NotifyDriverCirc_unregisterEvent__E              
800357a8  ti_sdo_ipc_nsremote_NameServerRemoteNotify_A_invalidValueLen__C           
800357ac  ti_sdo_ipc_nsremote_NameServerRemoteNotify_A_messageSize__C               
8001d820  ti_sdo_ipc_nsremote_NameServerRemoteNotify_Handle__label__S               
800357b0  ti_sdo_ipc_nsremote_NameServerRemoteNotify_Instance_State_semMultiBlock__O
800357b4  ti_sdo_ipc_nsremote_NameServerRemoteNotify_Instance_State_semRemoteWait__O
800357b8  ti_sdo_ipc_nsremote_NameServerRemoteNotify_Instance_State_swiRequest__O   
800357bc  ti_sdo_ipc_nsremote_NameServerRemoteNotify_Instance_State_swiResponse__O  
80017ba0  ti_sdo_ipc_nsremote_NameServerRemoteNotify_Instance_finalize__E           
80006080  ti_sdo_ipc_nsremote_NameServerRemoteNotify_Instance_init__E               
80034d84  ti_sdo_ipc_nsremote_NameServerRemoteNotify_Module__FXNS__C                
800357c0  ti_sdo_ipc_nsremote_NameServerRemoteNotify_Module__diagsEnabled__C        
800357c4  ti_sdo_ipc_nsremote_NameServerRemoteNotify_Module__diagsIncluded__C       
800357c8  ti_sdo_ipc_nsremote_NameServerRemoteNotify_Module__diagsMask__C           
80035ae2  ti_sdo_ipc_nsremote_NameServerRemoteNotify_Module__id__C                  
80038078  ti_sdo_ipc_nsremote_NameServerRemoteNotify_Module__root__V                
8003518c  ti_sdo_ipc_nsremote_NameServerRemoteNotify_Object__DESC__C                
800351ac  ti_sdo_ipc_nsremote_NameServerRemoteNotify_Object__PARAMS__C              
80018ba0  ti_sdo_ipc_nsremote_NameServerRemoteNotify_Object__create__S              
8001c8a0  ti_sdo_ipc_nsremote_NameServerRemoteNotify_Object__delete__S              
8001ed60  ti_sdo_ipc_nsremote_NameServerRemoteNotify_Object__first__S               
8001ed80  ti_sdo_ipc_nsremote_NameServerRemoteNotify_Object__next__S                
8001eda0  ti_sdo_ipc_nsremote_NameServerRemoteNotify_Params__init__S                
800148c0  ti_sdo_ipc_nsremote_NameServerRemoteNotify_attach__E                      
80014a00  ti_sdo_ipc_nsremote_NameServerRemoteNotify_cbFxn__I                       
80018c60  ti_sdo_ipc_nsremote_NameServerRemoteNotify_create                         
8001edc0  ti_sdo_ipc_nsremote_NameServerRemoteNotify_delete                         
8001a060  ti_sdo_ipc_nsremote_NameServerRemoteNotify_detach__E                      
800098a0  ti_sdo_ipc_nsremote_NameServerRemoteNotify_get__E                         
800098a0  ti_sdo_ipc_nsremote_NameServerRemoteNotify_get__F                         
800357cc  ti_sdo_ipc_nsremote_NameServerRemoteNotify_notifyEventId__C               
8001ede0  ti_sdo_ipc_nsremote_NameServerRemoteNotify_sharedMemReq__E                
80010500  ti_sdo_ipc_nsremote_NameServerRemoteNotify_swiFxnRequest__I               
8001d860  ti_sdo_ipc_nsremote_NameServerRemoteNotify_swiFxnResponse__I              
800357d0  ti_sdo_ipc_nsremote_NameServerRemoteNotify_timeout__C                     
80038080  ti_sdo_ipc_transports_TransportShmNotifySetup_Module_State_0_handles__A   
80037cb4  ti_sdo_ipc_transports_TransportShmNotifySetup_Module__state__V            
8001a100  ti_sdo_ipc_transports_TransportShmNotifySetup_attach__E                   
8001d8a0  ti_sdo_ipc_transports_TransportShmNotifySetup_isRegistered__E             
800357d4  ti_sdo_ipc_transports_TransportShmNotifySetup_priority__C                 
8001ee00  ti_sdo_ipc_transports_TransportShmNotifySetup_sharedMemReq__E             
8001d8e0  ti_sdo_ipc_transports_TransportShmNotify_Handle__label__S                 
8001b340  ti_sdo_ipc_transports_TransportShmNotify_Instance_finalize__E             
80018d20  ti_sdo_ipc_transports_TransportShmNotify_Instance_init__E                 
80034dac  ti_sdo_ipc_transports_TransportShmNotify_Module__FXNS__C                  
80038088  ti_sdo_ipc_transports_TransportShmNotify_Module__root__V                  
800351cc  ti_sdo_ipc_transports_TransportShmNotify_Object__DESC__C                  
8003542c  ti_sdo_ipc_transports_TransportShmNotify_Object__PARAMS__C                
80018de0  ti_sdo_ipc_transports_TransportShmNotify_Object__create__S                
8001c900  ti_sdo_ipc_transports_TransportShmNotify_Object__delete__S                
8001ee20  ti_sdo_ipc_transports_TransportShmNotify_Params__init__S                  
80035ae4  ti_sdo_ipc_transports_TransportShmNotify_alwaysWriteBackMsg__C            
8001ee40  ti_sdo_ipc_transports_TransportShmNotify_control__E                       
80018ea0  ti_sdo_ipc_transports_TransportShmNotify_create                           
8001ee60  ti_sdo_ipc_transports_TransportShmNotify_getStatus__E                     
80035ae6  ti_sdo_ipc_transports_TransportShmNotify_notifyEventId__C                 
8001a1a0  ti_sdo_ipc_transports_TransportShmNotify_notifyFxn__I                     
80017c80  ti_sdo_ipc_transports_TransportShmNotify_put__E                           
8001ee80  ti_sdo_ipc_transports_TransportShmNotify_setErrFxn__E                     
800357d8  ti_sdo_utils_INameServerRemote_Interface__BASE__C                         
8001eea0  ti_sdo_utils_List_Instance_init__E                                        
80038090  ti_sdo_utils_List_Module__root__V                                         
800351ec  ti_sdo_utils_List_Object__DESC__C                                         
80035494  ti_sdo_utils_List_Object__PARAMS__C                                       
8001eec0  ti_sdo_utils_List_Object__get__S                                          
8001c960  ti_sdo_utils_List_construct                                               
8001d920  ti_sdo_utils_List_dequeue__E                                              
8001eee0  ti_sdo_utils_List_destruct                                                
8001ef00  ti_sdo_utils_List_enqueueHead__E                                          
8001ef20  ti_sdo_utils_List_enqueue__E                                              
8001ef40  ti_sdo_utils_List_get__E                                                  
8001ef60  ti_sdo_utils_List_next__E                                                 
8001ef80  ti_sdo_utils_List_putHead__E                                              
8001efa0  ti_sdo_utils_List_put__E                                                  
8001efc0  ti_sdo_utils_List_remove__E                                               
800357dc  ti_sdo_utils_MultiProc_A_invalidMultiProcId__C                            
800357e0  ti_sdo_utils_MultiProc_A_invalidProcName__C                               
80038170  ti_sdo_utils_MultiProc_Module_State_0_clusterProcList__A                  
800357e4  ti_sdo_utils_MultiProc_Module__diagsEnabled__C                            
800357e8  ti_sdo_utils_MultiProc_Module__diagsIncluded__C                           
800357ec  ti_sdo_utils_MultiProc_Module__diagsMask__C                               
80035ae8  ti_sdo_utils_MultiProc_Module__id__C                                      
8001efe0  ti_sdo_utils_MultiProc_Module__startupDone__S                             
80038098  ti_sdo_utils_MultiProc_Module__state__V                                   
8001f000  ti_sdo_utils_MultiProc_getClusterId__E                                    
8001f000  ti_sdo_utils_MultiProc_getClusterId__F                                    
80035598  ti_sdo_utils_MultiProc_nameList__A                                        
800357f0  ti_sdo_utils_MultiProc_nameList__C                                        
80035aea  ti_sdo_utils_MultiProc_numProcessors__C                                   
80035aec  ti_sdo_utils_MultiProc_numProcsInCluster__C                               
800357f4  ti_sdo_utils_MultiProc_procAddrMode__C                                    
800357f8  ti_sdo_utils_NameServer_A_invArgument__C                                  
800357fc  ti_sdo_utils_NameServer_A_invalidLen__C                                   
80035800  ti_sdo_utils_NameServer_E_entryExists__C                                  
80035804  ti_sdo_utils_NameServer_E_maxReached__C                                   
80035808  ti_sdo_utils_NameServer_Instance_State_freeList__O                        
8003580c  ti_sdo_utils_NameServer_Instance_State_nameList__O                        
800380a0  ti_sdo_utils_NameServer_Module_State_0_nsRemoteHandle__A                  
80035810  ti_sdo_utils_NameServer_Module__diagsEnabled__C                           
80035814  ti_sdo_utils_NameServer_Module__diagsIncluded__C                          
80035818  ti_sdo_utils_NameServer_Module__diagsMask__C                              
80035aee  ti_sdo_utils_NameServer_Module__id__C                                     
800380a8  ti_sdo_utils_NameServer_Module__root__V                                   
8001f020  ti_sdo_utils_NameServer_Module__startupDone__F                            
8001f020  ti_sdo_utils_NameServer_Module__startupDone__S                            
80038000  ti_sdo_utils_NameServer_Module__state__V                                  
8001a240  ti_sdo_utils_NameServer_Module_startup__E                                 
8003581c  ti_sdo_utils_NameServer_Object__count__C                                  
8001f040  ti_sdo_utils_NameServer_Object__first__S                                  
8001d960  ti_sdo_utils_NameServer_Object__get__S                                    
8001f060  ti_sdo_utils_NameServer_Object__next__S                                   
800376e8  ti_sdo_utils_NameServer_Object__table__V                                  
8001d820  ti_sdo_utils_NameServer_SetupProxy_Handle__label__S                       
8001eda0  ti_sdo_utils_NameServer_SetupProxy_Params__init__S                        
800148c0  ti_sdo_utils_NameServer_SetupProxy_attach__E                              
8001a060  ti_sdo_utils_NameServer_SetupProxy_detach__E                              
8001ede0  ti_sdo_utils_NameServer_SetupProxy_sharedMemReq__E                        
80017d60  ti_sdo_utils_NameServer_findLocal__I                                      
8000d900  ti_sdo_utils_NameServer_isRegistered__E                                   
8001a2e0  ti_sdo_utils_NameServer_postInit__I                                       
8000d140  ti_sdo_utils_NameServer_registerRemoteDriver__E                           
80015be0  ti_sdo_utils_NameServer_removeLocal__I                                    
8000d3e0  ti_sdo_utils_NameServer_unregisterRemoteDriver__E                         
80037e48  ti_sysbios_BIOS_Module__state__V                                          
8001dca0  ti_sysbios_BIOS_RtsGateProxy_Handle__label__S                             
8001f080  ti_sysbios_BIOS_RtsGateProxy_enter__E                                     
8001f0a0  ti_sysbios_BIOS_RtsGateProxy_leave__E                                     
8001f4e0  ti_sysbios_BIOS_RtsGateProxy_query__E                                     
8001b3c0  ti_sysbios_BIOS_atExitFunc__I                                             
8001c9c0  ti_sysbios_BIOS_errorRaiseHook__I                                         
8001d9a0  ti_sysbios_BIOS_exitFunc__I                                               
8001f0c0  ti_sysbios_BIOS_exit__E                                                   
8001f0e0  ti_sysbios_BIOS_linkedWithIncorrectBootLibrary__E                         
8001f100  ti_sysbios_BIOS_nullFunc__I                                               
8001b440  ti_sysbios_BIOS_registerRTSLock__I                                        
8001ca20  ti_sysbios_BIOS_removeRTSLock__I                                          
8001d9e0  ti_sysbios_BIOS_rtsLock__I                                                
8001da20  ti_sysbios_BIOS_rtsUnlock__I                                              
8001f120  ti_sysbios_BIOS_setThreadType__E                                          
8001ca80  ti_sysbios_BIOS_startFunc__I                                              
8001f140  ti_sysbios_BIOS_start__E                                                  
8001f160  ti_sysbios_family_c62_TaskSupport_Module__startupDone__S                  
8001d4e0  ti_sysbios_family_c62_TaskSupport_buildTaskStack                          
8001f180  ti_sysbios_family_c62_TaskSupport_checkStack__E                           
8001f1a0  ti_sysbios_family_c62_TaskSupport_getStackAlignment__E                    
8001e7c0  ti_sysbios_family_c62_TaskSupport_glue                                    
80035820  ti_sysbios_family_c62_TaskSupport_stackAlignment__C                       
8001cae0  ti_sysbios_family_c62_TaskSupport_start__E                                
8001adc0  ti_sysbios_family_c62_TaskSupport_swap__E                                 
80035824  ti_sysbios_family_c64p_Exception_E_exceptionMax__C                        
80035af0  ti_sysbios_family_c64p_Exception_Module__id__C                            
80037d90  ti_sysbios_family_c64p_Exception_Module__state__V                         
8001a380  ti_sysbios_family_c64p_Exception_Module_startup__E                        
80012b00  ti_sysbios_family_c64p_Exception_dispatch__E                              
80035828  ti_sysbios_family_c64p_Exception_exceptionHook__C                         
8003582c  ti_sysbios_family_c64p_Exception_externalHook__C                          
80001e80  ti_sysbios_family_c64p_Exception_handler__I                               
8000e9c0  ti_sysbios_family_c64p_Exception_internalHandler__I                       
80035830  ti_sysbios_family_c64p_Exception_internalHook__C                          
80035834  ti_sysbios_family_c64p_Exception_nmiHook__C                               
80035af2  ti_sysbios_family_c64p_Exception_useInternalBuffer__C                     
80038400  ti_sysbios_family_c64p_Hwi0                                               
80035838  ti_sysbios_family_c64p_Hwi_E_alreadyDefined__C                            
8003583c  ti_sysbios_family_c64p_Hwi_E_handleNotFound__C                            
80035840  ti_sysbios_family_c64p_Hwi_E_invalidIntNum__C                             
80035844  ti_sysbios_family_c64p_Hwi_INTRMUX1Address__C                             
80016760  ti_sysbios_family_c64p_Hwi_Instance_finalize__E                           
80015d00  ti_sysbios_family_c64p_Hwi_Instance_init__E                               
80035848  ti_sysbios_family_c64p_Hwi_LD_end__C                                      
8003584c  ti_sysbios_family_c64p_Hwi_LM_begin__C                                    
80035850  ti_sysbios_family_c64p_Hwi_Module__diagsEnabled__C                        
80035854  ti_sysbios_family_c64p_Hwi_Module__diagsIncluded__C                       
80035858  ti_sysbios_family_c64p_Hwi_Module__diagsMask__C                           
80035af4  ti_sysbios_family_c64p_Hwi_Module__id__C                                  
80035af6  ti_sysbios_family_c64p_Hwi_Module__loggerDefined__C                       
8003585c  ti_sysbios_family_c64p_Hwi_Module__loggerFxn1__C                          
80035860  ti_sysbios_family_c64p_Hwi_Module__loggerFxn8__C                          
80035864  ti_sysbios_family_c64p_Hwi_Module__loggerObj__C                           
800380b0  ti_sysbios_family_c64p_Hwi_Module__root__V                                
8001f1c0  ti_sysbios_family_c64p_Hwi_Module__startupDone__F                         
8001f1c0  ti_sysbios_family_c64p_Hwi_Module__startupDone__S                         
80037b30  ti_sysbios_family_c64p_Hwi_Module__state__V                               
80013820  ti_sysbios_family_c64p_Hwi_Module_startup__E                              
8003520c  ti_sysbios_family_c64p_Hwi_Object__DESC__C                                
80034c50  ti_sysbios_family_c64p_Hwi_Object__PARAMS__C                              
8001cb40  ti_sysbios_family_c64p_Hwi_Object__delete__S                              
80037ef8  ti_sysbios_family_c64p_Hwi_Object__table__V                               
8001f1e0  ti_sysbios_family_c64p_Hwi_clearInterrupt__E                              
80018f60  ti_sysbios_family_c64p_Hwi_create                                         
8001da60  ti_sysbios_family_c64p_Hwi_disableInterrupt__E                            
80010100  ti_sysbios_family_c64p_Hwi_dispatchAlways                                 
8001a420  ti_sysbios_family_c64p_Hwi_dispatchC__I                                   
8000e060  ti_sysbios_family_c64p_Hwi_dispatchCore__I                                
8001daa0  ti_sysbios_family_c64p_Hwi_enableInterrupt__E                             
8001a4c0  ti_sysbios_family_c64p_Hwi_getStackInfo__E                                
80038400  ti_sysbios_family_c64p_Hwi_int0                                           
80038420  ti_sysbios_family_c64p_Hwi_int1                                           
80038540  ti_sysbios_family_c64p_Hwi_int10                                          
80038560  ti_sysbios_family_c64p_Hwi_int11                                          
80038580  ti_sysbios_family_c64p_Hwi_int12                                          
800385a0  ti_sysbios_family_c64p_Hwi_int13                                          
800385c0  ti_sysbios_family_c64p_Hwi_int14                                          
800385e0  ti_sysbios_family_c64p_Hwi_int15                                          
80038440  ti_sysbios_family_c64p_Hwi_int2                                           
80038460  ti_sysbios_family_c64p_Hwi_int3                                           
80038480  ti_sysbios_family_c64p_Hwi_int4                                           
800384a0  ti_sysbios_family_c64p_Hwi_int5                                           
800384c0  ti_sysbios_family_c64p_Hwi_int6                                           
800384e0  ti_sysbios_family_c64p_Hwi_int7                                           
80038500  ti_sysbios_family_c64p_Hwi_int8                                           
80038520  ti_sysbios_family_c64p_Hwi_int9                                           
80019ca0  ti_sysbios_family_c64p_Hwi_plug__E                                        
8000db80  ti_sysbios_family_c64p_Hwi_reconfig__E                                    
8001f200  ti_sysbios_family_c64p_Hwi_startup__E                                     
8001c420  ti_sysbios_family_c64p_Hwi_switchAndDispatch__I                           
8001f220  ti_sysbios_family_c64p_Hwi_switchFromBootStack__E                         
8001f240  ti_sysbios_family_c64p_Hwi_unPluggedInterrupt__I                          
8001f260  ti_sysbios_family_c64p_TimestampProvider_Module_startup__E                
8001f280  ti_sysbios_family_c64p_TimestampProvider_get32__E                         
8001f2a0  ti_sysbios_family_c64p_TimestampProvider_get64__E                         
8001f2c0  ti_sysbios_family_c64p_tci6488_TimerSupport_enable__E                     
80035868  ti_sysbios_family_c66_Cache_E_invalidL1CacheSize__C                       
8003586c  ti_sysbios_family_c66_Cache_E_invalidL2CacheSize__C                       
80035af8  ti_sysbios_family_c66_Cache_Module__id__C                                 
8001cba0  ti_sysbios_family_c66_Cache_Module_startup__E                             
8001f2e0  ti_sysbios_family_c66_Cache_RTSSynchInv__I                                
8001f300  ti_sysbios_family_c66_Cache_RTSSynchWbInv__I                              
8001f320  ti_sysbios_family_c66_Cache_RTSSynchWb__I                                 
80035870  ti_sysbios_family_c66_Cache_atomicBlockSize__C                            
80012180  ti_sysbios_family_c66_Cache_block__I                                      
80012320  ti_sysbios_family_c66_Cache_getL2InitSize__I                              
8001b4c0  ti_sysbios_family_c66_Cache_invL1pAll__E                                  
8001f340  ti_sysbios_family_c66_Cache_inv__E                                        
00008000  ti_sysbios_family_c66_Cache_l1dSize                                       
00008000  ti_sysbios_family_c66_Cache_l1pSize                                       
00000000  ti_sysbios_family_c66_Cache_l2Size                                        
80034278  ti_sysbios_family_c66_Cache_marvalues__C                                  
80035afa  ti_sysbios_family_c66_Cache_registerRTSSynch__C                           
8000a820  ti_sysbios_family_c66_Cache_startup__I                                    
8001f360  ti_sysbios_family_c66_Cache_wait__E                                       
8001f380  ti_sysbios_family_c66_Cache_wbInv__E                                      
8001f3a0  ti_sysbios_family_c66_Cache_wb__E                                         
8001c480  ti_sysbios_family_xxx_Hwi_switchAndRunFunc                                
8001dae0  ti_sysbios_gates_GateAll_Handle__label__S                                 
8001f3c0  ti_sysbios_gates_GateAll_Instance_init__E                                 
80034edc  ti_sysbios_gates_GateAll_Module__FXNS__C                                  
800380b8  ti_sysbios_gates_GateAll_Module__root__V                                  
8003522c  ti_sysbios_gates_GateAll_Object__DESC__C                                  
800354ac  ti_sysbios_gates_GateAll_Object__PARAMS__C                                
8001b540  ti_sysbios_gates_GateAll_Object__create__S                                
8001db20  ti_sysbios_gates_GateAll_Object__delete__S                                
80037fc8  ti_sysbios_gates_GateAll_Object__table__V                                 
8001cc00  ti_sysbios_gates_GateAll_enter__E                                         
80019020  ti_sysbios_gates_GateAll_leave__E                                         
8001f3e0  ti_sysbios_gates_GateAll_query__E                                         
8001db60  ti_sysbios_gates_GateHwi_Handle__label__S                                 
8001f400  ti_sysbios_gates_GateHwi_Instance_init__E                                 
80034f00  ti_sysbios_gates_GateHwi_Module__FXNS__C                                  
800380c0  ti_sysbios_gates_GateHwi_Module__root__V                                  
8003524c  ti_sysbios_gates_GateHwi_Object__DESC__C                                  
800354c4  ti_sysbios_gates_GateHwi_Object__PARAMS__C                                
8001b5c0  ti_sysbios_gates_GateHwi_Object__create__S                                
8001dba0  ti_sysbios_gates_GateHwi_Object__delete__S                                
80038178  ti_sysbios_gates_GateHwi_Object__table__V                                 
8001f420  ti_sysbios_gates_GateHwi_enter__E                                         
8001f440  ti_sysbios_gates_GateHwi_leave__E                                         
8001f460  ti_sysbios_gates_GateHwi_query__E                                         
80035874  ti_sysbios_gates_GateMutexPri_A_badContext__C                             
80035878  ti_sysbios_gates_GateMutexPri_A_enterTaskDisabled__C                      
8001dbe0  ti_sysbios_gates_GateMutexPri_Handle__label__S                            
8003587c  ti_sysbios_gates_GateMutexPri_Instance_State_pendQ__O                     
8001f480  ti_sysbios_gates_GateMutexPri_Instance_finalize__E                        
8001dc20  ti_sysbios_gates_GateMutexPri_Instance_init__E                            
80034f24  ti_sysbios_gates_GateMutexPri_Module__FXNS__C                             
80035880  ti_sysbios_gates_GateMutexPri_Module__diagsEnabled__C                     
80035884  ti_sysbios_gates_GateMutexPri_Module__diagsIncluded__C                    
80035888  ti_sysbios_gates_GateMutexPri_Module__diagsMask__C                        
80035afc  ti_sysbios_gates_GateMutexPri_Module__id__C                               
800380c8  ti_sysbios_gates_GateMutexPri_Module__root__V                             
8003526c  ti_sysbios_gates_GateMutexPri_Object__DESC__C                             
800354dc  ti_sysbios_gates_GateMutexPri_Object__PARAMS__C                           
8001b640  ti_sysbios_gates_GateMutexPri_Object__create__S                           
8001cc60  ti_sysbios_gates_GateMutexPri_Object__delete__S                           
80037f10  ti_sysbios_gates_GateMutexPri_Object__table__V                            
8001ccc0  ti_sysbios_gates_GateMutexPri_construct                                   
8001dc60  ti_sysbios_gates_GateMutexPri_destruct                                    
80008380  ti_sysbios_gates_GateMutexPri_enter__E                                    
80016860  ti_sysbios_gates_GateMutexPri_leave__E                                    
8001f4a0  ti_sysbios_gates_GateMutexPri_query__E                                    
8003588c  ti_sysbios_gates_GateMutex_A_badContext__C                                
8001dca0  ti_sysbios_gates_GateMutex_Handle__label__S                               
80035890  ti_sysbios_gates_GateMutex_Instance_State_sem__O                          
8001f4c0  ti_sysbios_gates_GateMutex_Instance_finalize__E                           
8001dce0  ti_sysbios_gates_GateMutex_Instance_init__E                               
80034f48  ti_sysbios_gates_GateMutex_Module__FXNS__C                                
80035894  ti_sysbios_gates_GateMutex_Module__diagsEnabled__C                        
80035898  ti_sysbios_gates_GateMutex_Module__diagsIncluded__C                       
8003589c  ti_sysbios_gates_GateMutex_Module__diagsMask__C                           
80035afe  ti_sysbios_gates_GateMutex_Module__id__C                                  
800380d0  ti_sysbios_gates_GateMutex_Module__root__V                                
8003528c  ti_sysbios_gates_GateMutex_Object__DESC__C                                
800354f4  ti_sysbios_gates_GateMutex_Object__PARAMS__C                              
8001b6c0  ti_sysbios_gates_GateMutex_Object__create__S                              
8001cd20  ti_sysbios_gates_GateMutex_Object__delete__S                              
80037d50  ti_sysbios_gates_GateMutex_Object__table__V                               
80010cc0  ti_sysbios_gates_GateMutex_enter__E                                       
8001dd20  ti_sysbios_gates_GateMutex_leave__E                                       
8001f4e0  ti_sysbios_gates_GateMutex_query__E                                       
800358a0  ti_sysbios_gates_GateSwi_A_badContext__C                                  
8001dd60  ti_sysbios_gates_GateSwi_Handle__label__S                                 
8001f500  ti_sysbios_gates_GateSwi_Instance_init__E                                 
80034f6c  ti_sysbios_gates_GateSwi_Module__FXNS__C                                  
800358a4  ti_sysbios_gates_GateSwi_Module__diagsEnabled__C                          
800358a8  ti_sysbios_gates_GateSwi_Module__diagsIncluded__C                         
800358ac  ti_sysbios_gates_GateSwi_Module__diagsMask__C                             
80035b00  ti_sysbios_gates_GateSwi_Module__id__C                                    
800380d8  ti_sysbios_gates_GateSwi_Module__root__V                                  
800352ac  ti_sysbios_gates_GateSwi_Object__DESC__C                                  
8003550c  ti_sysbios_gates_GateSwi_Object__PARAMS__C                                
8001b740  ti_sysbios_gates_GateSwi_Object__create__S                                
8001dda0  ti_sysbios_gates_GateSwi_Object__delete__S                                
80038010  ti_sysbios_gates_GateSwi_Object__table__V                                 
80014b40  ti_sysbios_gates_GateSwi_enter__E                                         
8001a560  ti_sysbios_gates_GateSwi_leave__E                                         
8001f520  ti_sysbios_gates_GateSwi_query__E                                         
8001f340  ti_sysbios_hal_Cache_CacheProxy_inv__E                                    
8001f360  ti_sysbios_hal_Cache_CacheProxy_wait__E                                   
8001f380  ti_sysbios_hal_Cache_CacheProxy_wbInv__E                                  
8001f3a0  ti_sysbios_hal_Cache_CacheProxy_wb__E                                     
8001f340  ti_sysbios_hal_Cache_inv__E                                               
8001f360  ti_sysbios_hal_Cache_wait__E                                              
8001f380  ti_sysbios_hal_Cache_wbInv__E                                             
8001f3a0  ti_sysbios_hal_Cache_wb__E                                                
800358b0  ti_sysbios_hal_Hwi_E_stackOverflow__C                                     
8001f1c0  ti_sysbios_hal_Hwi_HwiProxy_Module__startupDone__S                        
8001f1e0  ti_sysbios_hal_Hwi_HwiProxy_clearInterrupt__E                             
8001f540  ti_sysbios_hal_Hwi_HwiProxy_create                                        
8001f560  ti_sysbios_hal_Hwi_HwiProxy_delete                                        
8001da60  ti_sysbios_hal_Hwi_HwiProxy_disableInterrupt__E                           
8001daa0  ti_sysbios_hal_Hwi_HwiProxy_enableInterrupt__E                            
8001a4c0  ti_sysbios_hal_Hwi_HwiProxy_getStackInfo__E                               
8001f200  ti_sysbios_hal_Hwi_HwiProxy_startup__E                                    
8001f220  ti_sysbios_hal_Hwi_HwiProxy_switchFromBootStack__E                        
8001f580  ti_sysbios_hal_Hwi_Instance_finalize__E                                   
8001dde0  ti_sysbios_hal_Hwi_Instance_init__E                                       
80035b02  ti_sysbios_hal_Hwi_Module__id__C                                          
800380e0  ti_sysbios_hal_Hwi_Module__root__V                                        
8001f5a0  ti_sysbios_hal_Hwi_Module_startup__E                                      
800352cc  ti_sysbios_hal_Hwi_Object__DESC__C                                        
80034d30  ti_sysbios_hal_Hwi_Object__PARAMS__C                                      
8001cd80  ti_sysbios_hal_Hwi_Object__delete__S                                      
800380e8  ti_sysbios_hal_Hwi_Object__table__V                                       
8001f5c0  ti_sysbios_hal_Hwi_Params__init__S                                        
8001b7c0  ti_sysbios_hal_Hwi_checkStack                                             
8001f1e0  ti_sysbios_hal_Hwi_clearInterrupt__E                                      
800190e0  ti_sysbios_hal_Hwi_create                                                 
8001f5e0  ti_sysbios_hal_Hwi_delete                                                 
8001da60  ti_sysbios_hal_Hwi_disableInterrupt__E                                    
8001daa0  ti_sysbios_hal_Hwi_enableInterrupt__E                                     
8001a4c0  ti_sysbios_hal_Hwi_getStackInfo__E                                        
8001b840  ti_sysbios_hal_Hwi_initStack                                              
8001f200  ti_sysbios_hal_Hwi_startup__E                                             
8001f220  ti_sysbios_hal_Hwi_switchFromBootStack__E                                 
800358b4  ti_sysbios_heaps_HeapMem_A_align__C                                       
800358b8  ti_sysbios_heaps_HeapMem_A_heapSize__C                                    
800358bc  ti_sysbios_heaps_HeapMem_A_invalidFree__C                                 
800358c0  ti_sysbios_heaps_HeapMem_A_zeroBlock__C                                   
800358c4  ti_sysbios_heaps_HeapMem_E_memory__C                                      
8001de20  ti_sysbios_heaps_HeapMem_Handle__label__S                                 
8001fd60  ti_sysbios_heaps_HeapMem_Instance_State_0_buf__A                          
8000be40  ti_sysbios_heaps_HeapMem_Instance_init__E                                 
8001dca0  ti_sysbios_heaps_HeapMem_Module_GateProxy_Handle__label__S                
8001f600  ti_sysbios_heaps_HeapMem_Module_GateProxy_enter__E                        
8001f620  ti_sysbios_heaps_HeapMem_Module_GateProxy_leave__E                        
8001f4e0  ti_sysbios_heaps_HeapMem_Module_GateProxy_query__E                        
80034dd4  ti_sysbios_heaps_HeapMem_Module__FXNS__C                                  
800358c8  ti_sysbios_heaps_HeapMem_Module__diagsEnabled__C                          
800358cc  ti_sysbios_heaps_HeapMem_Module__diagsIncluded__C                         
800358d0  ti_sysbios_heaps_HeapMem_Module__diagsMask__C                             
800358d4  ti_sysbios_heaps_HeapMem_Module__gateObj__C                               
80035b04  ti_sysbios_heaps_HeapMem_Module__id__C                                    
800380f0  ti_sysbios_heaps_HeapMem_Module__root__V                                  
800352ec  ti_sysbios_heaps_HeapMem_Object__DESC__C                                  
80034f90  ti_sysbios_heaps_HeapMem_Object__PARAMS__C                                
800358d8  ti_sysbios_heaps_HeapMem_Object__count__C                                 
8001b8c0  ti_sysbios_heaps_HeapMem_Object__create__S                                
8001de60  ti_sysbios_heaps_HeapMem_Object__delete__S                                
8001dea0  ti_sysbios_heaps_HeapMem_Object__get__S                                   
80037f28  ti_sysbios_heaps_HeapMem_Object__table__V                                 
80004ea0  ti_sysbios_heaps_HeapMem_allocUnprotected__E                              
80017e40  ti_sysbios_heaps_HeapMem_alloc__E                                         
80005ac0  ti_sysbios_heaps_HeapMem_freeUnprotected__E                               
8001cde0  ti_sysbios_heaps_HeapMem_free__E                                          
800191a0  ti_sysbios_heaps_HeapMem_getStats__E                                      
8001b940  ti_sysbios_heaps_HeapMem_init__I                                          
8001f640  ti_sysbios_heaps_HeapMem_isBlocking__E                                    
800358dc  ti_sysbios_heaps_HeapMem_reqAlign__C                                      
800358e0  ti_sysbios_knl_Clock_LM_begin__C                                          
800358e4  ti_sysbios_knl_Clock_LM_tick__C                                           
800358e8  ti_sysbios_knl_Clock_LW_delayed__C                                        
800358ec  ti_sysbios_knl_Clock_Module_State_clockQ__O                               
800358f0  ti_sysbios_knl_Clock_Module__diagsEnabled__C                              
800358f4  ti_sysbios_knl_Clock_Module__diagsIncluded__C                             
800358f8  ti_sysbios_knl_Clock_Module__diagsMask__C                                 
80035b06  ti_sysbios_knl_Clock_Module__id__C                                        
80035b08  ti_sysbios_knl_Clock_Module__loggerDefined__C                             
800358fc  ti_sysbios_knl_Clock_Module__loggerFxn1__C                                
80035900  ti_sysbios_knl_Clock_Module__loggerFxn2__C                                
80035904  ti_sysbios_knl_Clock_Module__loggerObj__C                                 
80037df0  ti_sysbios_knl_Clock_Module__state__V                                     
8001ce40  ti_sysbios_knl_Clock_Module_startup__E                                    
8001f880  ti_sysbios_knl_Clock_TimerProxy_Module__startupDone__S                    
8001f660  ti_sysbios_knl_Clock_TimerProxy_getMaxTicks__E                            
800180e0  ti_sysbios_knl_Clock_TimerProxy_startup__E                                
8001b9c0  ti_sysbios_knl_Clock_doTick__I                                            
80019260  ti_sysbios_knl_Clock_logTick__E                                           
80035908  ti_sysbios_knl_Clock_tickPeriod__C                                        
8000c3e0  ti_sysbios_knl_Clock_workFunc__E                                          
80035910  ti_sysbios_knl_Idle_funcList__A                                           
800355a0  ti_sysbios_knl_Idle_funcList__C                                           
8001f680  ti_sysbios_knl_Idle_loop__E                                               
8001ba40  ti_sysbios_knl_Idle_run__E                                                
8001f6a0  ti_sysbios_knl_Queue_Instance_init__E                                     
800380f8  ti_sysbios_knl_Queue_Module__root__V                                      
8003530c  ti_sysbios_knl_Queue_Object__DESC__C                                      
80035524  ti_sysbios_knl_Queue_Object__PARAMS__C                                    
8001f6c0  ti_sysbios_knl_Queue_Object__get__S                                       
8001cea0  ti_sysbios_knl_Queue_construct                                            
8001f6e0  ti_sysbios_knl_Queue_destruct                                             
8001f700  ti_sysbios_knl_Queue_empty__E                                             
8003590c  ti_sysbios_knl_Semaphore_A_badContext__C                                  
80035914  ti_sysbios_knl_Semaphore_A_noEvents__C                                    
80035918  ti_sysbios_knl_Semaphore_A_overflow__C                                    
8003591c  ti_sysbios_knl_Semaphore_A_pendTaskDisabled__C                            
80035920  ti_sysbios_knl_Semaphore_Instance_State_pendQ__O                          
8001f720  ti_sysbios_knl_Semaphore_Instance_finalize__E                             
80014c80  ti_sysbios_knl_Semaphore_Instance_init__E                                 
80035924  ti_sysbios_knl_Semaphore_LM_pend__C                                       
80035928  ti_sysbios_knl_Semaphore_LM_post__C                                       
8003592c  ti_sysbios_knl_Semaphore_Module__diagsEnabled__C                          
80035930  ti_sysbios_knl_Semaphore_Module__diagsIncluded__C                         
80035934  ti_sysbios_knl_Semaphore_Module__diagsMask__C                             
80035b0a  ti_sysbios_knl_Semaphore_Module__id__C                                    
80035b0c  ti_sysbios_knl_Semaphore_Module__loggerDefined__C                         
80035938  ti_sysbios_knl_Semaphore_Module__loggerFxn2__C                            
8003593c  ti_sysbios_knl_Semaphore_Module__loggerFxn4__C                            
80035940  ti_sysbios_knl_Semaphore_Module__loggerObj__C                             
80038100  ti_sysbios_knl_Semaphore_Module__root__V                                  
8003532c  ti_sysbios_knl_Semaphore_Object__DESC__C                                  
80034fb4  ti_sysbios_knl_Semaphore_Object__PARAMS__C                                
8001cf00  ti_sysbios_knl_Semaphore_Object__delete__S                                
8001f740  ti_sysbios_knl_Semaphore_Params__init__S                                  
8001cf60  ti_sysbios_knl_Semaphore_construct                                        
8001bac0  ti_sysbios_knl_Semaphore_create                                           
8001f760  ti_sysbios_knl_Semaphore_delete                                           
8001dee0  ti_sysbios_knl_Semaphore_destruct                                         
8001bb40  ti_sysbios_knl_Semaphore_pendTimeout__I                                   
80002d40  ti_sysbios_knl_Semaphore_pend__E                                          
8000e2c0  ti_sysbios_knl_Semaphore_post__E                                          
80035944  ti_sysbios_knl_Swi_A_badPriority__C                                       
80017f20  ti_sysbios_knl_Swi_Instance_finalize__E                                   
80012e00  ti_sysbios_knl_Swi_Instance_init__E                                       
80035948  ti_sysbios_knl_Swi_LD_end__C                                              
8003594c  ti_sysbios_knl_Swi_LM_begin__C                                            
80035950  ti_sysbios_knl_Swi_LM_post__C                                             
800378b0  ti_sysbios_knl_Swi_Module_State_0_readyQ__A                               
80035954  ti_sysbios_knl_Swi_Module__diagsEnabled__C                                
80035958  ti_sysbios_knl_Swi_Module__diagsIncluded__C                               
8003595c  ti_sysbios_knl_Swi_Module__diagsMask__C                                   
80035b0e  ti_sysbios_knl_Swi_Module__id__C                                          
80035b10  ti_sysbios_knl_Swi_Module__loggerDefined__C                               
80035960  ti_sysbios_knl_Swi_Module__loggerFxn1__C                                  
80035964  ti_sysbios_knl_Swi_Module__loggerFxn4__C                                  
80035968  ti_sysbios_knl_Swi_Module__loggerObj__C                                   
80038108  ti_sysbios_knl_Swi_Module__root__V                                        
80037ed8  ti_sysbios_knl_Swi_Module__state__V                                       
8001cfc0  ti_sysbios_knl_Swi_Module_startup__E                                      
8003534c  ti_sysbios_knl_Swi_Object__DESC__C                                        
80034dfc  ti_sysbios_knl_Swi_Object__PARAMS__C                                      
8003596c  ti_sysbios_knl_Swi_Object__count__C                                       
8001df20  ti_sysbios_knl_Swi_Object__get__S                                         
80037dc0  ti_sysbios_knl_Swi_Object__table__V                                       
8001f780  ti_sysbios_knl_Swi_Params__init__S                                        
8001a600  ti_sysbios_knl_Swi_construct                                              
8001df60  ti_sysbios_knl_Swi_destruct                                               
8001f7a0  ti_sysbios_knl_Swi_disable__E                                             
80013980  ti_sysbios_knl_Swi_post__E                                                
80015e20  ti_sysbios_knl_Swi_restoreHwi__E                                          
80018000  ti_sysbios_knl_Swi_runLoop__I                                             
8000f4c0  ti_sysbios_knl_Swi_run__I                                                 
80019320  ti_sysbios_knl_Swi_schedule__I                                            
8001bbc0  ti_sysbios_knl_Swi_startup__E                                             
80035970  ti_sysbios_knl_Task_A_badPriority__C                                      
80035974  ti_sysbios_knl_Task_A_badTaskState__C                                     
80035978  ti_sysbios_knl_Task_A_badThreadType__C                                    
8003597c  ti_sysbios_knl_Task_A_badTimeout__C                                       
80035980  ti_sysbios_knl_Task_A_noPendElem__C                                       
80035984  ti_sysbios_knl_Task_A_sleepTaskDisabled__C                                
80035988  ti_sysbios_knl_Task_E_spOutOfBounds__C                                    
8003598c  ti_sysbios_knl_Task_E_stackOverflow__C                                    
8002c560  ti_sysbios_knl_Task_Instance_State_0_stack__A                             
800070c0  ti_sysbios_knl_Task_Instance_finalize__E                                  
8000a460  ti_sysbios_knl_Task_Instance_init__E                                      
80035990  ti_sysbios_knl_Task_LD_block__C                                           
80035994  ti_sysbios_knl_Task_LD_exit__C                                            
80035998  ti_sysbios_knl_Task_LD_ready__C                                           
8003599c  ti_sysbios_knl_Task_LM_setPri__C                                          
800359a0  ti_sysbios_knl_Task_LM_sleep__C                                           
800359a4  ti_sysbios_knl_Task_LM_switch__C                                          
80038180  ti_sysbios_knl_Task_Module_State_0_idleTask__A                            
80037930  ti_sysbios_knl_Task_Module_State_0_readyQ__A                              
800359a8  ti_sysbios_knl_Task_Module_State_inactiveQ__O                             
800359ac  ti_sysbios_knl_Task_Module__diagsEnabled__C                               
800359b0  ti_sysbios_knl_Task_Module__diagsIncluded__C                              
800359b4  ti_sysbios_knl_Task_Module__diagsMask__C                                  
80035b12  ti_sysbios_knl_Task_Module__id__C                                         
80035b14  ti_sysbios_knl_Task_Module__loggerDefined__C                              
800359b8  ti_sysbios_knl_Task_Module__loggerFxn2__C                                 
800359bc  ti_sysbios_knl_Task_Module__loggerFxn4__C                                 
800359c0  ti_sysbios_knl_Task_Module__loggerObj__C                                  
80038110  ti_sysbios_knl_Task_Module__root__V                                       
80037d08  ti_sysbios_knl_Task_Module__state__V                                      
8000b860  ti_sysbios_knl_Task_Module_startup__E                                     
8003536c  ti_sysbios_knl_Task_Object__DESC__C                                       
80034a7c  ti_sysbios_knl_Task_Object__PARAMS__C                                     
800359c4  ti_sysbios_knl_Task_Object__count__C                                      
8001dfa0  ti_sysbios_knl_Task_Object__get__S                                        
80037c08  ti_sysbios_knl_Task_Object__table__V                                      
8001f160  ti_sysbios_knl_Task_SupportProxy_Module__startupDone__S                   
8001f180  ti_sysbios_knl_Task_SupportProxy_checkStack__E                            
8001f1a0  ti_sysbios_knl_Task_SupportProxy_getStackAlignment__E                     
8001cae0  ti_sysbios_knl_Task_SupportProxy_start__E                                 
8001adc0  ti_sysbios_knl_Task_SupportProxy_swap__E                                  
800359c8  ti_sysbios_knl_Task_allBlockedFunc__C                                     
800193e0  ti_sysbios_knl_Task_allBlockedFunction__I                                 
80014dc0  ti_sysbios_knl_Task_blockI__E                                             
80011420  ti_sysbios_knl_Task_checkStacks__E                                        
800194a0  ti_sysbios_knl_Task_create                                                
800359cc  ti_sysbios_knl_Task_defaultStackHeap__C                                   
800359d0  ti_sysbios_knl_Task_defaultStackSize__C                                   
8001f7c0  ti_sysbios_knl_Task_disable__E                                            
8001d020  ti_sysbios_knl_Task_enter__I                                              
80012f80  ti_sysbios_knl_Task_exit__E                                               
800359d4  ti_sysbios_knl_Task_numConstructedTasks__C                                
80014f00  ti_sysbios_knl_Task_postInit__I                                           
8001bc40  ti_sysbios_knl_Task_restore__E                                            
800124c0  ti_sysbios_knl_Task_schedule__I                                           
80009080  ti_sysbios_knl_Task_setPri__E                                             
8001dfe0  ti_sysbios_knl_Task_sleepTimeout__I                                       
80008800  ti_sysbios_knl_Task_sleep__E                                              
80013100  ti_sysbios_knl_Task_startCore__E                                          
8001f7e0  ti_sysbios_knl_Task_startup__E                                            
80016960  ti_sysbios_knl_Task_unblockI__E                                           
8001e020  ti_sysbios_syncs_SyncSem_Handle__label__S                                 
8001f800  ti_sysbios_syncs_SyncSem_Instance_finalize__E                             
80013280  ti_sysbios_syncs_SyncSem_Instance_init__E                                 
80034fd8  ti_sysbios_syncs_SyncSem_Module__FXNS__C                                  
800359d8  ti_sysbios_syncs_SyncSem_Module__diagsEnabled__C                          
800359dc  ti_sysbios_syncs_SyncSem_Module__diagsIncluded__C                         
800359e0  ti_sysbios_syncs_SyncSem_Module__diagsMask__C                             
80035b16  ti_sysbios_syncs_SyncSem_Module__id__C                                    
80038118  ti_sysbios_syncs_SyncSem_Module__root__V                                  
8003538c  ti_sysbios_syncs_SyncSem_Object__DESC__C                                  
80035448  ti_sysbios_syncs_SyncSem_Object__PARAMS__C                                
80019560  ti_sysbios_syncs_SyncSem_Object__create__S                                
8001d080  ti_sysbios_syncs_SyncSem_Object__delete__S                                
80019620  ti_sysbios_syncs_SyncSem_create                                           
8001f820  ti_sysbios_syncs_SyncSem_delete                                           
8001f840  ti_sysbios_syncs_SyncSem_query__E                                         
8001f860  ti_sysbios_syncs_SyncSem_signal__E                                        
8001bcc0  ti_sysbios_syncs_SyncSem_wait__E                                          
800359e4  ti_sysbios_timers_timer64_Timer_A_notAvailable__C                         
800359e8  ti_sysbios_timers_timer64_Timer_E_cannotSupport__C                        
80037568  ti_sysbios_timers_timer64_Timer_Module_State_0_device__A                  
800379b0  ti_sysbios_timers_timer64_Timer_Module_State_0_gctrl__A                   
80037a30  ti_sysbios_timers_timer64_Timer_Module_State_0_handles__A                 
80037ab0  ti_sysbios_timers_timer64_Timer_Module_State_0_intFreqs__A                
800359ec  ti_sysbios_timers_timer64_Timer_Module__diagsEnabled__C                   
800359f0  ti_sysbios_timers_timer64_Timer_Module__diagsIncluded__C                  
800359f4  ti_sysbios_timers_timer64_Timer_Module__diagsMask__C                      
80035b18  ti_sysbios_timers_timer64_Timer_Module__id__C                             
8001f880  ti_sysbios_timers_timer64_Timer_Module__startupDone__F                    
8001f880  ti_sysbios_timers_timer64_Timer_Module__startupDone__S                    
80037f40  ti_sysbios_timers_timer64_Timer_Module__state__V                          
80003480  ti_sysbios_timers_timer64_Timer_Module_startup__E                         
80037cb8  ti_sysbios_timers_timer64_Timer_Object__table__V                          
8001f2c0  ti_sysbios_timers_timer64_Timer_TimerSupportProxy_enable__E               
800359f8  ti_sysbios_timers_timer64_Timer_anyMaskHigh__C                            
800359fc  ti_sysbios_timers_timer64_Timer_anyMask__C                                
8000b240  ti_sysbios_timers_timer64_Timer_deviceConfig__I                           
80035a00  ti_sysbios_timers_timer64_Timer_freqDivisor__C                            
800115e0  ti_sysbios_timers_timer64_Timer_getFreq__E                                
8001f8a0  ti_sysbios_timers_timer64_Timer_getMaxTicks__E                            
80016a60  ti_sysbios_timers_timer64_Timer_initDevice__I                             
80035b36  ti_sysbios_timers_timer64_Timer_localTimerBaseId__C                       
80035a04  ti_sysbios_timers_timer64_Timer_numLocalTimers__C                         
80035a08  ti_sysbios_timers_timer64_Timer_numTimerDevices__C                        
8000f6e0  ti_sysbios_timers_timer64_Timer_setPeriodMicroSecs__E                     
800117a0  ti_sysbios_timers_timer64_Timer_start__E                                  
80035b1a  ti_sysbios_timers_timer64_Timer_startupNeeded__C                          
800180e0  ti_sysbios_timers_timer64_Timer_startup__E                                
8001a6a0  ti_sysbios_timers_timer64_Timer_stop__E                                   
80035b1c  ti_sysbios_timers_timer64_Timer_useTimer64pRegMap__C                      
80035a0c  ti_sysbios_xdcruntime_GateThreadSupport_Instance_State_gate__O            
8001f8c0  ti_sysbios_xdcruntime_GateThreadSupport_Instance_finalize__E              
8001f8e0  ti_sysbios_xdcruntime_GateThreadSupport_Instance_init__E                  
80038120  ti_sysbios_xdcruntime_GateThreadSupport_Module__root__V                   
800353ac  ti_sysbios_xdcruntime_GateThreadSupport_Object__DESC__C                   
8003553c  ti_sysbios_xdcruntime_GateThreadSupport_Object__PARAMS__C                 
8001d0e0  ti_sysbios_xdcruntime_GateThreadSupport_Object__delete__S                 
8001bd40  ti_sysbios_xdcruntime_GateThreadSupport_create                            
8001f900  ti_sysbios_xdcruntime_GateThreadSupport_enter__E                          
80016b60  ti_sysbios_xdcruntime_GateThreadSupport_leave__E                          
8001f4a0  ti_sysbios_xdcruntime_GateThreadSupport_query__E                          
80035a10  xdc_runtime_Assert_E_assertFailed__C                                      
800197a0  xdc_runtime_Assert_raise__I                                               
80035a14  xdc_runtime_Core_A_initializedParams__C                                   
80035a18  xdc_runtime_Core_Module__diagsEnabled__C                                  
80035a1c  xdc_runtime_Core_Module__diagsIncluded__C                                 
80035a20  xdc_runtime_Core_Module__diagsMask__C                                     
80035b1e  xdc_runtime_Core_Module__id__C                                            
8001bdc0  xdc_runtime_Core_assignLabel__I                                           
8001a740  xdc_runtime_Core_assignParams__I                                          
80012660  xdc_runtime_Core_constructObject__I                                       
8000ec00  xdc_runtime_Core_createObject__I                                          
80015040  xdc_runtime_Core_deleteObject__I                                          
80035a24  xdc_runtime_Error_E_memory__C                                             
80037eb8  xdc_runtime_Error_IgnoreBlock                                             
80035a28  xdc_runtime_Error_Module__diagsEnabled__C                                 
80035a2c  xdc_runtime_Error_Module__diagsIncluded__C                                
80035a30  xdc_runtime_Error_Module__diagsMask__C                                    
80035b20  xdc_runtime_Error_Module__loggerDefined__C                                
80035a34  xdc_runtime_Error_Module__loggerFxn8__C                                   
80035a38  xdc_runtime_Error_Module__loggerObj__C                                    
80037e6c  xdc_runtime_Error_Module__state__V                                        
8001e060  xdc_runtime_Error_check__E                                                
8001f920  xdc_runtime_Error_getSite__E                                              
8001e0a0  xdc_runtime_Error_init__E                                                 
80035b22  xdc_runtime_Error_maxDepth__C                                             
80010700  xdc_runtime_Error_policyDefault__E                                        
80035a3c  xdc_runtime_Error_policyFxn__C                                            
80035a40  xdc_runtime_Error_policy__C                                               
80016c60  xdc_runtime_Error_print__E                                                
80035a44  xdc_runtime_Error_raiseHook__C                                            
8001f940  xdc_runtime_Error_raiseX__E                                               
80019860  xdc_runtime_Error_setX__E                                                 
8001e0e0  xdc_runtime_GateNull_Handle__label__S                                     
80034ffc  xdc_runtime_GateNull_Module__FXNS__C                                      
80038128  xdc_runtime_GateNull_Module__root__V                                      
800353cc  xdc_runtime_GateNull_Object__DESC__C                                      
80035554  xdc_runtime_GateNull_Object__PARAMS__C                                    
8001e120  xdc_runtime_GateNull_Object__create__S                                    
8001e160  xdc_runtime_GateNull_Object__delete__S                                    
80038188  xdc_runtime_GateNull_Object__table__V                                     
8001f960  xdc_runtime_GateNull_enter__E                                             
8001f980  xdc_runtime_GateNull_leave__E                                             
8001f9a0  xdc_runtime_GateNull_query__E                                             
8001f9c0  xdc_runtime_Gate_enterSystem__E                                           
8001f9e0  xdc_runtime_Gate_leaveSystem__E                                           
80035a48  xdc_runtime_IFilterLogger_Interface__BASE__C                              
80035a4c  xdc_runtime_IGateProvider_Interface__BASE__C                              
80035a50  xdc_runtime_IHeap_Interface__BASE__C                                      
80035a54  xdc_runtime_ILogger_Interface__BASE__C                                    
80035a58  xdc_runtime_IModule_Interface__BASE__C                                    
80035a5c  xdc_runtime_Log_L_error__C                                                
80035a60  xdc_runtime_LoggerBuf_E_badLevel__C                                       
8001e1a0  xdc_runtime_LoggerBuf_Handle__label__S                                    
80030b08  xdc_runtime_LoggerBuf_Instance_State_0_entryArr__A                        
8001e1e0  xdc_runtime_LoggerBuf_Instance_finalize__E                                
8001be40  xdc_runtime_LoggerBuf_Instance_init__E                                    
8001db60  xdc_runtime_LoggerBuf_Module_GateProxy_Handle__label__S                   
8001fa40  xdc_runtime_LoggerBuf_Module_GateProxy_enter__E                           
8001fa60  xdc_runtime_LoggerBuf_Module_GateProxy_leave__E                           
8001f460  xdc_runtime_LoggerBuf_Module_GateProxy_query__E                           
80034b44  xdc_runtime_LoggerBuf_Module__FXNS__C                                     
80035a64  xdc_runtime_LoggerBuf_Module__gateObj__C                                  
80035b24  xdc_runtime_LoggerBuf_Module__id__C                                       
80038130  xdc_runtime_LoggerBuf_Module__root__V                                     
80038158  xdc_runtime_LoggerBuf_Module__state__V                                    
8001bec0  xdc_runtime_LoggerBuf_Module_startup__E                                   
800353ec  xdc_runtime_LoggerBuf_Object__DESC__C                                     
80034e24  xdc_runtime_LoggerBuf_Object__PARAMS__C                                   
80035a68  xdc_runtime_LoggerBuf_Object__count__C                                    
80019920  xdc_runtime_LoggerBuf_Object__create__S                                   
8001d140  xdc_runtime_LoggerBuf_Object__delete__S                                   
8001e220  xdc_runtime_LoggerBuf_Object__get__S                                      
80037e70  xdc_runtime_LoggerBuf_Object__table__V                                    
8001f280  xdc_runtime_LoggerBuf_TimestampProxy_get32__E                             
8001f2a0  xdc_runtime_LoggerBuf_TimestampProxy_get64__E                             
8001fa80  xdc_runtime_LoggerBuf_disable__E                                          
8001faa0  xdc_runtime_LoggerBuf_enable__E                                           
80035b26  xdc_runtime_LoggerBuf_filterByLevel__C                                    
8001bf40  xdc_runtime_LoggerBuf_filterOutEvent__I                                   
80015f40  xdc_runtime_LoggerBuf_getFilterLevel__E                                   
8001d1a0  xdc_runtime_LoggerBuf_reset__E                                            
80015180  xdc_runtime_LoggerBuf_setFilterLevel__E                                   
80035a6c  xdc_runtime_LoggerBuf_statusLogger__C                                     
8001e260  xdc_runtime_LoggerBuf_write0__E                                           
8001e2a0  xdc_runtime_LoggerBuf_write1__E                                           
8001e2e0  xdc_runtime_LoggerBuf_write2__E                                           
80010ea0  xdc_runtime_LoggerBuf_write4__E                                           
8000c6a0  xdc_runtime_LoggerBuf_write8__E                                           
8001db60  xdc_runtime_Main_Module_GateProxy_Handle__label__S                        
8001f460  xdc_runtime_Main_Module_GateProxy_query__E                                
80035b28  xdc_runtime_Main_Module__id__C                                            
8001de20  xdc_runtime_Memory_HeapProxy_Handle__label__S                             
8001fa00  xdc_runtime_Memory_HeapProxy_alloc__E                                     
8001fa20  xdc_runtime_Memory_HeapProxy_free__E                                      
80035b2a  xdc_runtime_Memory_Module__id__C                                          
80037e1c  xdc_runtime_Memory_Module__state__V                                       
80016d60  xdc_runtime_Memory_alloc__E                                               
8001fac0  xdc_runtime_Memory_calloc__E                                              
80035a70  xdc_runtime_Memory_defaultHeapInstance__C                                 
8001fae0  xdc_runtime_Memory_free__E                                                
8001fb00  xdc_runtime_Memory_getMaxDefaultTypeAlign__E                              
8001d200  xdc_runtime_Memory_valloc__E                                              
80038138  xdc_runtime_Registry_Module__state__V                                     
8001e320  xdc_runtime_Registry_findById__E                                          
8001fb20  xdc_runtime_Startup_Module__startupDone__S                                
80038140  xdc_runtime_Startup_Module__state__V                                      
00000001  xdc_runtime_Startup__EXECFXN__C                                           
00000001  xdc_runtime_Startup__RESETFXN__C                                          
80035a74  xdc_runtime_Startup_execImpl__C                                           
80016e60  xdc_runtime_Startup_exec__E                                               
8001fb40  xdc_runtime_Startup_exec__I                                               
800355a8  xdc_runtime_Startup_firstFxns__A                                          
800355b0  xdc_runtime_Startup_firstFxns__C                                          
800355b8  xdc_runtime_Startup_lastFxns__C                                           
80035a78  xdc_runtime_Startup_maxPasses__C                                          
8000a820  xdc_runtime_Startup_reset__I                                              
8001fb60  xdc_runtime_Startup_rtsDone__E                                            
80035048  xdc_runtime_Startup_sfxnRts__A                                            
80035a7c  xdc_runtime_Startup_sfxnRts__C                                            
80034ac0  xdc_runtime_Startup_sfxnTab__A                                            
80035a80  xdc_runtime_Startup_sfxnTab__C                                            
8000e520  xdc_runtime_Startup_startMods__I                                          
80030d08  xdc_runtime_SysMin_Module_State_0_outbuf__A                               
8003801c  xdc_runtime_SysMin_Module__state__V                                       
8001e360  xdc_runtime_SysMin_Module_startup__E                                      
800199e0  xdc_runtime_SysMin_abort__E                                               
80035a84  xdc_runtime_SysMin_bufSize__C                                             
8001e3a0  xdc_runtime_SysMin_exit__E                                                
80035b2c  xdc_runtime_SysMin_flushAtExit__C                                         
80019aa0  xdc_runtime_SysMin_flush__E                                               
80035a88  xdc_runtime_SysMin_outputFunc__C                                          
8001bfc0  xdc_runtime_SysMin_output__I                                              
8001a7e0  xdc_runtime_SysMin_putch__E                                               
8001fb80  xdc_runtime_SysMin_ready__E                                               
8001db60  xdc_runtime_System_Module_GateProxy_Handle__label__S                      
8001fba0  xdc_runtime_System_Module_GateProxy_enter__E                              
8001fbc0  xdc_runtime_System_Module_GateProxy_leave__E                              
8001f460  xdc_runtime_System_Module_GateProxy_query__E                              
80037fd8  xdc_runtime_System_Module_State_0_atexitHandlers__A                       
80035a8c  xdc_runtime_System_Module__gateObj__C                                     
80038148  xdc_runtime_System_Module__state__V                                       
8001fbe0  xdc_runtime_System_Module_startup__E                                      
800199e0  xdc_runtime_System_SupportProxy_abort__E                                  
8001e3a0  xdc_runtime_System_SupportProxy_exit__E                                   
80019aa0  xdc_runtime_System_SupportProxy_flush__E                                  
8001a7e0  xdc_runtime_System_SupportProxy_putch__E                                  
8001fb80  xdc_runtime_System_SupportProxy_ready__E                                  
80035a90  xdc_runtime_System_abortFxn__C                                            
8001e7e0  xdc_runtime_System_abortStd__E                                            
8001e3e0  xdc_runtime_System_abort__E                                               
8001e420  xdc_runtime_System_aprintf__E                                             
8001c0c0  xdc_runtime_System_aprintf_va__E                                          
8001c0c0  xdc_runtime_System_aprintf_va__F                                          
8001c040  xdc_runtime_System_atexit__E                                              
8001c0c0  xdc_runtime_System_avprintf__E                                            
800015e0  xdc_runtime_System_doPrint__I                                             
80035a94  xdc_runtime_System_exitFxn__C                                             
80017200  xdc_runtime_System_exitStd__E                                             
8001e460  xdc_runtime_System_exit__E                                                
80035a98  xdc_runtime_System_extendFxn__C                                           
80019aa0  xdc_runtime_System_flush__E                                               
8001a880  xdc_runtime_System_formatNum__I                                           
80035a9c  xdc_runtime_System_maxAtexitHandlers__C                                   
8000ee40  xdc_runtime_System_printfExtend__I                                        
8001e4a0  xdc_runtime_System_printf__E                                              
8001c1c0  xdc_runtime_System_printf_va__E                                           
8001c1c0  xdc_runtime_System_printf_va__F                                           
8001c140  xdc_runtime_System_processAtExit__E                                       
8001a920  xdc_runtime_System_putchar__I                                             
8001fc00  xdc_runtime_System_snprintf_va__E                                         
8001fc00  xdc_runtime_System_snprintf_va__F                                         
8001c1c0  xdc_runtime_System_vprintf__E                                             
8001fc00  xdc_runtime_System_vsnprintf__E                                           
80035b2e  xdc_runtime_Text_charCnt__C                                               
80030f18  xdc_runtime_Text_charTab__A                                               
80035aa0  xdc_runtime_Text_charTab__C                                               
8001d260  xdc_runtime_Text_cordText__E                                              
80035b30  xdc_runtime_Text_isLoaded__C                                              
80035aa4  xdc_runtime_Text_nameEmpty__C                                             
80035aa8  xdc_runtime_Text_nameStatic__C                                            
80035aac  xdc_runtime_Text_nameUnknown__C                                           
80034678  xdc_runtime_Text_nodeTab__A                                               
80035ab0  xdc_runtime_Text_nodeTab__C                                               
8001a9c0  xdc_runtime_Text_printVisFxn__I                                           
800152c0  xdc_runtime_Text_putLab__E                                                
80013ae0  xdc_runtime_Text_putMod__E                                                
80011080  xdc_runtime_Text_putSite__E                                               
80035b32  xdc_runtime_Text_registryModsLastId__C                                    
8001fc20  xdc_runtime_Text_ropeText__E                                              
80035b34  xdc_runtime_Text_unnamedModsLastId__C                                     
800181c0  xdc_runtime_Text_visitRope2__I                                            
80035ab4  xdc_runtime_Text_visitRopeFxn__C                                          
8001fc40  xdc_runtime_Text_visitRope__I                                             
8001aa60  xdc_runtime_Text_xprintf__I                                               
8001f280  xdc_runtime_Timestamp_SupportProxy_get32__E                               
8001f2a0  xdc_runtime_Timestamp_SupportProxy_get64__E                               
8001f280  xdc_runtime_Timestamp_get32__E                                            
8001f2a0  xdc_runtime_Timestamp_get64__E                                            
8001e4e0  xdc_runtime_knl_GateThread_Handle__label__S                               
8001fc60  xdc_runtime_knl_GateThread_Instance_finalize__E                           
8001e520  xdc_runtime_knl_GateThread_Instance_init__E                               
80035020  xdc_runtime_knl_GateThread_Module__FXNS__C                                
80038150  xdc_runtime_knl_GateThread_Module__root__V                                
8001fc80  xdc_runtime_knl_GateThread_Module__startupDone__S                         
8003540c  xdc_runtime_knl_GateThread_Object__DESC__C                                
8003556c  xdc_runtime_knl_GateThread_Object__PARAMS__C                              
8001ab00  xdc_runtime_knl_GateThread_Object__create__S                              
8001d2c0  xdc_runtime_knl_GateThread_Object__delete__S                              
8001fca0  xdc_runtime_knl_GateThread_Proxy_create                                   
8001fcc0  xdc_runtime_knl_GateThread_Proxy_delete                                   
8001fce0  xdc_runtime_knl_GateThread_Proxy_enter__E                                 
8001fd00  xdc_runtime_knl_GateThread_Proxy_leave__E                                 
8001f4a0  xdc_runtime_knl_GateThread_Proxy_query__E                                 
8001aba0  xdc_runtime_knl_GateThread_create                                         
8001fd20  xdc_runtime_knl_GateThread_enter__E                                       
8001fd40  xdc_runtime_knl_GateThread_leave__E                                       
8001f4a0  xdc_runtime_knl_GateThread_query__E                                       
80035ab8  xdc_runtime_knl_ISync_Interface__BASE__C                                  


GLOBAL SYMBOLS: SORTED BY Symbol Address 

address   name                                                                      
-------   ----                                                                      
00000000  _argsize                                                                  
00000000  ti_sysbios_family_c66_Cache_l2Size                                        
00000001  xdc_runtime_Startup__EXECFXN__C                                           
00000001  xdc_runtime_Startup__RESETFXN__C                                          
00004000  __TI_STACK_SIZE                                                           
00008000  ti_sysbios_family_c66_Cache_l1dSize                                       
00008000  ti_sysbios_family_c66_Cache_l1pSize                                       
00800000  _stack                                                                    
00804000  __TI_STACK_END                                                            
0c204080  qmssGroupControl                                                          
0c204180  qmssGObj                                                                  
0c206880  qmssGObjIsValid                                                           
0c206900  cppiObject                                                                
80000000  __ASM__                                                                   
80000000  ti_sdo_ipc_GateMP_Instance_init__E                                        
80000060  __ISA__                                                                   
80000078  __PLAT__                                                                  
80000098  __TARG__                                                                  
800000c0  __TRDR__                                                                  
80000c60  Qmss_initSubSys                                                           
800015e0  xdc_runtime_System_doPrint__I                                             
80001e80  ti_sysbios_family_c64p_Exception_handler__I                               
80002600  MessageQ_put                                                              
80002d40  ti_sysbios_knl_Semaphore_pend__E                                          
80003480  ti_sysbios_timers_timer64_Timer_Module_startup__E                         
80003dec  Osal_cppiMalloc                                                           
80003e28  Osal_cppiFree                                                             
80003e58  Osal_cppiCsEnter                                                          
80003e74  Osal_cppiCsExit                                                           
80003e8c  Osal_cppiLog                                                              
80003ea8  Osal_cppiBeginMemAccess                                                   
80003ee4  Osal_cppiEndMemAccess                                                     
80003f14  Osal_qmssMalloc                                                           
80003f48  Osal_qmssFree                                                             
80003f74  Osal_qmssCsEnter                                                          
80003f90  Osal_qmssCsExit                                                           
80003fa8  Osal_qmssAccCsEnter                                                       
80003fb0  Osal_qmssAccCsExit                                                        
80003fc8  Osal_qmssMtCsEnter                                                        
80003fd0  Osal_qmssMtCsExit                                                         
80003fe4  Osal_qmssLog                                                              
80003ff8  Osal_qmssBeginMemAccess                                                   
80004034  Osal_qmssEndMemAccess                                                     
8000406c  Osal_rmMalloc                                                             
800040a0  Osal_rmFree                                                               
800040cc  Osal_rmCsEnter                                                            
800040d4  Osal_rmCsExit                                                             
800040e8  Osal_rmMtCsEnter                                                          
80004100  Osal_rmMtCsExit                                                           
80004114  Osal_rmBeginMemAccess                                                     
80004150  Osal_rmEndMemAccess                                                       
80004188  Osal_rmTaskBlockCreate                                                    
800041b4  Osal_rmTaskBlock                                                          
800041c8  Osal_rmTaskUnblock                                                        
800041d4  Osal_rmTaskBlockDelete                                                    
800041e8  Osal_rmLog                                                                
80004240  Ipc_attach                                                                
80004880  ti_sdo_ipc_heaps_HeapMemMP_alloc__E                                       
80004ea0  ti_sysbios_heaps_HeapMem_allocUnprotected__E                              
800054c0  ti_sdo_ipc_GateMP_setRegion0Reserved__E                                   
800054c0  ti_sdo_ipc_GateMP_setRegion0Reserved__F                                   
80005ac0  ti_sysbios_heaps_HeapMem_freeUnprotected__E                               
80006080  ti_sdo_ipc_nsremote_NameServerRemoteNotify_Instance_init__E               
80006620  ti_sdo_ipc_GateMP_Instance_finalize__E                                    
80006b80  ti_sdo_ipc_heaps_HeapMemMP_free__E                                        
800070c0  ti_sysbios_knl_Task_Instance_finalize__E                                  
800075c0  ti_sdo_ipc_heaps_HeapMemMP_Instance_init__E                               
80007a80  Cppi_init                                                                 
80007f00  NameServer_add                                                            
80008380  ti_sysbios_gates_GateMutexPri_enter__E                                    
80008800  ti_sysbios_knl_Task_sleep__E                                              
80008c60  Notify_sendEvent                                                          
80009080  ti_sysbios_knl_Task_setPri__E                                             
800094a0  Notify_registerEventSingle                                                
800098a0  ti_sdo_ipc_nsremote_NameServerRemoteNotify_get__E                         
800098a0  ti_sdo_ipc_nsremote_NameServerRemoteNotify_get__F                         
80009ca0  Notify_unregisterEventSingle                                              
8000a080  ti_sdo_ipc_MessageQ_Instance_init__E                                      
8000a460  ti_sysbios_knl_Task_Instance_init__E                                      
8000a820  ti_sysbios_family_c66_Cache_startup__I                                    
8000a820  xdc_runtime_Startup_reset__I                                              
8000abc0  ti_sdo_ipc_gates_GatePeterson_Instance_init__E                            
8000af00  ti_sdo_ipc_notifyDrivers_NotifyDriverCirc_Instance_init__E                
8000b240  ti_sysbios_timers_timer64_Timer_deviceConfig__I                           
8000b560  ti_sdo_ipc_Notify_Instance_init__E                                        
8000b860  ti_sysbios_knl_Task_Module_startup__E                                     
8000bb60  ti_sdo_ipc_SharedRegion_reserveMemory__E                                  
8000bb60  ti_sdo_ipc_SharedRegion_reserveMemory__F                                  
8000be40  ti_sysbios_heaps_HeapMem_Instance_init__E                                 
8000c120  ti_sdo_ipc_heaps_HeapMemMP_postInit__I                                    
8000c3e0  ti_sysbios_knl_Clock_workFunc__E                                          
8000c6a0  xdc_runtime_LoggerBuf_write8__E                                           
8000c960  ti_sdo_ipc_MessageQ_registerTransport__E                                  
8000c960  ti_sdo_ipc_MessageQ_registerTransport__F                                  
8000cc00  ti_sdo_ipc_MessageQ_unregisterTransport__E                                
8000cc00  ti_sdo_ipc_MessageQ_unregisterTransport__F                                
8000cea0  ti_sdo_ipc_family_tci663x_Interrupt_Module_startup__E                     
8000d140  ti_sdo_utils_NameServer_registerRemoteDriver__E                           
8000d3e0  ti_sdo_utils_NameServer_unregisterRemoteDriver__E                         
8000d680  ti_sdo_ipc_notifyDrivers_NotifyDriverCirc_isr__I                          
8000d900  ti_sdo_utils_NameServer_isRegistered__E                                   
8000db80  ti_sysbios_family_c64p_Hwi_reconfig__E                                    
8000de18  ipcInit                                                                   
8000de78  cppiInit                                                                  
8000e060  ti_sysbios_family_c64p_Hwi_dispatchCore__I                                
8000e2c0  ti_sysbios_knl_Semaphore_post__E                                          
8000e520  xdc_runtime_Startup_startMods__I                                          
8000e780  __c6xabi_divull                                                           
8000e9c0  ti_sysbios_family_c64p_Exception_internalHandler__I                       
8000ec00  xdc_runtime_Core_createObject__I                                          
8000ee40  xdc_runtime_System_printfExtend__I                                        
8000f080  SharedRegion_getPtr                                                       
8000f2a0  SharedRegion_getSRPtr                                                     
8000f4c0  ti_sysbios_knl_Swi_run__I                                                 
8000f6e0  ti_sysbios_timers_timer64_Timer_setPeriodMicroSecs__E                     
8000f900  GateMP_openByAddr                                                         
8000fb00  HeapMemMP_sharedMemReq                                                    
8000fd00  Ipc_start                                                                 
8000ff00  SharedRegion_getEntry                                                     
80010100  ti_sysbios_family_c64p_Hwi_dispatchAlways                                 
80010300  ti_sdo_ipc_SharedRegion_start__E                                          
80010300  ti_sdo_ipc_SharedRegion_start__F                                          
80010500  ti_sdo_ipc_nsremote_NameServerRemoteNotify_swiFxnRequest__I               
80010700  xdc_runtime_Error_policyDefault__E                                        
80010900  GateMP_sharedMemReq                                                       
80010cc0  ti_sysbios_gates_GateMutex_enter__E                                       
80010ea0  xdc_runtime_LoggerBuf_write4__E                                           
80011080  xdc_runtime_Text_putSite__E                                               
80011260  ti_sdo_ipc_Ipc_procSyncStart__I                                           
80011420  ti_sysbios_knl_Task_checkStacks__E                                        
800115e0  ti_sysbios_timers_timer64_Timer_getFreq__E                                
800117a0  ti_sysbios_timers_timer64_Timer_start__E                                  
80011960  GateMP_enter                                                              
80011b00  GateMP_leave                                                              
80011ca0  MultiProc_getId                                                           
80011e40  NameServer_getLocal                                                       
80011fe0  ti_sdo_ipc_notifyDrivers_NotifyDriverCirc_sendEvent__E                    
80012180  ti_sysbios_family_c66_Cache_block__I                                      
80012320  ti_sysbios_family_c66_Cache_getL2InitSize__I                              
800124c0  ti_sysbios_knl_Task_schedule__I                                           
80012660  xdc_runtime_Core_constructObject__I                                       
80012800  MessageQ_get                                                              
80012980  NameServer_getHandle                                                      
80012b00  ti_sysbios_family_c64p_Exception_dispatch__E                              
80012c80  ti_sdo_ipc_GateMP_attach__E                                               
80012c80  ti_sdo_ipc_GateMP_attach__F                                               
80012e00  ti_sysbios_knl_Swi_Instance_init__E                                       
80012f80  ti_sysbios_knl_Task_exit__E                                               
80013100  ti_sysbios_knl_Task_startCore__E                                          
80013280  ti_sysbios_syncs_SyncSem_Instance_init__E                                 
80013400  ti_sdo_ipc_GateMP_openRegion0Reserved__E                                  
80013400  ti_sdo_ipc_GateMP_openRegion0Reserved__F                                  
80013560  ti_sdo_ipc_MessageQ_Instance_finalize__E                                  
800136c0  ti_sdo_ipc_notifyDrivers_NotifyDriverCirc_sharedMemReq__E                 
800136c0  ti_sdo_ipc_notifyDrivers_NotifyDriverCirc_sharedMemReq__F                 
80013820  ti_sysbios_family_c64p_Hwi_Module_startup__E                              
80013980  ti_sysbios_knl_Swi_post__E                                                
80013ae0  xdc_runtime_Text_putMod__E                                                
80013c40  MessageQ_create                                                           
80013d80  Notify_intLineRegistered                                                  
80013ec0  Qmss_rmServiceGroups                                                      
80014000  Qmss_startSubSysCfg                                                       
80014140  SharedRegion_getCacheLineSize                                             
80014280  SharedRegion_getHeap                                                      
800143c0  SharedRegion_isCacheEnabled                                               
80014500  ti_sdo_ipc_GateMP_createLocal__E                                          
80014500  ti_sdo_ipc_GateMP_createLocal__F                                          
80014640  ti_sdo_ipc_GateMP_getFreeResource__I                                      
80014780  ti_sdo_ipc_gates_GatePeterson_enter__E                                    
800148c0  ti_sdo_ipc_nsremote_NameServerRemoteNotify_attach__E                      
800148c0  ti_sdo_utils_NameServer_SetupProxy_attach__E                              
80014a00  ti_sdo_ipc_nsremote_NameServerRemoteNotify_cbFxn__I                       
80014b40  ti_sysbios_gates_GateSwi_enter__E                                         
80014c80  ti_sysbios_knl_Semaphore_Instance_init__E                                 
80014dc0  ti_sysbios_knl_Task_blockI__E                                             
80014f00  ti_sysbios_knl_Task_postInit__I                                           
80015040  xdc_runtime_Core_deleteObject__I                                          
80015180  xdc_runtime_LoggerBuf_setFilterLevel__E                                   
800152c0  xdc_runtime_Text_putLab__E                                                
80015400  GateMP_close                                                              
80015520  MultiProc_getName                                                         
80015640  Qmss_rmService                                                            
80015760  _auto_init_elf                                                            
80015880  ti_sdo_ipc_Notify_Module_startup__E                                       
800159a0  ti_sdo_ipc_Notify_create                                                  
80015ac0  ti_sdo_ipc_gates_GateHWSem_Instance_init__E                               
80015be0  ti_sdo_utils_NameServer_removeLocal__I                                    
80015d00  ti_sysbios_family_c64p_Hwi_Instance_init__E                               
80015e20  ti_sysbios_knl_Swi_restoreHwi__E                                          
80015f40  xdc_runtime_LoggerBuf_getFilterLevel__E                                   
80016160  ti_sdo_ipc_Ipc_procSyncFinish__I                                          
80016260  ti_sdo_ipc_Notify_exec__E                                                 
80016260  ti_sdo_ipc_Notify_exec__F                                                 
80016360  ti_sdo_ipc_SharedRegion_attach__E                                         
80016360  ti_sdo_ipc_SharedRegion_attach__F                                         
80016460  ti_sdo_ipc_family_tci663x_Interrupt_isr__I                                
80016560  ti_sdo_ipc_gates_GateHWSem_enter__E                                       
80016660  ti_sdo_ipc_heaps_HeapMemMP_getStats__E                                    
80016760  ti_sysbios_family_c64p_Hwi_Instance_finalize__E                           
80016860  ti_sysbios_gates_GateMutexPri_leave__E                                    
80016960  ti_sysbios_knl_Task_unblockI__E                                           
80016a60  ti_sysbios_timers_timer64_Timer_initDevice__I                             
80016b60  ti_sysbios_xdcruntime_GateThreadSupport_leave__E                          
80016c60  xdc_runtime_Error_print__E                                                
80016d60  xdc_runtime_Memory_alloc__E                                               
80016e60  xdc_runtime_Startup_exec__E                                               
80016f60  HOSTwrite                                                                 
80017040  HeapMemMP_openByAddr                                                      
80017120  MessageQ_Params_init__S                                                   
80017200  exit                                                                      
80017200  xdc_runtime_System_exitStd__E                                             
800172e0  taskFxn                                                                   
80017354  main                                                                      
800173c0  memset                                                                    
800174a0  ti_sdo_ipc_GateMP_start__E                                                
800174a0  ti_sdo_ipc_GateMP_start__F                                                
80017580  ti_sdo_ipc_MessageQ_Module_startup__E                                     
80017660  ti_sdo_ipc_Notify_Instance_finalize__E                                    
80017740  ti_sdo_ipc_SharedRegion_clearReservedMemory__E                            
80017740  ti_sdo_ipc_SharedRegion_clearReservedMemory__F                            
80017820  ti_sdo_ipc_family_tci663x_Interrupt_intRegister__E                        
80017820  ti_sdo_ipc_notifyDrivers_NotifyDriverCirc_InterruptProxy_intRegister__E   
80017900  ti_sdo_ipc_gates_GateMPSupportNull_enter__E                               
800179e0  ti_sdo_ipc_gates_GateMPSupportNull_leave__E                               
80017ac0  ti_sdo_ipc_heaps_HeapMemMP_Instance_finalize__E                           
80017ba0  ti_sdo_ipc_nsremote_NameServerRemoteNotify_Instance_finalize__E           
80017c80  ti_sdo_ipc_transports_TransportShmNotify_put__E                           
80017d60  ti_sdo_utils_NameServer_findLocal__I                                      
80017e40  ti_sysbios_heaps_HeapMem_alloc__E                                         
80017f20  ti_sysbios_knl_Swi_Instance_finalize__E                                   
80018000  ti_sysbios_knl_Swi_runLoop__I                                             
800180e0  ti_sysbios_knl_Clock_TimerProxy_startup__E                                
800180e0  ti_sysbios_timers_timer64_Timer_startup__E                                
800181c0  xdc_runtime_Text_visitRope2__I                                            
800182a0  SharedRegion_getId                                                        
80018360  __c6xabi_divu                                                             
80018360  __divu                                                                    
80018420  ti_sdo_ipc_GateMP_create                                                  
800184e0  ti_sdo_ipc_GateMP_getRegion0ReservedSize__E                               
800184e0  ti_sdo_ipc_GateMP_getRegion0ReservedSize__F                               
800185a0  ti_sdo_ipc_MessageQ_create                                                
80018660  ti_sdo_ipc_MessageQ_grow__I                                               
80018720  ti_sdo_ipc_gates_GatePeterson_Object__create__S                           
800187e0  ti_sdo_ipc_gates_GatePeterson_create                                      
800188a0  ti_sdo_ipc_heaps_HeapMemMP_Object__create__S                              
80018960  ti_sdo_ipc_heaps_HeapMemMP_create                                         
80018a20  ti_sdo_ipc_notifyDrivers_NotifyDriverCirc_disableEvent__E                 
80018ae0  ti_sdo_ipc_notifyDrivers_NotifyDriverCirc_enable__E                       
80018ba0  ti_sdo_ipc_nsremote_NameServerRemoteNotify_Object__create__S              
80018c60  ti_sdo_ipc_nsremote_NameServerRemoteNotify_create                         
80018d20  ti_sdo_ipc_transports_TransportShmNotify_Instance_init__E                 
80018de0  ti_sdo_ipc_transports_TransportShmNotify_Object__create__S                
80018ea0  ti_sdo_ipc_transports_TransportShmNotify_create                           
80018f60  ti_sysbios_family_c64p_Hwi_create                                         
80019020  ti_sysbios_gates_GateAll_leave__E                                         
800190e0  ti_sysbios_hal_Hwi_create                                                 
800191a0  ti_sysbios_heaps_HeapMem_getStats__E                                      
80019260  ti_sysbios_knl_Clock_logTick__E                                           
80019320  ti_sysbios_knl_Swi_schedule__I                                            
800193e0  ti_sysbios_knl_Task_allBlockedFunction__I                                 
800194a0  ti_sysbios_knl_Task_create                                                
80019560  ti_sysbios_syncs_SyncSem_Object__create__S                                
80019620  ti_sysbios_syncs_SyncSem_create                                           
800196e0  __TI_tls_init                                                             
800197a0  xdc_runtime_Assert_raise__I                                               
80019860  xdc_runtime_Error_setX__E                                                 
80019920  xdc_runtime_LoggerBuf_Object__create__S                                   
800199e0  xdc_runtime_SysMin_abort__E                                               
800199e0  xdc_runtime_System_SupportProxy_abort__E                                  
80019aa0  xdc_runtime_SysMin_flush__E                                               
80019aa0  xdc_runtime_System_SupportProxy_flush__E                                  
80019aa0  xdc_runtime_System_flush__E                                               
80019b60  __c6xabi_remu                                                             
80019b60  __remu                                                                    
80019c00  _c_int00                                                                  
80019ca0  ti_sysbios_family_c64p_Hwi_plug__E                                        
80019d40  memcpy                                                                    
80019de0  ti_sdo_ipc_family_tci663x_Interrupt_intSend__E                            
80019de0  ti_sdo_ipc_notifyDrivers_NotifyDriverCirc_InterruptProxy_intSend__E       
80019e80  ti_sdo_ipc_Notify_SetupProxy_attach__E                                    
80019e80  ti_sdo_ipc_family_tci663x_NotifyCircSetup_attach__E                       
80019f20  ti_sdo_ipc_gates_GatePeterson_leave__E                                    
80019fc0  ti_sdo_ipc_gates_GatePeterson_postInit__I                                 
8001a060  ti_sdo_ipc_nsremote_NameServerRemoteNotify_detach__E                      
8001a060  ti_sdo_utils_NameServer_SetupProxy_detach__E                              
8001a100  ti_sdo_ipc_MessageQ_SetupTransportProxy_attach__E                         
8001a100  ti_sdo_ipc_transports_TransportShmNotifySetup_attach__E                   
8001a1a0  ti_sdo_ipc_transports_TransportShmNotify_notifyFxn__I                     
8001a240  ti_sdo_utils_NameServer_Module_startup__E                                 
8001a2e0  ti_sdo_utils_NameServer_postInit__I                                       
8001a380  ti_sysbios_family_c64p_Exception_Module_startup__E                        
8001a420  ti_sysbios_family_c64p_Hwi_dispatchC__I                                   
8001a4c0  ti_sysbios_family_c64p_Hwi_getStackInfo__E                                
8001a4c0  ti_sysbios_hal_Hwi_HwiProxy_getStackInfo__E                               
8001a4c0  ti_sysbios_hal_Hwi_getStackInfo__E                                        
8001a560  ti_sysbios_gates_GateSwi_leave__E                                         
8001a600  ti_sysbios_knl_Swi_construct                                              
8001a6a0  ti_sysbios_timers_timer64_Timer_stop__E                                   
8001a740  xdc_runtime_Core_assignParams__I                                          
8001a7e0  xdc_runtime_SysMin_putch__E                                               
8001a7e0  xdc_runtime_System_SupportProxy_putch__E                                  
8001a880  xdc_runtime_System_formatNum__I                                           
8001a920  xdc_runtime_System_putchar__I                                             
8001a9c0  xdc_runtime_Text_printVisFxn__I                                           
8001aa60  xdc_runtime_Text_xprintf__I                                               
8001ab00  xdc_runtime_knl_GateThread_Object__create__S                              
8001aba0  xdc_runtime_knl_GateThread_create                                         
8001ac40  HeapMemMP_restore                                                         
8001acc0  __TI_readmsg                                                              
8001ad40  __c6xabi_llshl                                                            
8001adc0  ti_sysbios_family_c62_TaskSupport_swap__E                                 
8001adc0  ti_sysbios_knl_Task_SupportProxy_swap__E                                  
8001ae40  ti_sdo_ipc_Ipc_getMasterAddr__I                                           
8001aec0  ti_sdo_ipc_family_tci663x_Interrupt_intClear__E                           
8001aec0  ti_sdo_ipc_notifyDrivers_NotifyDriverCirc_InterruptProxy_intClear__E      
8001af40  ti_sdo_ipc_family_tci663x_Interrupt_intUnregister__E                      
8001af40  ti_sdo_ipc_notifyDrivers_NotifyDriverCirc_InterruptProxy_intUnregister__E 
8001afc0  ti_sdo_ipc_gates_GateHWSem_Module_startup__E                              
8001b040  ti_sdo_ipc_gates_GateHWSem_Object__create__S                              
8001b0c0  ti_sdo_ipc_gates_GateHWSem_create                                         
8001b140  ti_sdo_ipc_gates_GateMPSupportNull_Object__create__S                      
8001b1c0  ti_sdo_ipc_gates_GateMPSupportNull_create                                 
8001b240  ti_sdo_ipc_notifyDrivers_NotifyDriverCirc_Instance_finalize__E            
8001b2c0  ti_sdo_ipc_notifyDrivers_NotifyDriverCirc_create                          
8001b340  ti_sdo_ipc_transports_TransportShmNotify_Instance_finalize__E             
8001b3c0  ti_sysbios_BIOS_atExitFunc__I                                             
8001b440  ti_sysbios_BIOS_registerRTSLock__I                                        
8001b4c0  ti_sysbios_family_c66_Cache_invL1pAll__E                                  
8001b540  ti_sysbios_gates_GateAll_Object__create__S                                
8001b5c0  ti_sysbios_gates_GateHwi_Object__create__S                                
8001b640  ti_sysbios_gates_GateMutexPri_Object__create__S                           
8001b6c0  ti_sysbios_gates_GateMutex_Object__create__S                              
8001b740  ti_sysbios_gates_GateSwi_Object__create__S                                
8001b7c0  ti_sysbios_hal_Hwi_checkStack                                             
8001b840  ti_sysbios_hal_Hwi_initStack                                              
8001b8c0  ti_sysbios_heaps_HeapMem_Object__create__S                                
8001b940  ti_sysbios_heaps_HeapMem_init__I                                          
8001b9c0  ti_sysbios_knl_Clock_doTick__I                                            
8001ba40  ti_sysbios_knl_Idle_run__E                                                
8001bac0  ti_sysbios_knl_Semaphore_create                                           
8001bb40  ti_sysbios_knl_Semaphore_pendTimeout__I                                   
8001bbc0  ti_sysbios_knl_Swi_startup__E                                             
8001bc40  ti_sysbios_knl_Task_restore__E                                            
8001bcc0  ti_sysbios_syncs_SyncSem_wait__E                                          
8001bd40  ti_sysbios_xdcruntime_GateThreadSupport_create                            
8001bdc0  xdc_runtime_Core_assignLabel__I                                           
8001be40  xdc_runtime_LoggerBuf_Instance_init__E                                    
8001bec0  xdc_runtime_LoggerBuf_Module_startup__E                                   
8001bf40  xdc_runtime_LoggerBuf_filterOutEvent__I                                   
8001bfc0  xdc_runtime_SysMin_output__I                                              
8001c040  xdc_runtime_System_atexit__E                                              
8001c0c0  xdc_runtime_System_aprintf_va__E                                          
8001c0c0  xdc_runtime_System_aprintf_va__F                                          
8001c0c0  xdc_runtime_System_avprintf__E                                            
8001c140  xdc_runtime_System_processAtExit__E                                       
8001c1c0  xdc_runtime_System_printf_va__E                                           
8001c1c0  xdc_runtime_System_printf_va__F                                           
8001c1c0  xdc_runtime_System_vprintf__E                                             
8001c240  HeapMemMP_create                                                          
8001c300  __TI_writemsg                                                             
8001c358  C$$IO$$                                                                   
8001c360  __c6xabi_llshru                                                           
8001c3c0  _subcull                                                                  
8001c420  ti_sysbios_family_c64p_Hwi_switchAndDispatch__I                           
8001c480  ti_sysbios_family_xxx_Hwi_switchAndRunFunc                                
8001c4e0  sysInit                                                                   
8001c540  ti_sdo_ipc_GateMP_Object__delete__S                                       
8001c5a0  ti_sdo_ipc_Ipc_getSlaveAddr__I                                            
8001c600  ti_sdo_ipc_Ipc_reservedSizePerProc__I                                     
8001c660  ti_sdo_ipc_Notify_SetupProxy_numIntLines__E                               
8001c660  ti_sdo_ipc_family_tci663x_NotifyCircSetup_numIntLines__E                  
8001c6c0  ti_sdo_ipc_Notify_SetupProxy_sharedMemReq__E                              
8001c6c0  ti_sdo_ipc_family_tci663x_NotifyCircSetup_sharedMemReq__E                 
8001c720  ti_sdo_ipc_gates_GatePeterson_Object__delete__S                           
8001c780  ti_sdo_ipc_GateMP_RemoteCustom1Proxy_sharedMemReq__E                      
8001c780  ti_sdo_ipc_gates_GatePeterson_sharedMemReq__E                             
8001c7e0  ti_sdo_ipc_heaps_HeapMemMP_Object__delete__S                              
8001c840  ti_sdo_ipc_notifyDrivers_NotifyDriverCirc_Object__delete__S               
8001c8a0  ti_sdo_ipc_nsremote_NameServerRemoteNotify_Object__delete__S              
8001c900  ti_sdo_ipc_transports_TransportShmNotify_Object__delete__S                
8001c960  ti_sdo_utils_List_construct                                               
8001c9c0  ti_sysbios_BIOS_errorRaiseHook__I                                         
8001ca20  ti_sysbios_BIOS_removeRTSLock__I                                          
8001ca80  ti_sysbios_BIOS_startFunc__I                                              
8001cae0  ti_sysbios_family_c62_TaskSupport_start__E                                
8001cae0  ti_sysbios_knl_Task_SupportProxy_start__E                                 
8001cb40  ti_sysbios_family_c64p_Hwi_Object__delete__S                              
8001cba0  ti_sysbios_family_c66_Cache_Module_startup__E                             
8001cc00  ti_sysbios_gates_GateAll_enter__E                                         
8001cc60  ti_sysbios_gates_GateMutexPri_Object__delete__S                           
8001ccc0  ti_sysbios_gates_GateMutexPri_construct                                   
8001cd20  ti_sysbios_gates_GateMutex_Object__delete__S                              
8001cd80  ti_sysbios_hal_Hwi_Object__delete__S                                      
8001cde0  ti_sysbios_heaps_HeapMem_free__E                                          
8001ce40  ti_sysbios_knl_Clock_Module_startup__E                                    
8001cea0  ti_sysbios_knl_Queue_construct                                            
8001cf00  ti_sysbios_knl_Semaphore_Object__delete__S                                
8001cf60  ti_sysbios_knl_Semaphore_construct                                        
8001cfc0  ti_sysbios_knl_Swi_Module_startup__E                                      
8001d020  ti_sysbios_knl_Task_enter__I                                              
8001d080  ti_sysbios_syncs_SyncSem_Object__delete__S                                
8001d0e0  ti_sysbios_xdcruntime_GateThreadSupport_Object__delete__S                 
8001d140  xdc_runtime_LoggerBuf_Object__delete__S                                   
8001d1a0  xdc_runtime_LoggerBuf_reset__E                                            
8001d200  xdc_runtime_Memory_valloc__E                                              
8001d260  xdc_runtime_Text_cordText__E                                              
8001d2c0  xdc_runtime_knl_GateThread_Object__delete__S                              
8001d320  GateMP_Params_init                                                        
8001d360  HeapMemMP_Params_init                                                     
8001d3a0  Notify_attach                                                             
8001d3e0  Notify_sharedMemReq                                                       
8001d420  Qmss_start                                                                
8001d460  __c6xabi_strasgi_64plus                                                   
8001d460  __strasgi_64plus                                                          
8001d4a0  _args_main                                                                
8001d4e0  ti_sysbios_family_c62_TaskSupport_buildTaskStack                          
8001d520  ti_sdo_ipc_Ipc_getRegion0ReservedSize__I                                  
8001d560  ti_sdo_ipc_GateMP_RemoteSystemProxy_Handle__label__S                      
8001d560  ti_sdo_ipc_gates_GateHWSem_Handle__label__S                               
8001d5a0  ti_sdo_ipc_gates_GateHWSem_Object__delete__S                              
8001d5e0  ti_sdo_ipc_gates_GateHWSem_leave__E                                       
8001d620  ti_sdo_ipc_GateMP_RemoteCustom2Proxy_Handle__label__S                     
8001d620  ti_sdo_ipc_gates_GateMPSupportNull_Handle__label__S                       
8001d660  ti_sdo_ipc_gates_GateMPSupportNull_Object__delete__S                      
8001d6a0  ti_sdo_ipc_GateMP_RemoteCustom1Proxy_Handle__label__S                     
8001d6a0  ti_sdo_ipc_gates_GatePeterson_Handle__label__S                            
8001d6e0  ti_sdo_ipc_gates_GatePeterson_Instance_finalize__E                        
8001d720  ti_sdo_ipc_heaps_HeapMemMP_Handle__label__S                               
8001d760  ti_sdo_ipc_notifyDrivers_NotifyDriverCirc_Handle__label__S                
8001d7a0  ti_sdo_ipc_notifyDrivers_NotifyDriverCirc_registerEvent__E                
8001d7e0  ti_sdo_ipc_notifyDrivers_NotifyDriverCirc_unregisterEvent__E              
8001d820  ti_sdo_ipc_nsremote_NameServerRemoteNotify_Handle__label__S               
8001d820  ti_sdo_utils_NameServer_SetupProxy_Handle__label__S                       
8001d860  ti_sdo_ipc_nsremote_NameServerRemoteNotify_swiFxnResponse__I              
8001d8a0  ti_sdo_ipc_MessageQ_SetupTransportProxy_isRegistered__E                   
8001d8a0  ti_sdo_ipc_transports_TransportShmNotifySetup_isRegistered__E             
8001d8e0  ti_sdo_ipc_transports_TransportShmNotify_Handle__label__S                 
8001d920  ti_sdo_utils_List_dequeue__E                                              
8001d960  ti_sdo_utils_NameServer_Object__get__S                                    
8001d9a0  ti_sysbios_BIOS_exitFunc__I                                               
8001d9e0  ti_sysbios_BIOS_rtsLock__I                                                
8001da20  ti_sysbios_BIOS_rtsUnlock__I                                              
8001da60  ti_sysbios_family_c64p_Hwi_disableInterrupt__E                            
8001da60  ti_sysbios_hal_Hwi_HwiProxy_disableInterrupt__E                           
8001da60  ti_sysbios_hal_Hwi_disableInterrupt__E                                    
8001daa0  ti_sysbios_family_c64p_Hwi_enableInterrupt__E                             
8001daa0  ti_sysbios_hal_Hwi_HwiProxy_enableInterrupt__E                            
8001daa0  ti_sysbios_hal_Hwi_enableInterrupt__E                                     
8001dae0  ti_sysbios_gates_GateAll_Handle__label__S                                 
8001db20  ti_sysbios_gates_GateAll_Object__delete__S                                
8001db60  ti_sysbios_gates_GateHwi_Handle__label__S                                 
8001db60  xdc_runtime_LoggerBuf_Module_GateProxy_Handle__label__S                   
8001db60  xdc_runtime_Main_Module_GateProxy_Handle__label__S                        
8001db60  xdc_runtime_System_Module_GateProxy_Handle__label__S                      
8001dba0  ti_sysbios_gates_GateHwi_Object__delete__S                                
8001dbe0  ti_sysbios_gates_GateMutexPri_Handle__label__S                            
8001dc20  ti_sysbios_gates_GateMutexPri_Instance_init__E                            
8001dc60  ti_sysbios_gates_GateMutexPri_destruct                                    
8001dca0  ti_sysbios_BIOS_RtsGateProxy_Handle__label__S                             
8001dca0  ti_sysbios_gates_GateMutex_Handle__label__S                               
8001dca0  ti_sysbios_heaps_HeapMem_Module_GateProxy_Handle__label__S                
8001dce0  ti_sysbios_gates_GateMutex_Instance_init__E                               
8001dd20  ti_sysbios_gates_GateMutex_leave__E                                       
8001dd60  ti_sdo_ipc_Notify_Module_GateProxy_Handle__label__S                       
8001dd60  ti_sysbios_gates_GateSwi_Handle__label__S                                 
8001dda0  ti_sysbios_gates_GateSwi_Object__delete__S                                
8001dde0  ti_sysbios_hal_Hwi_Instance_init__E                                       
8001de20  ti_sysbios_heaps_HeapMem_Handle__label__S                                 
8001de20  xdc_runtime_Memory_HeapProxy_Handle__label__S                             
8001de60  ti_sysbios_heaps_HeapMem_Object__delete__S                                
8001dea0  ti_sysbios_heaps_HeapMem_Object__get__S                                   
8001dee0  ti_sysbios_knl_Semaphore_destruct                                         
8001df20  ti_sysbios_knl_Swi_Object__get__S                                         
8001df60  ti_sysbios_knl_Swi_destruct                                               
8001dfa0  ti_sysbios_knl_Task_Object__get__S                                        
8001dfe0  ti_sysbios_knl_Task_sleepTimeout__I                                       
8001e020  ti_sysbios_syncs_SyncSem_Handle__label__S                                 
8001e060  xdc_runtime_Error_check__E                                                
8001e0a0  xdc_runtime_Error_init__E                                                 
8001e0e0  xdc_runtime_GateNull_Handle__label__S                                     
8001e120  xdc_runtime_GateNull_Object__create__S                                    
8001e160  xdc_runtime_GateNull_Object__delete__S                                    
8001e1a0  xdc_runtime_LoggerBuf_Handle__label__S                                    
8001e1e0  xdc_runtime_LoggerBuf_Instance_finalize__E                                
8001e220  xdc_runtime_LoggerBuf_Object__get__S                                      
8001e260  xdc_runtime_LoggerBuf_write0__E                                           
8001e2a0  xdc_runtime_LoggerBuf_write1__E                                           
8001e2e0  xdc_runtime_LoggerBuf_write2__E                                           
8001e320  xdc_runtime_Registry_findById__E                                          
8001e360  xdc_runtime_SysMin_Module_startup__E                                      
8001e3a0  xdc_runtime_SysMin_exit__E                                                
8001e3a0  xdc_runtime_System_SupportProxy_exit__E                                   
8001e3e0  xdc_runtime_System_abort__E                                               
8001e420  xdc_runtime_System_aprintf__E                                             
8001e460  xdc_runtime_System_exit__E                                                
8001e4a0  xdc_runtime_System_printf__E                                              
8001e4e0  xdc_runtime_knl_GateThread_Handle__label__S                               
8001e520  xdc_runtime_knl_GateThread_Instance_init__E                               
8001e560  GateMP_delete                                                             
8001e580  GateMP_getDefaultRemote                                                   
8001e5e0  MultiProc_getBaseIdOfCluster                                              
8001e600  MultiProc_self                                                            
8001e620  NameServer_addUInt32                                                      
8001e640  NameServer_getLocalUInt32                                                 
8001e660  NameServer_removeEntry                                                    
8001e680  Notify_numIntLines                                                        
8001e6a0  Qmss_init                                                                 
8001e6c0  SharedRegion_invalidSRPtr                                                 
8001e6e0  _GateMP_virtToPhys                                                        
8001e700  __c6xabi_pop_rts                                                          
8001e700  __pop_rts                                                                 
8001e720  __c6xabi_push_rts                                                         
8001e720  __push_rts                                                                
8001e740  _nop                                                                      
8001e760  _register_lock                                                            
8001e780  _register_synch_api                                                       
8001e7a0  _register_unlock                                                          
8001e7c0  ti_sysbios_family_c62_TaskSupport_glue                                    
8001e7e0  C$$EXIT                                                                   
8001e7e0  abort                                                                     
8001e7e0  xdc_runtime_System_abortStd__E                                            
8001e800  __TI_decompress_none                                                      
8001e820  __TI_decompress_rle24                                                     
8001e840  ti_sdo_ipc_GateMP_Params__init__S                                         
8001e860  ti_sdo_ipc_GateMP_RemoteCustom1Proxy_Proxy__abstract__S                   
8001e880  ti_sdo_ipc_GateMP_RemoteCustom1Proxy_Proxy__delegate__S                   
8001e8a0  ti_sdo_ipc_GateMP_RemoteCustom1Proxy_create                               
8001e8c0  ti_sdo_ipc_GateMP_RemoteCustom1Proxy_delete                               
8001e8e0  ti_sdo_ipc_GateMP_RemoteCustom2Proxy_Proxy__abstract__S                   
8001e900  ti_sdo_ipc_GateMP_RemoteCustom2Proxy_Proxy__delegate__S                   
8001e920  ti_sdo_ipc_GateMP_RemoteCustom2Proxy_create                               
8001e940  ti_sdo_ipc_GateMP_RemoteCustom2Proxy_delete                               
8001e960  ti_sdo_ipc_GateMP_RemoteSystemProxy_Proxy__abstract__S                    
8001e980  ti_sdo_ipc_GateMP_RemoteSystemProxy_Proxy__delegate__S                    
8001e9a0  ti_sdo_ipc_GateMP_RemoteSystemProxy_create                                
8001e9c0  ti_sdo_ipc_GateMP_RemoteSystemProxy_delete                                
8001e9e0  ti_sdo_ipc_GateMP_delete                                                  
8001ea00  ti_sdo_ipc_GateMP_getSharedAddr__E                                        
8001ea00  ti_sdo_ipc_GateMP_getSharedAddr__F                                        
8001ea20  ti_sdo_ipc_GateMP_setDefaultRemote__E                                     
8001ea20  ti_sdo_ipc_GateMP_setDefaultRemote__F                                     
8001ea40  ti_sdo_ipc_MessageQ_Object__get__S                                        
8001ea60  ti_sdo_ipc_MessageQ_Params__init__S                                       
8001ea80  ti_sdo_ipc_Notify_Module_GateProxy_enter__E                               
8001eaa0  ti_sdo_ipc_Notify_Module_GateProxy_leave__E                               
8001eac0  ti_sdo_ipc_family_tci663x_Interrupt_intDisable__E                         
8001eac0  ti_sdo_ipc_notifyDrivers_NotifyDriverCirc_InterruptProxy_intDisable__E    
8001eae0  ti_sdo_ipc_family_tci663x_Interrupt_intEnable__E                          
8001eae0  ti_sdo_ipc_notifyDrivers_NotifyDriverCirc_InterruptProxy_intEnable__E     
8001eb00  ti_sdo_ipc_GateMP_RemoteSystemProxy_Params__init__S                       
8001eb00  ti_sdo_ipc_gates_GateHWSem_Params__init__S                                
8001eb20  ti_sdo_ipc_GateMP_RemoteSystemProxy_getReservedMask__E                    
8001eb20  ti_sdo_ipc_gates_GateHWSem_getReservedMask__E                             
8001eb40  ti_sdo_ipc_GateMP_RemoteSystemProxy_query__E                              
8001eb40  ti_sdo_ipc_gates_GateHWSem_query__E                                       
8001eb60  ti_sdo_ipc_GateMP_RemoteSystemProxy_sharedMemReq__E                       
8001eb60  ti_sdo_ipc_gates_GateHWSem_sharedMemReq__E                                
8001eb80  ti_sdo_ipc_gates_GateMPSupportNull_Instance_init__E                       
8001eba0  ti_sdo_ipc_GateMP_RemoteCustom2Proxy_Params__init__S                      
8001eba0  ti_sdo_ipc_gates_GateMPSupportNull_Params__init__S                        
8001ebc0  ti_sdo_ipc_GateMP_RemoteCustom2Proxy_getReservedMask__E                   
8001ebc0  ti_sdo_ipc_gates_GateMPSupportNull_getReservedMask__E                     
8001ebe0  ti_sdo_ipc_GateMP_RemoteCustom2Proxy_query__E                             
8001ebe0  ti_sdo_ipc_gates_GateMPSupportNull_query__E                               
8001ec00  ti_sdo_ipc_GateMP_RemoteCustom2Proxy_sharedMemReq__E                      
8001ec00  ti_sdo_ipc_gates_GateMPSupportNull_sharedMemReq__E                        
8001ec20  ti_sdo_ipc_GateMP_RemoteCustom1Proxy_Params__init__S                      
8001ec20  ti_sdo_ipc_gates_GatePeterson_Params__init__S                             
8001ec40  ti_sdo_ipc_GateMP_RemoteCustom1Proxy_getReservedMask__E                   
8001ec40  ti_sdo_ipc_gates_GatePeterson_getReservedMask__E                          
8001ec60  ti_sdo_ipc_GateMP_RemoteCustom1Proxy_query__E                             
8001ec60  ti_sdo_ipc_gates_GatePeterson_query__E                                    
8001ec80  ti_sdo_ipc_heaps_HeapMemMP_Params__init__S                                
8001eca0  ti_sdo_ipc_heaps_HeapMemMP_isBlocking__E                                  
8001ecc0  ti_sdo_ipc_notifyDrivers_NotifyDriverCirc_Params__init__S                 
8001ece0  ti_sdo_ipc_notifyDrivers_NotifyDriverCirc_delete                          
8001ed00  ti_sdo_ipc_notifyDrivers_NotifyDriverCirc_disable__E                      
8001ed20  ti_sdo_ipc_notifyDrivers_NotifyDriverCirc_enableEvent__E                  
8001ed40  ti_sdo_ipc_notifyDrivers_NotifyDriverCirc_setNotifyHandle__E              
8001ed60  ti_sdo_ipc_nsremote_NameServerRemoteNotify_Object__first__S               
8001ed80  ti_sdo_ipc_nsremote_NameServerRemoteNotify_Object__next__S                
8001eda0  ti_sdo_ipc_nsremote_NameServerRemoteNotify_Params__init__S                
8001eda0  ti_sdo_utils_NameServer_SetupProxy_Params__init__S                        
8001edc0  ti_sdo_ipc_nsremote_NameServerRemoteNotify_delete                         
8001ede0  ti_sdo_ipc_nsremote_NameServerRemoteNotify_sharedMemReq__E                
8001ede0  ti_sdo_utils_NameServer_SetupProxy_sharedMemReq__E                        
8001ee00  ti_sdo_ipc_MessageQ_SetupTransportProxy_sharedMemReq__E                   
8001ee00  ti_sdo_ipc_transports_TransportShmNotifySetup_sharedMemReq__E             
8001ee20  ti_sdo_ipc_transports_TransportShmNotify_Params__init__S                  
8001ee40  ti_sdo_ipc_transports_TransportShmNotify_control__E                       
8001ee60  ti_sdo_ipc_transports_TransportShmNotify_getStatus__E                     
8001ee80  ti_sdo_ipc_transports_TransportShmNotify_setErrFxn__E                     
8001eea0  ti_sdo_utils_List_Instance_init__E                                        
8001eec0  ti_sdo_utils_List_Object__get__S                                          
8001eee0  ti_sdo_utils_List_destruct                                                
8001ef00  ti_sdo_utils_List_enqueueHead__E                                          
8001ef20  ti_sdo_utils_List_enqueue__E                                              
8001ef40  ti_sdo_utils_List_get__E                                                  
8001ef60  ti_sdo_utils_List_next__E                                                 
8001ef80  ti_sdo_utils_List_putHead__E                                              
8001efa0  ti_sdo_utils_List_put__E                                                  
8001efc0  ti_sdo_utils_List_remove__E                                               
8001efe0  ti_sdo_utils_MultiProc_Module__startupDone__S                             
8001f000  ti_sdo_utils_MultiProc_getClusterId__E                                    
8001f000  ti_sdo_utils_MultiProc_getClusterId__F                                    
8001f020  ti_sdo_utils_NameServer_Module__startupDone__F                            
8001f020  ti_sdo_utils_NameServer_Module__startupDone__S                            
8001f040  ti_sdo_utils_NameServer_Object__first__S                                  
8001f060  ti_sdo_utils_NameServer_Object__next__S                                   
8001f080  ti_sysbios_BIOS_RtsGateProxy_enter__E                                     
8001f0a0  ti_sysbios_BIOS_RtsGateProxy_leave__E                                     
8001f0c0  ti_sysbios_BIOS_exit__E                                                   
8001f0e0  ti_sysbios_BIOS_linkedWithIncorrectBootLibrary__E                         
8001f100  ti_sysbios_BIOS_nullFunc__I                                               
8001f120  ti_sysbios_BIOS_setThreadType__E                                          
8001f140  ti_sysbios_BIOS_start__E                                                  
8001f160  ti_sysbios_family_c62_TaskSupport_Module__startupDone__S                  
8001f160  ti_sysbios_knl_Task_SupportProxy_Module__startupDone__S                   
8001f180  ti_sysbios_family_c62_TaskSupport_checkStack__E                           
8001f180  ti_sysbios_knl_Task_SupportProxy_checkStack__E                            
8001f1a0  ti_sysbios_family_c62_TaskSupport_getStackAlignment__E                    
8001f1a0  ti_sysbios_knl_Task_SupportProxy_getStackAlignment__E                     
8001f1c0  ti_sysbios_family_c64p_Hwi_Module__startupDone__F                         
8001f1c0  ti_sysbios_family_c64p_Hwi_Module__startupDone__S                         
8001f1c0  ti_sysbios_hal_Hwi_HwiProxy_Module__startupDone__S                        
8001f1e0  ti_sysbios_family_c64p_Hwi_clearInterrupt__E                              
8001f1e0  ti_sysbios_hal_Hwi_HwiProxy_clearInterrupt__E                             
8001f1e0  ti_sysbios_hal_Hwi_clearInterrupt__E                                      
8001f200  ti_sysbios_family_c64p_Hwi_startup__E                                     
8001f200  ti_sysbios_hal_Hwi_HwiProxy_startup__E                                    
8001f200  ti_sysbios_hal_Hwi_startup__E                                             
8001f220  ti_sysbios_family_c64p_Hwi_switchFromBootStack__E                         
8001f220  ti_sysbios_hal_Hwi_HwiProxy_switchFromBootStack__E                        
8001f220  ti_sysbios_hal_Hwi_switchFromBootStack__E                                 
8001f240  ti_sysbios_family_c64p_Hwi_unPluggedInterrupt__I                          
8001f260  ti_sysbios_family_c64p_TimestampProvider_Module_startup__E                
8001f280  ti_sysbios_family_c64p_TimestampProvider_get32__E                         
8001f280  xdc_runtime_LoggerBuf_TimestampProxy_get32__E                             
8001f280  xdc_runtime_Timestamp_SupportProxy_get32__E                               
8001f280  xdc_runtime_Timestamp_get32__E                                            
8001f2a0  ti_sysbios_family_c64p_TimestampProvider_get64__E                         
8001f2a0  xdc_runtime_LoggerBuf_TimestampProxy_get64__E                             
8001f2a0  xdc_runtime_Timestamp_SupportProxy_get64__E                               
8001f2a0  xdc_runtime_Timestamp_get64__E                                            
8001f2c0  ti_sysbios_family_c64p_tci6488_TimerSupport_enable__E                     
8001f2c0  ti_sysbios_timers_timer64_Timer_TimerSupportProxy_enable__E               
8001f2e0  ti_sysbios_family_c66_Cache_RTSSynchInv__I                                
8001f300  ti_sysbios_family_c66_Cache_RTSSynchWbInv__I                              
8001f320  ti_sysbios_family_c66_Cache_RTSSynchWb__I                                 
8001f340  ti_sysbios_family_c66_Cache_inv__E                                        
8001f340  ti_sysbios_hal_Cache_CacheProxy_inv__E                                    
8001f340  ti_sysbios_hal_Cache_inv__E                                               
8001f360  ti_sysbios_family_c66_Cache_wait__E                                       
8001f360  ti_sysbios_hal_Cache_CacheProxy_wait__E                                   
8001f360  ti_sysbios_hal_Cache_wait__E                                              
8001f380  ti_sysbios_family_c66_Cache_wbInv__E                                      
8001f380  ti_sysbios_hal_Cache_CacheProxy_wbInv__E                                  
8001f380  ti_sysbios_hal_Cache_wbInv__E                                             
8001f3a0  ti_sysbios_family_c66_Cache_wb__E                                         
8001f3a0  ti_sysbios_hal_Cache_CacheProxy_wb__E                                     
8001f3a0  ti_sysbios_hal_Cache_wb__E                                                
8001f3c0  ti_sysbios_gates_GateAll_Instance_init__E                                 
8001f3e0  ti_sysbios_gates_GateAll_query__E                                         
8001f400  ti_sysbios_gates_GateHwi_Instance_init__E                                 
8001f420  ti_sysbios_gates_GateHwi_enter__E                                         
8001f440  ti_sysbios_gates_GateHwi_leave__E                                         
8001f460  ti_sysbios_gates_GateHwi_query__E                                         
8001f460  xdc_runtime_LoggerBuf_Module_GateProxy_query__E                           
8001f460  xdc_runtime_Main_Module_GateProxy_query__E                                
8001f460  xdc_runtime_System_Module_GateProxy_query__E                              
8001f480  ti_sysbios_gates_GateMutexPri_Instance_finalize__E                        
8001f4a0  ti_sysbios_gates_GateMutexPri_query__E                                    
8001f4a0  ti_sysbios_xdcruntime_GateThreadSupport_query__E                          
8001f4a0  xdc_runtime_knl_GateThread_Proxy_query__E                                 
8001f4a0  xdc_runtime_knl_GateThread_query__E                                       
8001f4c0  ti_sysbios_gates_GateMutex_Instance_finalize__E                           
8001f4e0  ti_sysbios_BIOS_RtsGateProxy_query__E                                     
8001f4e0  ti_sysbios_gates_GateMutex_query__E                                       
8001f4e0  ti_sysbios_heaps_HeapMem_Module_GateProxy_query__E                        
8001f500  ti_sysbios_gates_GateSwi_Instance_init__E                                 
8001f520  ti_sdo_ipc_Notify_Module_GateProxy_query__E                               
8001f520  ti_sysbios_gates_GateSwi_query__E                                         
8001f540  ti_sysbios_hal_Hwi_HwiProxy_create                                        
8001f560  ti_sysbios_hal_Hwi_HwiProxy_delete                                        
8001f580  ti_sysbios_hal_Hwi_Instance_finalize__E                                   
8001f5a0  ti_sysbios_hal_Hwi_Module_startup__E                                      
8001f5c0  ti_sysbios_hal_Hwi_Params__init__S                                        
8001f5e0  ti_sysbios_hal_Hwi_delete                                                 
8001f600  ti_sysbios_heaps_HeapMem_Module_GateProxy_enter__E                        
8001f620  ti_sysbios_heaps_HeapMem_Module_GateProxy_leave__E                        
8001f640  ti_sysbios_heaps_HeapMem_isBlocking__E                                    
8001f660  ti_sysbios_knl_Clock_TimerProxy_getMaxTicks__E                            
8001f680  ti_sysbios_knl_Idle_loop__E                                               
8001f6a0  ti_sysbios_knl_Queue_Instance_init__E                                     
8001f6c0  ti_sysbios_knl_Queue_Object__get__S                                       
8001f6e0  ti_sysbios_knl_Queue_destruct                                             
8001f700  ti_sysbios_knl_Queue_empty__E                                             
8001f720  ti_sysbios_knl_Semaphore_Instance_finalize__E                             
8001f740  ti_sysbios_knl_Semaphore_Params__init__S                                  
8001f760  ti_sysbios_knl_Semaphore_delete                                           
8001f780  ti_sysbios_knl_Swi_Params__init__S                                        
8001f7a0  ti_sysbios_knl_Swi_disable__E                                             
8001f7c0  ti_sysbios_knl_Task_disable__E                                            
8001f7e0  ti_sysbios_knl_Task_startup__E                                            
8001f800  ti_sysbios_syncs_SyncSem_Instance_finalize__E                             
8001f820  ti_sysbios_syncs_SyncSem_delete                                           
8001f840  ti_sysbios_syncs_SyncSem_query__E                                         
8001f860  ti_sysbios_syncs_SyncSem_signal__E                                        
8001f880  ti_sysbios_knl_Clock_TimerProxy_Module__startupDone__S                    
8001f880  ti_sysbios_timers_timer64_Timer_Module__startupDone__F                    
8001f880  ti_sysbios_timers_timer64_Timer_Module__startupDone__S                    
8001f8a0  ti_sysbios_timers_timer64_Timer_getMaxTicks__E                            
8001f8c0  ti_sysbios_xdcruntime_GateThreadSupport_Instance_finalize__E              
8001f8e0  ti_sysbios_xdcruntime_GateThreadSupport_Instance_init__E                  
8001f900  ti_sysbios_xdcruntime_GateThreadSupport_enter__E                          
8001f920  xdc_runtime_Error_getSite__E                                              
8001f940  xdc_runtime_Error_raiseX__E                                               
8001f960  xdc_runtime_GateNull_enter__E                                             
8001f980  xdc_runtime_GateNull_leave__E                                             
8001f9a0  xdc_runtime_GateNull_query__E                                             
8001f9c0  xdc_runtime_Gate_enterSystem__E                                           
8001f9e0  xdc_runtime_Gate_leaveSystem__E                                           
8001fa00  xdc_runtime_Memory_HeapProxy_alloc__E                                     
8001fa20  xdc_runtime_Memory_HeapProxy_free__E                                      
8001fa40  xdc_runtime_LoggerBuf_Module_GateProxy_enter__E                           
8001fa60  xdc_runtime_LoggerBuf_Module_GateProxy_leave__E                           
8001fa80  xdc_runtime_LoggerBuf_disable__E                                          
8001faa0  xdc_runtime_LoggerBuf_enable__E                                           
8001fac0  xdc_runtime_Memory_calloc__E                                              
8001fae0  xdc_runtime_Memory_free__E                                                
8001fb00  xdc_runtime_Memory_getMaxDefaultTypeAlign__E                              
8001fb20  xdc_runtime_Startup_Module__startupDone__S                                
8001fb40  xdc_runtime_Startup_exec__I                                               
8001fb60  xdc_runtime_Startup_rtsDone__E                                            
8001fb80  xdc_runtime_SysMin_ready__E                                               
8001fb80  xdc_runtime_System_SupportProxy_ready__E                                  
8001fba0  xdc_runtime_System_Module_GateProxy_enter__E                              
8001fbc0  xdc_runtime_System_Module_GateProxy_leave__E                              
8001fbe0  xdc_runtime_System_Module_startup__E                                      
8001fc00  xdc_runtime_System_snprintf_va__E                                         
8001fc00  xdc_runtime_System_snprintf_va__F                                         
8001fc00  xdc_runtime_System_vsnprintf__E                                           
8001fc20  xdc_runtime_Text_ropeText__E                                              
8001fc40  xdc_runtime_Text_visitRope__I                                             
8001fc60  xdc_runtime_knl_GateThread_Instance_finalize__E                           
8001fc80  xdc_runtime_knl_GateThread_Module__startupDone__S                         
8001fca0  xdc_runtime_knl_GateThread_Proxy_create                                   
8001fcc0  xdc_runtime_knl_GateThread_Proxy_delete                                   
8001fce0  xdc_runtime_knl_GateThread_Proxy_enter__E                                 
8001fd00  xdc_runtime_knl_GateThread_Proxy_leave__E                                 
8001fd20  xdc_runtime_knl_GateThread_enter__E                                       
8001fd40  xdc_runtime_knl_GateThread_leave__E                                       
8001fd60  ti_sysbios_heaps_HeapMem_Instance_State_0_buf__A                          
8002c560  ti_sysbios_knl_Task_Instance_State_0_stack__A                             
80030560  qmssLObj                                                                  
80030b08  xdc_runtime_LoggerBuf_Instance_State_0_entryArr__A                        
80030d08  xdc_runtime_SysMin_Module_State_0_outbuf__A                               
80030f08  parmbuf                                                                   
80030f10  qmssLObjIsValid                                                           
80030f18  xdc_runtime_Text_charTab__A                                               
80033d5a  ti_sdo_ipc_GateMP_Module__id__C                                           
80034278  ti_sysbios_family_c66_Cache_marvalues__C                                  
80034678  xdc_runtime_Text_nodeTab__A                                               
80034a7c  ti_sysbios_knl_Task_Object__PARAMS__C                                     
80034ac0  xdc_runtime_Startup_sfxnTab__A                                            
80034b44  xdc_runtime_LoggerBuf_Module__FXNS__C                                     
80034b80  ti_sdo_ipc_notifyDrivers_NotifyDriverCirc_Module__FXNS__C                 
80034bb8  ti_sdo_ipc_GateMP_Object__PARAMS__C                                       
80034bec  ti_sdo_ipc_notifyDrivers_NotifyDriverCirc_Object__PARAMS__C               
80034c20  ti_sdo_ipc_heaps_HeapMemMP_Object__PARAMS__C                              
80034c50  ti_sysbios_family_c64p_Hwi_Object__PARAMS__C                              
80034cac  ti_sdo_ipc_gates_GateHWSem_Module__FXNS__C                                
80034cd8  ti_sdo_ipc_gates_GateMPSupportNull_Module__FXNS__C                        
80034d04  ti_sdo_ipc_gates_GatePeterson_Module__FXNS__C                             
80034d30  ti_sysbios_hal_Hwi_Object__PARAMS__C                                      
80034d5c  ti_sdo_ipc_heaps_HeapMemMP_Module__FXNS__C                                
80034d84  ti_sdo_ipc_nsremote_NameServerRemoteNotify_Module__FXNS__C                
80034dac  ti_sdo_ipc_transports_TransportShmNotify_Module__FXNS__C                  
80034dd4  ti_sysbios_heaps_HeapMem_Module__FXNS__C                                  
80034dfc  ti_sysbios_knl_Swi_Object__PARAMS__C                                      
80034e24  xdc_runtime_LoggerBuf_Object__PARAMS__C                                   
80034e70  ti_sdo_ipc_gates_GateHWSem_Object__PARAMS__C                              
80034e94  ti_sdo_ipc_gates_GateMPSupportNull_Object__PARAMS__C                      
80034eb8  ti_sdo_ipc_gates_GatePeterson_Object__PARAMS__C                           
80034edc  ti_sysbios_gates_GateAll_Module__FXNS__C                                  
80034f00  ti_sysbios_gates_GateHwi_Module__FXNS__C                                  
80034f24  ti_sysbios_gates_GateMutexPri_Module__FXNS__C                             
80034f48  ti_sysbios_gates_GateMutex_Module__FXNS__C                                
80034f6c  ti_sysbios_gates_GateSwi_Module__FXNS__C                                  
80034f90  ti_sysbios_heaps_HeapMem_Object__PARAMS__C                                
80034fb4  ti_sysbios_knl_Semaphore_Object__PARAMS__C                                
80034fd8  ti_sysbios_syncs_SyncSem_Module__FXNS__C                                  
80034ffc  xdc_runtime_GateNull_Module__FXNS__C                                      
80035020  xdc_runtime_knl_GateThread_Module__FXNS__C                                
80035044  ti_sdo_ipc_GateMP_A_invalidClose__C                                       
80035048  xdc_runtime_Startup_sfxnRts__A                                            
8003506a  ti_sdo_ipc_GateMP_Module__loggerDefined__C                                
8003506c  ti_sdo_ipc_GateMP_Object__DESC__C                                         
8003508c  ti_sdo_ipc_MessageQ_Object__DESC__C                                       
800350ac  ti_sdo_ipc_MessageQ_Object__PARAMS__C                                     
800350cc  ti_sdo_ipc_Notify_Object__DESC__C                                         
800350ec  ti_sdo_ipc_gates_GateHWSem_Object__DESC__C                                
8003510c  ti_sdo_ipc_gates_GateMPSupportNull_Object__DESC__C                        
8003512c  ti_sdo_ipc_gates_GatePeterson_Object__DESC__C                             
8003514c  ti_sdo_ipc_heaps_HeapMemMP_Object__DESC__C                                
8003516c  ti_sdo_ipc_notifyDrivers_NotifyDriverCirc_Object__DESC__C                 
8003518c  ti_sdo_ipc_nsremote_NameServerRemoteNotify_Object__DESC__C                
800351ac  ti_sdo_ipc_nsremote_NameServerRemoteNotify_Object__PARAMS__C              
800351cc  ti_sdo_ipc_transports_TransportShmNotify_Object__DESC__C                  
800351ec  ti_sdo_utils_List_Object__DESC__C                                         
8003520c  ti_sysbios_family_c64p_Hwi_Object__DESC__C                                
8003522c  ti_sysbios_gates_GateAll_Object__DESC__C                                  
8003524c  ti_sysbios_gates_GateHwi_Object__DESC__C                                  
8003526c  ti_sysbios_gates_GateMutexPri_Object__DESC__C                             
8003528c  ti_sysbios_gates_GateMutex_Object__DESC__C                                
800352ac  ti_sysbios_gates_GateSwi_Object__DESC__C                                  
800352cc  ti_sysbios_hal_Hwi_Object__DESC__C                                        
800352ec  ti_sysbios_heaps_HeapMem_Object__DESC__C                                  
8003530c  ti_sysbios_knl_Queue_Object__DESC__C                                      
8003532c  ti_sysbios_knl_Semaphore_Object__DESC__C                                  
8003534c  ti_sysbios_knl_Swi_Object__DESC__C                                        
8003536c  ti_sysbios_knl_Task_Object__DESC__C                                       
8003538c  ti_sysbios_syncs_SyncSem_Object__DESC__C                                  
800353ac  ti_sysbios_xdcruntime_GateThreadSupport_Object__DESC__C                   
800353cc  xdc_runtime_GateNull_Object__DESC__C                                      
800353ec  xdc_runtime_LoggerBuf_Object__DESC__C                                     
8003540c  xdc_runtime_knl_GateThread_Object__DESC__C                                
8003542c  ti_sdo_ipc_transports_TransportShmNotify_Object__PARAMS__C                
80035448  ti_sysbios_syncs_SyncSem_Object__PARAMS__C                                
8003547c  ti_sdo_ipc_Notify_Object__PARAMS__C                                       
80035494  ti_sdo_utils_List_Object__PARAMS__C                                       
800354ac  ti_sysbios_gates_GateAll_Object__PARAMS__C                                
800354c4  ti_sysbios_gates_GateHwi_Object__PARAMS__C                                
800354dc  ti_sysbios_gates_GateMutexPri_Object__PARAMS__C                           
800354f4  ti_sysbios_gates_GateMutex_Object__PARAMS__C                              
8003550c  ti_sysbios_gates_GateSwi_Object__PARAMS__C                                
80035524  ti_sysbios_knl_Queue_Object__PARAMS__C                                    
8003553c  ti_sysbios_xdcruntime_GateThreadSupport_Object__PARAMS__C                 
80035554  xdc_runtime_GateNull_Object__PARAMS__C                                    
8003556c  xdc_runtime_knl_GateThread_Object__PARAMS__C                              
80035584  ti_sdo_ipc_GateMP_A_invalidDelete__C                                      
80035588  qmssQueueFree                                                             
80035590  qmssQueueFreeSize                                                         
80035598  ti_sdo_utils_MultiProc_nameList__A                                        
800355a0  ti_sysbios_knl_Idle_funcList__C                                           
800355a8  xdc_runtime_Startup_firstFxns__A                                          
800355b0  xdc_runtime_Startup_firstFxns__C                                          
800355b8  xdc_runtime_Startup_lastFxns__C                                           
800355c0  ti_sdo_ipc_GateMP_E_gateUnavailable__C                                    
800355c4  ti_sdo_ipc_GateMP_E_localGate__C                                          
800355c8  ti_sdo_ipc_GateMP_LM_create__C                                            
800355cc  ti_sdo_ipc_GateMP_LM_delete__C                                            
800355d0  ti_sdo_ipc_GateMP_LM_enter__C                                             
800355d4  ti_sdo_ipc_GateMP_LM_leave__C                                             
800355d8  ti_sdo_ipc_GateMP_LM_open__C                                              
800355dc  ti_sdo_ipc_GateMP_Module__diagsEnabled__C                                 
800355e0  ti_sdo_ipc_GateMP_Module__diagsIncluded__C                                
800355e4  ti_sdo_ipc_GateMP_Module__diagsMask__C                                    
800355e8  ti_sdo_ipc_GateMP_Module__loggerFxn2__C                                   
800355ec  ti_sdo_ipc_GateMP_Module__loggerFxn4__C                                   
800355f0  ti_sdo_ipc_GateMP_Module__loggerObj__C                                    
800355f4  ti_sdo_ipc_Ipc_A_addrNotCacheAligned__C                                   
800355f8  ti_sdo_ipc_Ipc_A_addrNotInSharedRegion__C                                 
800355fc  ti_sdo_ipc_Ipc_A_internal__C                                              
80035600  ti_sdo_ipc_Ipc_A_invArgument__C                                           
80035604  ti_sdo_ipc_Ipc_A_invParam__C                                              
80035608  ti_sdo_ipc_Ipc_A_nullArgument__C                                          
8003560c  ti_sdo_ipc_Ipc_E_internal__C                                              
80035610  ti_sdo_ipc_Ipc_E_nameFailed__C                                            
80035614  ti_sdo_ipc_Ipc_E_versionMismatch__C                                       
80035618  ti_sdo_ipc_Ipc_Module__diagsEnabled__C                                    
8003561c  ti_sdo_ipc_Ipc_Module__diagsIncluded__C                                   
80035620  ti_sdo_ipc_Ipc_Module__diagsMask__C                                       
80035624  ti_sdo_ipc_Ipc_numUserFxns__C                                             
80035628  ti_sdo_ipc_Ipc_procSync__C                                                
8003562c  ti_sdo_ipc_Ipc_userFxns__C                                                
80035630  ti_sdo_ipc_MessageQ_A_invalidMsg__C                                       
80035634  ti_sdo_ipc_MessageQ_A_invalidObj__C                                       
80035638  ti_sdo_ipc_MessageQ_A_invalidQueueId__C                                   
8003563c  ti_sdo_ipc_MessageQ_A_procIdInvalid__C                                    
80035640  ti_sdo_ipc_MessageQ_A_unregisteredTransport__C                            
80035644  ti_sdo_ipc_MessageQ_E_indexNotAvailable__C                                
80035648  ti_sdo_ipc_MessageQ_E_maxReached__C                                       
8003564c  ti_sdo_ipc_MessageQ_E_nameFailed__C                                       
80035650  ti_sdo_ipc_MessageQ_Instance_State_highList__O                            
80035654  ti_sdo_ipc_MessageQ_Instance_State_normalList__O                          
80035658  ti_sdo_ipc_MessageQ_LM_get__C                                             
8003565c  ti_sdo_ipc_MessageQ_LM_putLocal__C                                        
80035660  ti_sdo_ipc_MessageQ_Module__diagsEnabled__C                               
80035664  ti_sdo_ipc_MessageQ_Module__diagsIncluded__C                              
80035668  ti_sdo_ipc_MessageQ_Module__diagsMask__C                                  
8003566c  ti_sdo_ipc_MessageQ_Module__loggerFxn4__C                                 
80035670  ti_sdo_ipc_MessageQ_Module__loggerObj__C                                  
80035674  ti_sdo_ipc_MessageQ_Object__count__C                                      
80035678  ti_sdo_ipc_MessageQ_Object__heap__C                                       
8003567c  ti_sdo_ipc_MessageQ_maxRuntimeEntries__C                                  
80035680  ti_sdo_ipc_MessageQ_numReservedEntries__C                                 
80035684  ti_sdo_ipc_Notify_A_alreadyRegistered__C                                  
80035688  ti_sdo_ipc_Notify_A_internal__C                                           
8003568c  ti_sdo_ipc_Notify_A_invArgument__C                                        
80035690  ti_sdo_ipc_Notify_A_notRegistered__C                                      
80035694  ti_sdo_ipc_Notify_A_reservedEvent__C                                      
80035698  ti_sdo_ipc_Notify_Module__diagsEnabled__C                                 
8003569c  ti_sdo_ipc_Notify_Module__diagsIncluded__C                                
800356a0  ti_sdo_ipc_Notify_Module__diagsMask__C                                    
800356a4  ti_sdo_ipc_Notify_Module__gateObj__C                                      
800356a8  ti_sdo_ipc_Notify_Object__heap__C                                         
800356ac  ti_sdo_ipc_Notify_numEvents__C                                            
800356b0  ti_sdo_ipc_SharedRegion_A_addrOutOfRange__C                               
800356b4  ti_sdo_ipc_SharedRegion_A_idTooLarge__C                                   
800356b8  ti_sdo_ipc_SharedRegion_A_noHeap__C                                       
800356bc  ti_sdo_ipc_SharedRegion_A_region0Invalid__C                               
800356c0  ti_sdo_ipc_SharedRegion_A_regionInvalid__C                                
800356c4  ti_sdo_ipc_SharedRegion_A_reserveTooMuch__C                               
800356c8  ti_sdo_ipc_SharedRegion_INVALIDSRPTR__C                                   
800356cc  ti_sdo_ipc_SharedRegion_Module__diagsEnabled__C                           
800356d0  ti_sdo_ipc_SharedRegion_Module__diagsIncluded__C                          
800356d4  ti_sdo_ipc_SharedRegion_Module__diagsMask__C                              
800356d8  ti_sdo_ipc_SharedRegion_numOffsetBits__C                                  
800356dc  ti_sdo_ipc_SharedRegion_offsetMask__C                                     
800356e0  ti_sdo_ipc_family_tci663x_Interrupt_A_clusterBaseId__C                    
800356e4  ti_sdo_ipc_family_tci663x_Interrupt_A_hostConfig__C                       
800356e8  ti_sdo_ipc_family_tci663x_Interrupt_INTERDSPINT__C                        
800356ec  ti_sdo_ipc_family_tci663x_Interrupt_IPCAR0__C                             
800356f0  ti_sdo_ipc_family_tci663x_Interrupt_IPCGR0__C                             
800356f4  ti_sdo_ipc_family_tci663x_Interrupt_IPCGRH__C                             
800356f8  ti_sdo_ipc_family_tci663x_Interrupt_KICK0__C                              
800356fc  ti_sdo_ipc_family_tci663x_Interrupt_KICK1__C                              
80035700  ti_sdo_ipc_family_tci663x_Interrupt_Module__diagsEnabled__C               
80035704  ti_sdo_ipc_family_tci663x_Interrupt_Module__diagsIncluded__C              
80035708  ti_sdo_ipc_family_tci663x_Interrupt_Module__diagsMask__C                  
8003570c  ti_sdo_ipc_family_tci663x_Interrupt_ipcIntr__C                            
80035710  ti_sdo_ipc_gates_GateHWSem_A_invSemNum__C                                 
80035714  ti_sdo_ipc_gates_GateHWSem_Module__diagsEnabled__C                        
80035718  ti_sdo_ipc_gates_GateHWSem_Module__diagsIncluded__C                       
8003571c  ti_sdo_ipc_gates_GateHWSem_Module__diagsMask__C                           
80035720  ti_sdo_ipc_gates_GateHWSem_baseAddr__C                                    
80035724  ti_sdo_ipc_gates_GateHWSem_numSems__C                                     
80035728  ti_sdo_ipc_gates_GateHWSem_reservedMaskArr__A                             
8003572c  ti_sdo_ipc_gates_GateHWSem_reservedMaskArr__C                             
80035730  ti_sdo_ipc_gates_GateMPSupportNull_A_invalidAction__C                     
80035734  ti_sdo_ipc_gates_GateMPSupportNull_Module__diagsEnabled__C                
80035738  ti_sdo_ipc_gates_GateMPSupportNull_Module__diagsIncluded__C               
8003573c  ti_sdo_ipc_gates_GateMPSupportNull_Module__diagsMask__C                   
80035740  ti_sdo_ipc_gates_GateMPSupportNull_action__C                              
80035744  ti_sdo_ipc_gates_GatePeterson_E_gateRemotelyOpened__C                     
80035748  ti_sdo_ipc_gates_GatePeterson_Module__diagsEnabled__C                     
8003574c  ti_sdo_ipc_gates_GatePeterson_Module__diagsIncluded__C                    
80035750  ti_sdo_ipc_gates_GatePeterson_Module__diagsMask__C                        
80035754  ti_sdo_ipc_gates_GatePeterson_numInstances__C                             
80035758  ti_sdo_ipc_heaps_HeapMemMP_A_align__C                                     
8003575c  ti_sdo_ipc_heaps_HeapMemMP_A_heapSize__C                                  
80035760  ti_sdo_ipc_heaps_HeapMemMP_A_invalidFree__C                               
80035764  ti_sdo_ipc_heaps_HeapMemMP_A_zeroBlock__C                                 
80035768  ti_sdo_ipc_heaps_HeapMemMP_E_memory__C                                    
8003576c  ti_sdo_ipc_heaps_HeapMemMP_Module__diagsEnabled__C                        
80035770  ti_sdo_ipc_heaps_HeapMemMP_Module__diagsIncluded__C                       
80035774  ti_sdo_ipc_heaps_HeapMemMP_Module__diagsMask__C                           
80035778  ti_sdo_ipc_interfaces_IGateMPSupport_Interface__BASE__C                   
8003577c  ti_sdo_ipc_interfaces_IMessageQTransport_Interface__BASE__C               
80035780  ti_sdo_ipc_interfaces_INetworkTransport_Interface__BASE__C                
80035784  ti_sdo_ipc_interfaces_INotifyDriver_Interface__BASE__C                    
80035788  ti_sdo_ipc_interfaces_ITransport_Interface__BASE__C                       
8003578c  ti_sdo_ipc_notifyDrivers_NotifyDriverCirc_A_notSupported__C               
80035790  ti_sdo_ipc_notifyDrivers_NotifyDriverCirc_Module__diagsEnabled__C         
80035794  ti_sdo_ipc_notifyDrivers_NotifyDriverCirc_Module__diagsIncluded__C        
80035798  ti_sdo_ipc_notifyDrivers_NotifyDriverCirc_Module__diagsMask__C            
8003579c  ti_sdo_ipc_notifyDrivers_NotifyDriverCirc_maxIndex__C                     
800357a0  ti_sdo_ipc_notifyDrivers_NotifyDriverCirc_modIndex__C                     
800357a4  ti_sdo_ipc_notifyDrivers_NotifyDriverCirc_numMsgs__C                      
800357a8  ti_sdo_ipc_nsremote_NameServerRemoteNotify_A_invalidValueLen__C           
800357ac  ti_sdo_ipc_nsremote_NameServerRemoteNotify_A_messageSize__C               
800357b0  ti_sdo_ipc_nsremote_NameServerRemoteNotify_Instance_State_semMultiBlock__O
800357b4  ti_sdo_ipc_nsremote_NameServerRemoteNotify_Instance_State_semRemoteWait__O
800357b8  ti_sdo_ipc_nsremote_NameServerRemoteNotify_Instance_State_swiRequest__O   
800357bc  ti_sdo_ipc_nsremote_NameServerRemoteNotify_Instance_State_swiResponse__O  
800357c0  ti_sdo_ipc_nsremote_NameServerRemoteNotify_Module__diagsEnabled__C        
800357c4  ti_sdo_ipc_nsremote_NameServerRemoteNotify_Module__diagsIncluded__C       
800357c8  ti_sdo_ipc_nsremote_NameServerRemoteNotify_Module__diagsMask__C           
800357cc  ti_sdo_ipc_nsremote_NameServerRemoteNotify_notifyEventId__C               
800357d0  ti_sdo_ipc_nsremote_NameServerRemoteNotify_timeout__C                     
800357d4  ti_sdo_ipc_transports_TransportShmNotifySetup_priority__C                 
800357d8  ti_sdo_utils_INameServerRemote_Interface__BASE__C                         
800357dc  ti_sdo_utils_MultiProc_A_invalidMultiProcId__C                            
800357e0  ti_sdo_utils_MultiProc_A_invalidProcName__C                               
800357e4  ti_sdo_utils_MultiProc_Module__diagsEnabled__C                            
800357e8  ti_sdo_utils_MultiProc_Module__diagsIncluded__C                           
800357ec  ti_sdo_utils_MultiProc_Module__diagsMask__C                               
800357f0  ti_sdo_utils_MultiProc_nameList__C                                        
800357f4  ti_sdo_utils_MultiProc_procAddrMode__C                                    
800357f8  ti_sdo_utils_NameServer_A_invArgument__C                                  
800357fc  ti_sdo_utils_NameServer_A_invalidLen__C                                   
80035800  ti_sdo_utils_NameServer_E_entryExists__C                                  
80035804  ti_sdo_utils_NameServer_E_maxReached__C                                   
80035808  ti_sdo_utils_NameServer_Instance_State_freeList__O                        
8003580c  ti_sdo_utils_NameServer_Instance_State_nameList__O                        
80035810  ti_sdo_utils_NameServer_Module__diagsEnabled__C                           
80035814  ti_sdo_utils_NameServer_Module__diagsIncluded__C                          
80035818  ti_sdo_utils_NameServer_Module__diagsMask__C                              
8003581c  ti_sdo_utils_NameServer_Object__count__C                                  
80035820  ti_sysbios_family_c62_TaskSupport_stackAlignment__C                       
80035824  ti_sysbios_family_c64p_Exception_E_exceptionMax__C                        
80035828  ti_sysbios_family_c64p_Exception_exceptionHook__C                         
8003582c  ti_sysbios_family_c64p_Exception_externalHook__C                          
80035830  ti_sysbios_family_c64p_Exception_internalHook__C                          
80035834  ti_sysbios_family_c64p_Exception_nmiHook__C                               
80035838  ti_sysbios_family_c64p_Hwi_E_alreadyDefined__C                            
8003583c  ti_sysbios_family_c64p_Hwi_E_handleNotFound__C                            
80035840  ti_sysbios_family_c64p_Hwi_E_invalidIntNum__C                             
80035844  ti_sysbios_family_c64p_Hwi_INTRMUX1Address__C                             
80035848  ti_sysbios_family_c64p_Hwi_LD_end__C                                      
8003584c  ti_sysbios_family_c64p_Hwi_LM_begin__C                                    
80035850  ti_sysbios_family_c64p_Hwi_Module__diagsEnabled__C                        
80035854  ti_sysbios_family_c64p_Hwi_Module__diagsIncluded__C                       
80035858  ti_sysbios_family_c64p_Hwi_Module__diagsMask__C                           
8003585c  ti_sysbios_family_c64p_Hwi_Module__loggerFxn1__C                          
80035860  ti_sysbios_family_c64p_Hwi_Module__loggerFxn8__C                          
80035864  ti_sysbios_family_c64p_Hwi_Module__loggerObj__C                           
80035868  ti_sysbios_family_c66_Cache_E_invalidL1CacheSize__C                       
8003586c  ti_sysbios_family_c66_Cache_E_invalidL2CacheSize__C                       
80035870  ti_sysbios_family_c66_Cache_atomicBlockSize__C                            
80035874  ti_sysbios_gates_GateMutexPri_A_badContext__C                             
80035878  ti_sysbios_gates_GateMutexPri_A_enterTaskDisabled__C                      
8003587c  ti_sysbios_gates_GateMutexPri_Instance_State_pendQ__O                     
80035880  ti_sysbios_gates_GateMutexPri_Module__diagsEnabled__C                     
80035884  ti_sysbios_gates_GateMutexPri_Module__diagsIncluded__C                    
80035888  ti_sysbios_gates_GateMutexPri_Module__diagsMask__C                        
8003588c  ti_sysbios_gates_GateMutex_A_badContext__C                                
80035890  ti_sysbios_gates_GateMutex_Instance_State_sem__O                          
80035894  ti_sysbios_gates_GateMutex_Module__diagsEnabled__C                        
80035898  ti_sysbios_gates_GateMutex_Module__diagsIncluded__C                       
8003589c  ti_sysbios_gates_GateMutex_Module__diagsMask__C                           
800358a0  ti_sysbios_gates_GateSwi_A_badContext__C                                  
800358a4  ti_sysbios_gates_GateSwi_Module__diagsEnabled__C                          
800358a8  ti_sysbios_gates_GateSwi_Module__diagsIncluded__C                         
800358ac  ti_sysbios_gates_GateSwi_Module__diagsMask__C                             
800358b0  ti_sysbios_hal_Hwi_E_stackOverflow__C                                     
800358b4  ti_sysbios_heaps_HeapMem_A_align__C                                       
800358b8  ti_sysbios_heaps_HeapMem_A_heapSize__C                                    
800358bc  ti_sysbios_heaps_HeapMem_A_invalidFree__C                                 
800358c0  ti_sysbios_heaps_HeapMem_A_zeroBlock__C                                   
800358c4  ti_sysbios_heaps_HeapMem_E_memory__C                                      
800358c8  ti_sysbios_heaps_HeapMem_Module__diagsEnabled__C                          
800358cc  ti_sysbios_heaps_HeapMem_Module__diagsIncluded__C                         
800358d0  ti_sysbios_heaps_HeapMem_Module__diagsMask__C                             
800358d4  ti_sysbios_heaps_HeapMem_Module__gateObj__C                               
800358d8  ti_sysbios_heaps_HeapMem_Object__count__C                                 
800358dc  ti_sysbios_heaps_HeapMem_reqAlign__C                                      
800358e0  ti_sysbios_knl_Clock_LM_begin__C                                          
800358e4  ti_sysbios_knl_Clock_LM_tick__C                                           
800358e8  ti_sysbios_knl_Clock_LW_delayed__C                                        
800358ec  ti_sysbios_knl_Clock_Module_State_clockQ__O                               
800358f0  ti_sysbios_knl_Clock_Module__diagsEnabled__C                              
800358f4  ti_sysbios_knl_Clock_Module__diagsIncluded__C                             
800358f8  ti_sysbios_knl_Clock_Module__diagsMask__C                                 
800358fc  ti_sysbios_knl_Clock_Module__loggerFxn1__C                                
80035900  ti_sysbios_knl_Clock_Module__loggerFxn2__C                                
80035904  ti_sysbios_knl_Clock_Module__loggerObj__C                                 
80035908  ti_sysbios_knl_Clock_tickPeriod__C                                        
8003590c  ti_sysbios_knl_Semaphore_A_badContext__C                                  
80035910  ti_sysbios_knl_Idle_funcList__A                                           
80035914  ti_sysbios_knl_Semaphore_A_noEvents__C                                    
80035918  ti_sysbios_knl_Semaphore_A_overflow__C                                    
8003591c  ti_sysbios_knl_Semaphore_A_pendTaskDisabled__C                            
80035920  ti_sysbios_knl_Semaphore_Instance_State_pendQ__O                          
80035924  ti_sysbios_knl_Semaphore_LM_pend__C                                       
80035928  ti_sysbios_knl_Semaphore_LM_post__C                                       
8003592c  ti_sysbios_knl_Semaphore_Module__diagsEnabled__C                          
80035930  ti_sysbios_knl_Semaphore_Module__diagsIncluded__C                         
80035934  ti_sysbios_knl_Semaphore_Module__diagsMask__C                             
80035938  ti_sysbios_knl_Semaphore_Module__loggerFxn2__C                            
8003593c  ti_sysbios_knl_Semaphore_Module__loggerFxn4__C                            
80035940  ti_sysbios_knl_Semaphore_Module__loggerObj__C                             
80035944  ti_sysbios_knl_Swi_A_badPriority__C                                       
80035948  ti_sysbios_knl_Swi_LD_end__C                                              
8003594c  ti_sysbios_knl_Swi_LM_begin__C                                            
80035950  ti_sysbios_knl_Swi_LM_post__C                                             
80035954  ti_sysbios_knl_Swi_Module__diagsEnabled__C                                
80035958  ti_sysbios_knl_Swi_Module__diagsIncluded__C                               
8003595c  ti_sysbios_knl_Swi_Module__diagsMask__C                                   
80035960  ti_sysbios_knl_Swi_Module__loggerFxn1__C                                  
80035964  ti_sysbios_knl_Swi_Module__loggerFxn4__C                                  
80035968  ti_sysbios_knl_Swi_Module__loggerObj__C                                   
8003596c  ti_sysbios_knl_Swi_Object__count__C                                       
80035970  ti_sysbios_knl_Task_A_badPriority__C                                      
80035974  ti_sysbios_knl_Task_A_badTaskState__C                                     
80035978  ti_sysbios_knl_Task_A_badThreadType__C                                    
8003597c  ti_sysbios_knl_Task_A_badTimeout__C                                       
80035980  ti_sysbios_knl_Task_A_noPendElem__C                                       
80035984  ti_sysbios_knl_Task_A_sleepTaskDisabled__C                                
80035988  ti_sysbios_knl_Task_E_spOutOfBounds__C                                    
8003598c  ti_sysbios_knl_Task_E_stackOverflow__C                                    
80035990  ti_sysbios_knl_Task_LD_block__C                                           
80035994  ti_sysbios_knl_Task_LD_exit__C                                            
80035998  ti_sysbios_knl_Task_LD_ready__C                                           
8003599c  ti_sysbios_knl_Task_LM_setPri__C                                          
800359a0  ti_sysbios_knl_Task_LM_sleep__C                                           
800359a4  ti_sysbios_knl_Task_LM_switch__C                                          
800359a8  ti_sysbios_knl_Task_Module_State_inactiveQ__O                             
800359ac  ti_sysbios_knl_Task_Module__diagsEnabled__C                               
800359b0  ti_sysbios_knl_Task_Module__diagsIncluded__C                              
800359b4  ti_sysbios_knl_Task_Module__diagsMask__C                                  
800359b8  ti_sysbios_knl_Task_Module__loggerFxn2__C                                 
800359bc  ti_sysbios_knl_Task_Module__loggerFxn4__C                                 
800359c0  ti_sysbios_knl_Task_Module__loggerObj__C                                  
800359c4  ti_sysbios_knl_Task_Object__count__C                                      
800359c8  ti_sysbios_knl_Task_allBlockedFunc__C                                     
800359cc  ti_sysbios_knl_Task_defaultStackHeap__C                                   
800359d0  ti_sysbios_knl_Task_defaultStackSize__C                                   
800359d4  ti_sysbios_knl_Task_numConstructedTasks__C                                
800359d8  ti_sysbios_syncs_SyncSem_Module__diagsEnabled__C                          
800359dc  ti_sysbios_syncs_SyncSem_Module__diagsIncluded__C                         
800359e0  ti_sysbios_syncs_SyncSem_Module__diagsMask__C                             
800359e4  ti_sysbios_timers_timer64_Timer_A_notAvailable__C                         
800359e8  ti_sysbios_timers_timer64_Timer_E_cannotSupport__C                        
800359ec  ti_sysbios_timers_timer64_Timer_Module__diagsEnabled__C                   
800359f0  ti_sysbios_timers_timer64_Timer_Module__diagsIncluded__C                  
800359f4  ti_sysbios_timers_timer64_Timer_Module__diagsMask__C                      
800359f8  ti_sysbios_timers_timer64_Timer_anyMaskHigh__C                            
800359fc  ti_sysbios_timers_timer64_Timer_anyMask__C                                
80035a00  ti_sysbios_timers_timer64_Timer_freqDivisor__C                            
80035a04  ti_sysbios_timers_timer64_Timer_numLocalTimers__C                         
80035a08  ti_sysbios_timers_timer64_Timer_numTimerDevices__C                        
80035a0c  ti_sysbios_xdcruntime_GateThreadSupport_Instance_State_gate__O            
80035a10  xdc_runtime_Assert_E_assertFailed__C                                      
80035a14  xdc_runtime_Core_A_initializedParams__C                                   
80035a18  xdc_runtime_Core_Module__diagsEnabled__C                                  
80035a1c  xdc_runtime_Core_Module__diagsIncluded__C                                 
80035a20  xdc_runtime_Core_Module__diagsMask__C                                     
80035a24  xdc_runtime_Error_E_memory__C                                             
80035a28  xdc_runtime_Error_Module__diagsEnabled__C                                 
80035a2c  xdc_runtime_Error_Module__diagsIncluded__C                                
80035a30  xdc_runtime_Error_Module__diagsMask__C                                    
80035a34  xdc_runtime_Error_Module__loggerFxn8__C                                   
80035a38  xdc_runtime_Error_Module__loggerObj__C                                    
80035a3c  xdc_runtime_Error_policyFxn__C                                            
80035a40  xdc_runtime_Error_policy__C                                               
80035a44  xdc_runtime_Error_raiseHook__C                                            
80035a48  xdc_runtime_IFilterLogger_Interface__BASE__C                              
80035a4c  xdc_runtime_IGateProvider_Interface__BASE__C                              
80035a50  xdc_runtime_IHeap_Interface__BASE__C                                      
80035a54  xdc_runtime_ILogger_Interface__BASE__C                                    
80035a58  xdc_runtime_IModule_Interface__BASE__C                                    
80035a5c  xdc_runtime_Log_L_error__C                                                
80035a60  xdc_runtime_LoggerBuf_E_badLevel__C                                       
80035a64  xdc_runtime_LoggerBuf_Module__gateObj__C                                  
80035a68  xdc_runtime_LoggerBuf_Object__count__C                                    
80035a6c  xdc_runtime_LoggerBuf_statusLogger__C                                     
80035a70  xdc_runtime_Memory_defaultHeapInstance__C                                 
80035a74  xdc_runtime_Startup_execImpl__C                                           
80035a78  xdc_runtime_Startup_maxPasses__C                                          
80035a7c  xdc_runtime_Startup_sfxnRts__C                                            
80035a80  xdc_runtime_Startup_sfxnTab__C                                            
80035a84  xdc_runtime_SysMin_bufSize__C                                             
80035a88  xdc_runtime_SysMin_outputFunc__C                                          
80035a8c  xdc_runtime_System_Module__gateObj__C                                     
80035a90  xdc_runtime_System_abortFxn__C                                            
80035a94  xdc_runtime_System_exitFxn__C                                             
80035a98  xdc_runtime_System_extendFxn__C                                           
80035a9c  xdc_runtime_System_maxAtexitHandlers__C                                   
80035aa0  xdc_runtime_Text_charTab__C                                               
80035aa4  xdc_runtime_Text_nameEmpty__C                                             
80035aa8  xdc_runtime_Text_nameStatic__C                                            
80035aac  xdc_runtime_Text_nameUnknown__C                                           
80035ab0  xdc_runtime_Text_nodeTab__C                                               
80035ab4  xdc_runtime_Text_visitRopeFxn__C                                          
80035ab8  xdc_runtime_knl_ISync_Interface__BASE__C                                  
80035abc  ti_sdo_ipc_Ipc_Module__id__C                                              
80035abe  ti_sdo_ipc_Ipc_generateSlaveDataForHost__C                                
80035ac0  ti_sdo_ipc_MessageQ_Module__id__C                                         
80035ac2  ti_sdo_ipc_MessageQ_Module__loggerDefined__C                              
80035ac4  ti_sdo_ipc_Notify_Module__id__C                                           
80035ac6  ti_sdo_ipc_Notify_numLines__C                                             
80035ac8  ti_sdo_ipc_Notify_reservedEvents__C                                       
80035aca  ti_sdo_ipc_SharedRegion_Module__id__C                                     
80035acc  ti_sdo_ipc_SharedRegion_numEntries__C                                     
80035ace  ti_sdo_ipc_SharedRegion_translate__C                                      
80035ad0  ti_sdo_ipc_family_tci663x_Interrupt_Module__id__C                         
80035ad2  ti_sdo_ipc_family_tci663x_Interrupt_enableKick__C                         
80035ad4  ti_sdo_ipc_family_tci663x_NotifyCircSetup_includeHost__C                  
80035ad6  ti_sdo_ipc_gates_GateHWSem_Module__id__C                                  
80035ad8  ti_sdo_ipc_gates_GateMPSupportNull_Module__id__C                          
80035ada  ti_sdo_ipc_gates_GatePeterson_Module__id__C                               
80035adc  ti_sdo_ipc_heaps_HeapMemMP_Module__id__C                                  
80035ade  ti_sdo_ipc_notifyDrivers_NotifyDriverCirc_Module__id__C                   
80035ae0  ti_sdo_ipc_notifyDrivers_NotifyDriverCirc_enableStats__C                  
80035ae2  ti_sdo_ipc_nsremote_NameServerRemoteNotify_Module__id__C                  
80035ae4  ti_sdo_ipc_transports_TransportShmNotify_alwaysWriteBackMsg__C            
80035ae6  ti_sdo_ipc_transports_TransportShmNotify_notifyEventId__C                 
80035ae8  ti_sdo_utils_MultiProc_Module__id__C                                      
80035aea  ti_sdo_utils_MultiProc_numProcessors__C                                   
80035aec  ti_sdo_utils_MultiProc_numProcsInCluster__C                               
80035aee  ti_sdo_utils_NameServer_Module__id__C                                     
80035af0  ti_sysbios_family_c64p_Exception_Module__id__C                            
80035af2  ti_sysbios_family_c64p_Exception_useInternalBuffer__C                     
80035af4  ti_sysbios_family_c64p_Hwi_Module__id__C                                  
80035af6  ti_sysbios_family_c64p_Hwi_Module__loggerDefined__C                       
80035af8  ti_sysbios_family_c66_Cache_Module__id__C                                 
80035afa  ti_sysbios_family_c66_Cache_registerRTSSynch__C                           
80035afc  ti_sysbios_gates_GateMutexPri_Module__id__C                               
80035afe  ti_sysbios_gates_GateMutex_Module__id__C                                  
80035b00  ti_sysbios_gates_GateSwi_Module__id__C                                    
80035b02  ti_sysbios_hal_Hwi_Module__id__C                                          
80035b04  ti_sysbios_heaps_HeapMem_Module__id__C                                    
80035b06  ti_sysbios_knl_Clock_Module__id__C                                        
80035b08  ti_sysbios_knl_Clock_Module__loggerDefined__C                             
80035b0a  ti_sysbios_knl_Semaphore_Module__id__C                                    
80035b0c  ti_sysbios_knl_Semaphore_Module__loggerDefined__C                         
80035b0e  ti_sysbios_knl_Swi_Module__id__C                                          
80035b10  ti_sysbios_knl_Swi_Module__loggerDefined__C                               
80035b12  ti_sysbios_knl_Task_Module__id__C                                         
80035b14  ti_sysbios_knl_Task_Module__loggerDefined__C                              
80035b16  ti_sysbios_syncs_SyncSem_Module__id__C                                    
80035b18  ti_sysbios_timers_timer64_Timer_Module__id__C                             
80035b1a  ti_sysbios_timers_timer64_Timer_startupNeeded__C                          
80035b1c  ti_sysbios_timers_timer64_Timer_useTimer64pRegMap__C                      
80035b1e  xdc_runtime_Core_Module__id__C                                            
80035b20  xdc_runtime_Error_Module__loggerDefined__C                                
80035b22  xdc_runtime_Error_maxDepth__C                                             
80035b24  xdc_runtime_LoggerBuf_Module__id__C                                       
80035b26  xdc_runtime_LoggerBuf_filterByLevel__C                                    
80035b28  xdc_runtime_Main_Module__id__C                                            
80035b2a  xdc_runtime_Memory_Module__id__C                                          
80035b2c  xdc_runtime_SysMin_flushAtExit__C                                         
80035b2e  xdc_runtime_Text_charCnt__C                                               
80035b30  xdc_runtime_Text_isLoaded__C                                              
80035b32  xdc_runtime_Text_registryModsLastId__C                                    
80035b34  xdc_runtime_Text_unnamedModsLastId__C                                     
80035b36  ti_sysbios_timers_timer64_Timer_localTimerBaseId__C                       
80035b38  cppiGblCPDMACfgParams                                                     
80036510  ti_sdo_ipc_GateMP_Module_State_0_remoteCustom1Gates__A                    
80036d10  GlobalQmGroup0                                                            
80037054  qmssGblCfgParams                                                          
80037324  _lock                                                                     
80037328  GlobalQmGroup1                                                            
80037564  _unlock                                                                   
80037568  ti_sysbios_timers_timer64_Timer_Module_State_0_device__A                  
800376e8  ti_sdo_utils_NameServer_Object__table__V                                  
8003779c  ti_sdo_ipc_SharedRegion_Module__state__V                                  
800377a0  ti_sdo_ipc_SharedRegion_Module_State_0_regions__A                         
80037830  ti_sdo_ipc_GateMP_Module_State_0_remoteSystemGates__A                     
800378b0  ti_sysbios_knl_Swi_Module_State_0_readyQ__A                               
80037930  ti_sysbios_knl_Task_Module_State_0_readyQ__A                              
800379b0  ti_sysbios_timers_timer64_Timer_Module_State_0_gctrl__A                   
80037a30  ti_sysbios_timers_timer64_Timer_Module_State_0_handles__A                 
80037ab0  ti_sysbios_timers_timer64_Timer_Module_State_0_intFreqs__A                
80037b30  ti_sysbios_family_c64p_Hwi_Module__state__V                               
80037b9c  ti_sdo_ipc_MessageQ_Module__state__V                                      
80037c04  ti_sdo_ipc_heaps_HeapMemMP_Module__state__V                               
80037c08  ti_sysbios_knl_Task_Object__table__V                                      
80037c64  ti_sdo_ipc_GateMP_Module__state__V                                        
80037cb4  ti_sdo_ipc_transports_TransportShmNotifySetup_Module__state__V            
80037cb8  ti_sysbios_timers_timer64_Timer_Object__table__V                          
80037d08  ti_sysbios_knl_Task_Module__state__V                                      
80037d50  ti_sysbios_gates_GateMutex_Object__table__V                               
80037d90  ti_sysbios_family_c64p_Exception_Module__state__V                         
80037dc0  ti_sysbios_knl_Swi_Object__table__V                                       
80037df0  ti_sysbios_knl_Clock_Module__state__V                                     
80037e1c  xdc_runtime_Memory_Module__state__V                                       
80037e20  ti_sdo_ipc_Ipc_Module_State_0_procEntry__A                                
80037e48  ti_sysbios_BIOS_Module__state__V                                          
80037e6c  xdc_runtime_Error_Module__state__V                                        
80037e70  xdc_runtime_LoggerBuf_Object__table__V                                    
80037e98  ti_sdo_ipc_MessageQ_Module_State_0_heaps__A                               
80037eb8  xdc_runtime_Error_IgnoreBlock                                             
80037ed8  ti_sysbios_knl_Swi_Module__state__V                                       
80037ef8  ti_sysbios_family_c64p_Hwi_Object__table__V                               
80037f10  ti_sysbios_gates_GateMutexPri_Object__table__V                            
80037f28  ti_sysbios_heaps_HeapMem_Object__table__V                                 
80037f40  ti_sysbios_timers_timer64_Timer_Module__state__V                          
80037f58  cppiGblCfgParams                                                          
80037f6c  cppiLObj                                                                  
80037f80  ti_sdo_ipc_family_tci663x_Interrupt_Module__state__V                      
80037f98  ti_sdo_ipc_MessageQ_Module_State_0_transports__A                          
80037fa8  ti_sdo_ipc_family_tci663x_Interrupt_Module_State_0_clientTab__A           
80037fb8  ti_sdo_ipc_family_tci663x_Interrupt_Module_State_0_hwTab__A               
80037fc8  ti_sysbios_gates_GateAll_Object__table__V                                 
80037fd8  xdc_runtime_System_Module_State_0_atexitHandlers__A                       
80037fe8  __TI_cleanup_ptr                                                          
80037fec  __TI_dtors_ptr                                                            
80037ff0  __TI_enable_exit_profile_output                                           
80037ff4  ti_sdo_ipc_Ipc_Module__state__V                                           
80038000  ti_sdo_utils_NameServer_Module__state__V                                  
80038010  ti_sysbios_gates_GateSwi_Object__table__V                                 
8003801c  xdc_runtime_SysMin_Module__state__V                                       
80038028  ti_sdo_ipc_GateMP_Module__root__V                                         
80038030  ti_sdo_ipc_MessageQ_Module__root__V                                       
80038038  ti_sdo_ipc_Notify_Module_State_0_notifyHandles__A                         
80038040  ti_sdo_ipc_Notify_Module__root__V                                         
80038048  ti_sdo_ipc_Notify_Module__state__V                                        
80038050  ti_sdo_ipc_gates_GateHWSem_Module__root__V                                
80038058  ti_sdo_ipc_gates_GateMPSupportNull_Module__root__V                        
80038060  ti_sdo_ipc_gates_GatePeterson_Module__root__V                             
80038068  ti_sdo_ipc_heaps_HeapMemMP_Module__root__V                                
80038070  ti_sdo_ipc_notifyDrivers_NotifyDriverCirc_Module__root__V                 
80038078  ti_sdo_ipc_nsremote_NameServerRemoteNotify_Module__root__V                
80038080  ti_sdo_ipc_transports_TransportShmNotifySetup_Module_State_0_handles__A   
80038088  ti_sdo_ipc_transports_TransportShmNotify_Module__root__V                  
80038090  ti_sdo_utils_List_Module__root__V                                         
80038098  ti_sdo_utils_MultiProc_Module__state__V                                   
800380a0  ti_sdo_utils_NameServer_Module_State_0_nsRemoteHandle__A                  
800380a8  ti_sdo_utils_NameServer_Module__root__V                                   
800380b0  ti_sysbios_family_c64p_Hwi_Module__root__V                                
800380b8  ti_sysbios_gates_GateAll_Module__root__V                                  
800380c0  ti_sysbios_gates_GateHwi_Module__root__V                                  
800380c8  ti_sysbios_gates_GateMutexPri_Module__root__V                             
800380d0  ti_sysbios_gates_GateMutex_Module__root__V                                
800380d8  ti_sysbios_gates_GateSwi_Module__root__V                                  
800380e0  ti_sysbios_hal_Hwi_Module__root__V                                        
800380e8  ti_sysbios_hal_Hwi_Object__table__V                                       
800380f0  ti_sysbios_heaps_HeapMem_Module__root__V                                  
800380f8  ti_sysbios_knl_Queue_Module__root__V                                      
80038100  ti_sysbios_knl_Semaphore_Module__root__V                                  
80038108  ti_sysbios_knl_Swi_Module__root__V                                        
80038110  ti_sysbios_knl_Task_Module__root__V                                       
80038118  ti_sysbios_syncs_SyncSem_Module__root__V                                  
80038120  ti_sysbios_xdcruntime_GateThreadSupport_Module__root__V                   
80038128  xdc_runtime_GateNull_Module__root__V                                      
80038130  xdc_runtime_LoggerBuf_Module__root__V                                     
80038138  xdc_runtime_Registry_Module__state__V                                     
80038140  xdc_runtime_Startup_Module__state__V                                      
80038148  xdc_runtime_System_Module__state__V                                       
80038150  xdc_runtime_knl_GateThread_Module__root__V                                
80038158  xdc_runtime_LoggerBuf_Module__state__V                                    
80038160  ti_sdo_ipc_Notify_Module_State_0_notifyHandles_0__A                       
80038168  ti_sdo_ipc_Notify_Module_State_0_notifyHandles_1__A                       
80038170  ti_sdo_utils_MultiProc_Module_State_0_clusterProcList__A                  
80038178  ti_sysbios_gates_GateHwi_Object__table__V                                 
80038180  ti_sysbios_knl_Task_Module_State_0_idleTask__A                            
80038188  xdc_runtime_GateNull_Object__table__V                                     
80038190  __CIOBUF_                                                                 
800382b0  Ipc_sr0MemorySetup                                                        
800382b0  __TI_STATIC_BASE                                                          
800382b4  core_id                                                                   
800382b8  qmssMallocCounter                                                         
800382bc  qmssFreeCounter                                                           
800382c0  cppiMallocCounter                                                         
800382c4  cppiFreeCounter                                                           
800382c8  rmMallocCounter                                                           
800382cc  rmFreeCounter                                                             
80038400  ti_sysbios_family_c64p_Hwi0                                               
80038400  ti_sysbios_family_c64p_Hwi_int0                                           
80038420  ti_sysbios_family_c64p_Hwi_int1                                           
80038440  ti_sysbios_family_c64p_Hwi_int2                                           
80038460  ti_sysbios_family_c64p_Hwi_int3                                           
80038480  ti_sysbios_family_c64p_Hwi_int4                                           
800384a0  ti_sysbios_family_c64p_Hwi_int5                                           
800384c0  ti_sysbios_family_c64p_Hwi_int6                                           
800384e0  ti_sysbios_family_c64p_Hwi_int7                                           
80038500  ti_sysbios_family_c64p_Hwi_int8                                           
80038520  ti_sysbios_family_c64p_Hwi_int9                                           
80038540  ti_sysbios_family_c64p_Hwi_int10                                          
80038560  ti_sysbios_family_c64p_Hwi_int11                                          
80038580  ti_sysbios_family_c64p_Hwi_int12                                          
800385a0  ti_sysbios_family_c64p_Hwi_int13                                          
800385c0  ti_sysbios_family_c64p_Hwi_int14                                          
800385e0  ti_sysbios_family_c64p_Hwi_int15                                          
800399ac  __TI_Handler_Table_Base                                                   
800399b4  __TI_Handler_Table_Limit                                                  
800399b8  __TI_CINIT_Base                                                           
800399e8  __TI_CINIT_Limit                                                          
ffffffff  __TI_pprof_out_hndl                                                       
ffffffff  __TI_prof_data_size                                                       
ffffffff  __TI_prof_data_start                                                      
ffffffff  __binit__                                                                 
ffffffff  __c_args__                                                                
ffffffff  binit                                                                     
UNDEFED   __TI_INITARRAY_Base                                                       
UNDEFED   __TI_INITARRAY_Limit                                                      
UNDEFED   __TI_TLS_INIT_Base                                                        
UNDEFED   __TI_TLS_INIT_Limit                                                       

[1371 symbols]
